	.file	"render_2D.cpp"
	.text
	.align 2
	.p2align 4
	.globl	_ZN8Camera2D15update_positionER6Engine
	.type	_ZN8Camera2D15update_positionER6Engine, @function
_ZN8Camera2D15update_positionER6Engine:
.LFB11485:
	.cfi_startproc
	endbr64
	ret
	.cfi_endproc
.LFE11485:
	.size	_ZN8Camera2D15update_positionER6Engine, .-_ZN8Camera2D15update_positionER6Engine
	.align 2
	.p2align 4
	.globl	_ZN8Camera2D13on_event_downER6EngineN8EngineIO10InputEventE
	.type	_ZN8Camera2D13on_event_downER6EngineN8EngineIO10InputEventE, @function
_ZN8Camera2D13on_event_downER6EngineN8EngineIO10InputEventE:
.LFB11487:
	.cfi_startproc
	endbr64
	ret
	.cfi_endproc
.LFE11487:
	.size	_ZN8Camera2D13on_event_downER6EngineN8EngineIO10InputEventE, .-_ZN8Camera2D13on_event_downER6EngineN8EngineIO10InputEventE
	.globl	_ZN8Camera2D11on_event_upER6EngineN8EngineIO10InputEventE
	.set	_ZN8Camera2D11on_event_upER6EngineN8EngineIO10InputEventE,_ZN8Camera2D13on_event_downER6EngineN8EngineIO10InputEventE
	.section	.text._ZNSt19_Sp_counted_deleterIDnPFvP11SDL_SurfaceESaIvELN9__gnu_cxx12_Lock_policyE2EED2Ev,"axG",@progbits,_ZNSt19_Sp_counted_deleterIDnPFvP11SDL_SurfaceESaIvELN9__gnu_cxx12_Lock_policyE2EED5Ev,comdat
	.align 2
	.p2align 4
	.weak	_ZNSt19_Sp_counted_deleterIDnPFvP11SDL_SurfaceESaIvELN9__gnu_cxx12_Lock_policyE2EED2Ev
	.type	_ZNSt19_Sp_counted_deleterIDnPFvP11SDL_SurfaceESaIvELN9__gnu_cxx12_Lock_policyE2EED2Ev, @function
_ZNSt19_Sp_counted_deleterIDnPFvP11SDL_SurfaceESaIvELN9__gnu_cxx12_Lock_policyE2EED2Ev:
.LFB12628:
	.cfi_startproc
	endbr64
	ret
	.cfi_endproc
.LFE12628:
	.size	_ZNSt19_Sp_counted_deleterIDnPFvP11SDL_SurfaceESaIvELN9__gnu_cxx12_Lock_policyE2EED2Ev, .-_ZNSt19_Sp_counted_deleterIDnPFvP11SDL_SurfaceESaIvELN9__gnu_cxx12_Lock_policyE2EED2Ev
	.weak	_ZNSt19_Sp_counted_deleterIDnPFvP11SDL_SurfaceESaIvELN9__gnu_cxx12_Lock_policyE2EED1Ev
	.set	_ZNSt19_Sp_counted_deleterIDnPFvP11SDL_SurfaceESaIvELN9__gnu_cxx12_Lock_policyE2EED1Ev,_ZNSt19_Sp_counted_deleterIDnPFvP11SDL_SurfaceESaIvELN9__gnu_cxx12_Lock_policyE2EED2Ev
	.section	.text._ZNSt19_Sp_counted_deleterIDnPFvP11SDL_SurfaceESaIvELN9__gnu_cxx12_Lock_policyE2EE10_M_disposeEv,"axG",@progbits,_ZNSt19_Sp_counted_deleterIDnPFvP11SDL_SurfaceESaIvELN9__gnu_cxx12_Lock_policyE2EE10_M_disposeEv,comdat
	.align 2
	.p2align 4
	.weak	_ZNSt19_Sp_counted_deleterIDnPFvP11SDL_SurfaceESaIvELN9__gnu_cxx12_Lock_policyE2EE10_M_disposeEv
	.type	_ZNSt19_Sp_counted_deleterIDnPFvP11SDL_SurfaceESaIvELN9__gnu_cxx12_Lock_policyE2EE10_M_disposeEv, @function
_ZNSt19_Sp_counted_deleterIDnPFvP11SDL_SurfaceESaIvELN9__gnu_cxx12_Lock_policyE2EE10_M_disposeEv:
.LFB12631:
	.cfi_startproc
	.cfi_personality 0x9b,DW.ref.__gxx_personality_v0
	.cfi_lsda 0x1b,.LLSDA12631
	endbr64
	subq	$8, %rsp
	.cfi_def_cfa_offset 16
	movq	%rdi, %r8
	xorl	%edi, %edi
	call	*16(%r8)
	addq	$8, %rsp
	.cfi_def_cfa_offset 8
	ret
	.cfi_endproc
.LFE12631:
	.globl	__gxx_personality_v0
	.section	.gcc_except_table._ZNSt19_Sp_counted_deleterIDnPFvP11SDL_SurfaceESaIvELN9__gnu_cxx12_Lock_policyE2EE10_M_disposeEv,"aG",@progbits,_ZNSt19_Sp_counted_deleterIDnPFvP11SDL_SurfaceESaIvELN9__gnu_cxx12_Lock_policyE2EE10_M_disposeEv,comdat
.LLSDA12631:
	.byte	0xff
	.byte	0xff
	.byte	0x1
	.uleb128 .LLSDACSE12631-.LLSDACSB12631
.LLSDACSB12631:
.LLSDACSE12631:
	.section	.text._ZNSt19_Sp_counted_deleterIDnPFvP11SDL_SurfaceESaIvELN9__gnu_cxx12_Lock_policyE2EE10_M_disposeEv,"axG",@progbits,_ZNSt19_Sp_counted_deleterIDnPFvP11SDL_SurfaceESaIvELN9__gnu_cxx12_Lock_policyE2EE10_M_disposeEv,comdat
	.size	_ZNSt19_Sp_counted_deleterIDnPFvP11SDL_SurfaceESaIvELN9__gnu_cxx12_Lock_policyE2EE10_M_disposeEv, .-_ZNSt19_Sp_counted_deleterIDnPFvP11SDL_SurfaceESaIvELN9__gnu_cxx12_Lock_policyE2EE10_M_disposeEv
	.section	.text._ZNSt19_Sp_counted_deleterIDnPFvP11SDL_TextureESaIvELN9__gnu_cxx12_Lock_policyE2EED2Ev,"axG",@progbits,_ZNSt19_Sp_counted_deleterIDnPFvP11SDL_TextureESaIvELN9__gnu_cxx12_Lock_policyE2EED5Ev,comdat
	.align 2
	.p2align 4
	.weak	_ZNSt19_Sp_counted_deleterIDnPFvP11SDL_TextureESaIvELN9__gnu_cxx12_Lock_policyE2EED2Ev
	.type	_ZNSt19_Sp_counted_deleterIDnPFvP11SDL_TextureESaIvELN9__gnu_cxx12_Lock_policyE2EED2Ev, @function
_ZNSt19_Sp_counted_deleterIDnPFvP11SDL_TextureESaIvELN9__gnu_cxx12_Lock_policyE2EED2Ev:
.LFB12635:
	.cfi_startproc
	endbr64
	ret
	.cfi_endproc
.LFE12635:
	.size	_ZNSt19_Sp_counted_deleterIDnPFvP11SDL_TextureESaIvELN9__gnu_cxx12_Lock_policyE2EED2Ev, .-_ZNSt19_Sp_counted_deleterIDnPFvP11SDL_TextureESaIvELN9__gnu_cxx12_Lock_policyE2EED2Ev
	.weak	_ZNSt19_Sp_counted_deleterIDnPFvP11SDL_TextureESaIvELN9__gnu_cxx12_Lock_policyE2EED1Ev
	.set	_ZNSt19_Sp_counted_deleterIDnPFvP11SDL_TextureESaIvELN9__gnu_cxx12_Lock_policyE2EED1Ev,_ZNSt19_Sp_counted_deleterIDnPFvP11SDL_TextureESaIvELN9__gnu_cxx12_Lock_policyE2EED2Ev
	.section	.text._ZNSt19_Sp_counted_deleterIDnPFvP11SDL_TextureESaIvELN9__gnu_cxx12_Lock_policyE2EE10_M_disposeEv,"axG",@progbits,_ZNSt19_Sp_counted_deleterIDnPFvP11SDL_TextureESaIvELN9__gnu_cxx12_Lock_policyE2EE10_M_disposeEv,comdat
	.align 2
	.p2align 4
	.weak	_ZNSt19_Sp_counted_deleterIDnPFvP11SDL_TextureESaIvELN9__gnu_cxx12_Lock_policyE2EE10_M_disposeEv
	.type	_ZNSt19_Sp_counted_deleterIDnPFvP11SDL_TextureESaIvELN9__gnu_cxx12_Lock_policyE2EE10_M_disposeEv, @function
_ZNSt19_Sp_counted_deleterIDnPFvP11SDL_TextureESaIvELN9__gnu_cxx12_Lock_policyE2EE10_M_disposeEv:
.LFB12638:
	.cfi_startproc
	.cfi_personality 0x9b,DW.ref.__gxx_personality_v0
	.cfi_lsda 0x1b,.LLSDA12638
	endbr64
	subq	$8, %rsp
	.cfi_def_cfa_offset 16
	movq	%rdi, %r8
	xorl	%edi, %edi
	call	*16(%r8)
	addq	$8, %rsp
	.cfi_def_cfa_offset 8
	ret
	.cfi_endproc
.LFE12638:
	.section	.gcc_except_table._ZNSt19_Sp_counted_deleterIDnPFvP11SDL_TextureESaIvELN9__gnu_cxx12_Lock_policyE2EE10_M_disposeEv,"aG",@progbits,_ZNSt19_Sp_counted_deleterIDnPFvP11SDL_TextureESaIvELN9__gnu_cxx12_Lock_policyE2EE10_M_disposeEv,comdat
.LLSDA12638:
	.byte	0xff
	.byte	0xff
	.byte	0x1
	.uleb128 .LLSDACSE12638-.LLSDACSB12638
.LLSDACSB12638:
.LLSDACSE12638:
	.section	.text._ZNSt19_Sp_counted_deleterIDnPFvP11SDL_TextureESaIvELN9__gnu_cxx12_Lock_policyE2EE10_M_disposeEv,"axG",@progbits,_ZNSt19_Sp_counted_deleterIDnPFvP11SDL_TextureESaIvELN9__gnu_cxx12_Lock_policyE2EE10_M_disposeEv,comdat
	.size	_ZNSt19_Sp_counted_deleterIDnPFvP11SDL_TextureESaIvELN9__gnu_cxx12_Lock_policyE2EE10_M_disposeEv, .-_ZNSt19_Sp_counted_deleterIDnPFvP11SDL_TextureESaIvELN9__gnu_cxx12_Lock_policyE2EE10_M_disposeEv
	.section	.text._ZNSt19_Sp_counted_deleterIDnPFvP11SDL_SurfaceESaIvELN9__gnu_cxx12_Lock_policyE2EE14_M_get_deleterERKSt9type_info,"axG",@progbits,_ZNSt19_Sp_counted_deleterIDnPFvP11SDL_SurfaceESaIvELN9__gnu_cxx12_Lock_policyE2EE14_M_get_deleterERKSt9type_info,comdat
	.align 2
	.p2align 4
	.weak	_ZNSt19_Sp_counted_deleterIDnPFvP11SDL_SurfaceESaIvELN9__gnu_cxx12_Lock_policyE2EE14_M_get_deleterERKSt9type_info
	.type	_ZNSt19_Sp_counted_deleterIDnPFvP11SDL_SurfaceESaIvELN9__gnu_cxx12_Lock_policyE2EE14_M_get_deleterERKSt9type_info, @function
_ZNSt19_Sp_counted_deleterIDnPFvP11SDL_SurfaceESaIvELN9__gnu_cxx12_Lock_policyE2EE14_M_get_deleterERKSt9type_info:
.LFB12633:
	.cfi_startproc
	endbr64
	pushq	%r12
	.cfi_def_cfa_offset 16
	.cfi_offset 12, -16
	pushq	%rbx
	.cfi_def_cfa_offset 24
	.cfi_offset 3, -24
	movq	%rdi, %rbx
	subq	$8, %rsp
	.cfi_def_cfa_offset 32
	movq	8(%rsi), %rdi
	leaq	_ZTSPFvP11SDL_SurfaceE(%rip), %rsi
	cmpq	%rsi, %rdi
	je	.L11
	xorl	%r12d, %r12d
	cmpb	$42, (%rdi)
	je	.L10
	call	strcmp@PLT
	testl	%eax, %eax
	jne	.L10
.L11:
	leaq	16(%rbx), %r12
.L10:
	addq	$8, %rsp
	.cfi_def_cfa_offset 24
	movq	%r12, %rax
	popq	%rbx
	.cfi_def_cfa_offset 16
	popq	%r12
	.cfi_def_cfa_offset 8
	ret
	.cfi_endproc
.LFE12633:
	.size	_ZNSt19_Sp_counted_deleterIDnPFvP11SDL_SurfaceESaIvELN9__gnu_cxx12_Lock_policyE2EE14_M_get_deleterERKSt9type_info, .-_ZNSt19_Sp_counted_deleterIDnPFvP11SDL_SurfaceESaIvELN9__gnu_cxx12_Lock_policyE2EE14_M_get_deleterERKSt9type_info
	.section	.text._ZNSt19_Sp_counted_deleterIDnPFvP11SDL_SurfaceESaIvELN9__gnu_cxx12_Lock_policyE2EED0Ev,"axG",@progbits,_ZNSt19_Sp_counted_deleterIDnPFvP11SDL_SurfaceESaIvELN9__gnu_cxx12_Lock_policyE2EED5Ev,comdat
	.align 2
	.p2align 4
	.weak	_ZNSt19_Sp_counted_deleterIDnPFvP11SDL_SurfaceESaIvELN9__gnu_cxx12_Lock_policyE2EED0Ev
	.type	_ZNSt19_Sp_counted_deleterIDnPFvP11SDL_SurfaceESaIvELN9__gnu_cxx12_Lock_policyE2EED0Ev, @function
_ZNSt19_Sp_counted_deleterIDnPFvP11SDL_SurfaceESaIvELN9__gnu_cxx12_Lock_policyE2EED0Ev:
.LFB12630:
	.cfi_startproc
	endbr64
	movl	$32, %esi
	jmp	_ZdlPvm@PLT
	.cfi_endproc
.LFE12630:
	.size	_ZNSt19_Sp_counted_deleterIDnPFvP11SDL_SurfaceESaIvELN9__gnu_cxx12_Lock_policyE2EED0Ev, .-_ZNSt19_Sp_counted_deleterIDnPFvP11SDL_SurfaceESaIvELN9__gnu_cxx12_Lock_policyE2EED0Ev
	.section	.text._ZNSt19_Sp_counted_deleterIDnPFvP11SDL_TextureESaIvELN9__gnu_cxx12_Lock_policyE2EED0Ev,"axG",@progbits,_ZNSt19_Sp_counted_deleterIDnPFvP11SDL_TextureESaIvELN9__gnu_cxx12_Lock_policyE2EED5Ev,comdat
	.align 2
	.p2align 4
	.weak	_ZNSt19_Sp_counted_deleterIDnPFvP11SDL_TextureESaIvELN9__gnu_cxx12_Lock_policyE2EED0Ev
	.type	_ZNSt19_Sp_counted_deleterIDnPFvP11SDL_TextureESaIvELN9__gnu_cxx12_Lock_policyE2EED0Ev, @function
_ZNSt19_Sp_counted_deleterIDnPFvP11SDL_TextureESaIvELN9__gnu_cxx12_Lock_policyE2EED0Ev:
.LFB12637:
	.cfi_startproc
	endbr64
	movl	$32, %esi
	jmp	_ZdlPvm@PLT
	.cfi_endproc
.LFE12637:
	.size	_ZNSt19_Sp_counted_deleterIDnPFvP11SDL_TextureESaIvELN9__gnu_cxx12_Lock_policyE2EED0Ev, .-_ZNSt19_Sp_counted_deleterIDnPFvP11SDL_TextureESaIvELN9__gnu_cxx12_Lock_policyE2EED0Ev
	.section	.text._ZNSt19_Sp_counted_deleterIDnPFvP11SDL_SurfaceESaIvELN9__gnu_cxx12_Lock_policyE2EE10_M_destroyEv,"axG",@progbits,_ZNSt19_Sp_counted_deleterIDnPFvP11SDL_SurfaceESaIvELN9__gnu_cxx12_Lock_policyE2EE10_M_destroyEv,comdat
	.align 2
	.p2align 4
	.weak	_ZNSt19_Sp_counted_deleterIDnPFvP11SDL_SurfaceESaIvELN9__gnu_cxx12_Lock_policyE2EE10_M_destroyEv
	.type	_ZNSt19_Sp_counted_deleterIDnPFvP11SDL_SurfaceESaIvELN9__gnu_cxx12_Lock_policyE2EE10_M_destroyEv, @function
_ZNSt19_Sp_counted_deleterIDnPFvP11SDL_SurfaceESaIvELN9__gnu_cxx12_Lock_policyE2EE10_M_destroyEv:
.LFB12632:
	.cfi_startproc
	endbr64
	movl	$32, %esi
	jmp	_ZdlPvm@PLT
	.cfi_endproc
.LFE12632:
	.size	_ZNSt19_Sp_counted_deleterIDnPFvP11SDL_SurfaceESaIvELN9__gnu_cxx12_Lock_policyE2EE10_M_destroyEv, .-_ZNSt19_Sp_counted_deleterIDnPFvP11SDL_SurfaceESaIvELN9__gnu_cxx12_Lock_policyE2EE10_M_destroyEv
	.section	.text._ZNSt19_Sp_counted_deleterIDnPFvP11SDL_TextureESaIvELN9__gnu_cxx12_Lock_policyE2EE10_M_destroyEv,"axG",@progbits,_ZNSt19_Sp_counted_deleterIDnPFvP11SDL_TextureESaIvELN9__gnu_cxx12_Lock_policyE2EE10_M_destroyEv,comdat
	.align 2
	.p2align 4
	.weak	_ZNSt19_Sp_counted_deleterIDnPFvP11SDL_TextureESaIvELN9__gnu_cxx12_Lock_policyE2EE10_M_destroyEv
	.type	_ZNSt19_Sp_counted_deleterIDnPFvP11SDL_TextureESaIvELN9__gnu_cxx12_Lock_policyE2EE10_M_destroyEv, @function
_ZNSt19_Sp_counted_deleterIDnPFvP11SDL_TextureESaIvELN9__gnu_cxx12_Lock_policyE2EE10_M_destroyEv:
.LFB12639:
	.cfi_startproc
	endbr64
	movl	$32, %esi
	jmp	_ZdlPvm@PLT
	.cfi_endproc
.LFE12639:
	.size	_ZNSt19_Sp_counted_deleterIDnPFvP11SDL_TextureESaIvELN9__gnu_cxx12_Lock_policyE2EE10_M_destroyEv, .-_ZNSt19_Sp_counted_deleterIDnPFvP11SDL_TextureESaIvELN9__gnu_cxx12_Lock_policyE2EE10_M_destroyEv
	.section	.text._ZNSt19_Sp_counted_deleterIDnPFvP11SDL_TextureESaIvELN9__gnu_cxx12_Lock_policyE2EE14_M_get_deleterERKSt9type_info,"axG",@progbits,_ZNSt19_Sp_counted_deleterIDnPFvP11SDL_TextureESaIvELN9__gnu_cxx12_Lock_policyE2EE14_M_get_deleterERKSt9type_info,comdat
	.align 2
	.p2align 4
	.weak	_ZNSt19_Sp_counted_deleterIDnPFvP11SDL_TextureESaIvELN9__gnu_cxx12_Lock_policyE2EE14_M_get_deleterERKSt9type_info
	.type	_ZNSt19_Sp_counted_deleterIDnPFvP11SDL_TextureESaIvELN9__gnu_cxx12_Lock_policyE2EE14_M_get_deleterERKSt9type_info, @function
_ZNSt19_Sp_counted_deleterIDnPFvP11SDL_TextureESaIvELN9__gnu_cxx12_Lock_policyE2EE14_M_get_deleterERKSt9type_info:
.LFB12640:
	.cfi_startproc
	endbr64
	pushq	%r12
	.cfi_def_cfa_offset 16
	.cfi_offset 12, -16
	pushq	%rbx
	.cfi_def_cfa_offset 24
	.cfi_offset 3, -24
	movq	%rdi, %rbx
	subq	$8, %rsp
	.cfi_def_cfa_offset 32
	movq	8(%rsi), %rdi
	leaq	_ZTSPFvP11SDL_TextureE(%rip), %rsi
	cmpq	%rsi, %rdi
	je	.L21
	xorl	%r12d, %r12d
	cmpb	$42, (%rdi)
	je	.L20
	call	strcmp@PLT
	testl	%eax, %eax
	jne	.L20
.L21:
	leaq	16(%rbx), %r12
.L20:
	addq	$8, %rsp
	.cfi_def_cfa_offset 24
	movq	%r12, %rax
	popq	%rbx
	.cfi_def_cfa_offset 16
	popq	%r12
	.cfi_def_cfa_offset 8
	ret
	.cfi_endproc
.LFE12640:
	.size	_ZNSt19_Sp_counted_deleterIDnPFvP11SDL_TextureESaIvELN9__gnu_cxx12_Lock_policyE2EE14_M_get_deleterERKSt9type_info, .-_ZNSt19_Sp_counted_deleterIDnPFvP11SDL_TextureESaIvELN9__gnu_cxx12_Lock_policyE2EE14_M_get_deleterERKSt9type_info
	.text
	.align 2
	.p2align 4
	.globl	_ZN8Camera2DC2Ev
	.type	_ZN8Camera2DC2Ev, @function
_ZN8Camera2DC2Ev:
.LFB11468:
	.cfi_startproc
	endbr64
	movaps	.LC0(%rip), %xmm0
	leaq	16+_ZTV8Camera2D(%rip), %rax
	movq	%rax, (%rdi)
	movups	%xmm0, 8(%rdi)
	ret
	.cfi_endproc
.LFE11468:
	.size	_ZN8Camera2DC2Ev, .-_ZN8Camera2DC2Ev
	.globl	_ZN8Camera2DC1Ev
	.set	_ZN8Camera2DC1Ev,_ZN8Camera2DC2Ev
	.align 2
	.p2align 4
	.globl	_ZN8Camera2DC2E12BoundingBox2IfE
	.type	_ZN8Camera2DC2E12BoundingBox2IfE, @function
_ZN8Camera2DC2E12BoundingBox2IfE:
.LFB11472:
	.cfi_startproc
	endbr64
	movups	(%rsi), %xmm0
	leaq	16+_ZTV8Camera2D(%rip), %rax
	movq	%rax, (%rdi)
	movups	%xmm0, 8(%rdi)
	ret
	.cfi_endproc
.LFE11472:
	.size	_ZN8Camera2DC2E12BoundingBox2IfE, .-_ZN8Camera2DC2E12BoundingBox2IfE
	.globl	_ZN8Camera2DC1E12BoundingBox2IfE
	.set	_ZN8Camera2DC1E12BoundingBox2IfE,_ZN8Camera2DC2E12BoundingBox2IfE
	.align 2
	.p2align 4
	.globl	_ZN8Camera2D15world_to_screenE6Point2IfE
	.type	_ZN8Camera2D15world_to_screenE6Point2IfE, @function
_ZN8Camera2D15world_to_screenE6Point2IfE:
.LFB11474:
	.cfi_startproc
	endbr64
	movss	8(%rsi), %xmm2
	movss	(%rdx), %xmm0
	movq	%rdi, %rax
	movss	16(%rsi), %xmm1
	movss	12(%rsi), %xmm3
	subss	%xmm2, %xmm0
	subss	%xmm2, %xmm1
	movss	20(%rsi), %xmm2
	subss	%xmm3, %xmm2
	divss	%xmm1, %xmm0
	movss	4(%rdx), %xmm1
	subss	%xmm3, %xmm1
	divss	%xmm2, %xmm1
	unpcklps	%xmm1, %xmm0
	movlps	%xmm0, (%rdi)
	ret
	.cfi_endproc
.LFE11474:
	.size	_ZN8Camera2D15world_to_screenE6Point2IfE, .-_ZN8Camera2D15world_to_screenE6Point2IfE
	.align 2
	.p2align 4
	.globl	_ZN8Camera2D15world_to_screenE7Vector2IfE
	.type	_ZN8Camera2D15world_to_screenE7Vector2IfE, @function
_ZN8Camera2D15world_to_screenE7Vector2IfE:
.LFB11475:
	.cfi_startproc
	endbr64
	movss	16(%rsi), %xmm1
	subss	8(%rsi), %xmm1
	movq	%rdi, %rax
	movss	(%rdx), %xmm0
	movss	20(%rsi), %xmm2
	subss	12(%rsi), %xmm2
	divss	%xmm1, %xmm0
	movss	4(%rdx), %xmm1
	divss	%xmm2, %xmm1
	unpcklps	%xmm1, %xmm0
	movlps	%xmm0, (%rdi)
	ret
	.cfi_endproc
.LFE11475:
	.size	_ZN8Camera2D15world_to_screenE7Vector2IfE, .-_ZN8Camera2D15world_to_screenE7Vector2IfE
	.align 2
	.p2align 4
	.globl	_ZN8Camera2D15screen_to_worldE6Point2IfE
	.type	_ZN8Camera2D15screen_to_worldE6Point2IfE, @function
_ZN8Camera2D15screen_to_worldE6Point2IfE:
.LFB11476:
	.cfi_startproc
	endbr64
	movq	8(%rsi), %xmm1
	movq	16(%rsi), %xmm0
	movq	%rdi, %rax
	movq	(%rdx), %xmm2
	subps	%xmm1, %xmm0
	mulps	%xmm2, %xmm0
	addps	%xmm1, %xmm0
	movlps	%xmm0, (%rdi)
	ret
	.cfi_endproc
.LFE11476:
	.size	_ZN8Camera2D15screen_to_worldE6Point2IfE, .-_ZN8Camera2D15screen_to_worldE6Point2IfE
	.align 2
	.p2align 4
	.globl	_ZN8Camera2D15screen_to_worldE7Vector2IfE
	.type	_ZN8Camera2D15screen_to_worldE7Vector2IfE, @function
_ZN8Camera2D15screen_to_worldE7Vector2IfE:
.LFB11477:
	.cfi_startproc
	endbr64
	movq	8(%rsi), %xmm1
	movq	16(%rsi), %xmm0
	movq	%rdi, %rax
	subps	%xmm1, %xmm0
	movq	(%rdx), %xmm1
	mulps	%xmm1, %xmm0
	movlps	%xmm0, (%rdi)
	ret
	.cfi_endproc
.LFE11477:
	.size	_ZN8Camera2D15screen_to_worldE7Vector2IfE, .-_ZN8Camera2D15screen_to_worldE7Vector2IfE
	.align 2
	.p2align 4
	.globl	_ZNK8Camera2D9get_frameEv
	.type	_ZNK8Camera2D9get_frameEv, @function
_ZNK8Camera2D9get_frameEv:
.LFB11478:
	.cfi_startproc
	endbr64
	movq	8(%rsi), %rdx
	movq	%rdi, %rax
	movq	%rdx, (%rdi)
	movq	16(%rsi), %rdx
	movq	%rdx, 8(%rdi)
	ret
	.cfi_endproc
.LFE11478:
	.size	_ZNK8Camera2D9get_frameEv, .-_ZNK8Camera2D9get_frameEv
	.align 2
	.p2align 4
	.globl	_ZN8Camera2D9isVisibleER6Entity
	.type	_ZN8Camera2D9isVisibleER6Entity, @function
_ZN8Camera2D9isVisibleER6Entity:
.LFB11486:
	.cfi_startproc
	endbr64
	pushq	%rbx
	.cfi_def_cfa_offset 16
	.cfi_offset 3, -16
	movq	%rdi, %rbx
	subq	$32, %rsp
	.cfi_def_cfa_offset 48
	movq	%fs:40, %rax
	movq	%rax, 24(%rsp)
	xorl	%eax, %eax
	movq	%rsp, %rdi
	call	_ZNK6Entity7bound2fEv@PLT
	movss	8(%rsp), %xmm0
	comiss	8(%rbx), %xmm0
	jbe	.L47
	movss	16(%rbx), %xmm0
	comiss	(%rsp), %xmm0
	ja	.L49
.L47:
	xorl	%eax, %eax
.L33:
	movq	24(%rsp), %rdx
	subq	%fs:40, %rdx
	jne	.L50
	addq	$32, %rsp
	.cfi_remember_state
	.cfi_def_cfa_offset 16
	popq	%rbx
	.cfi_def_cfa_offset 8
	ret
	.p2align 4,,10
	.p2align 3
.L49:
	.cfi_restore_state
	movss	12(%rsp), %xmm0
	comiss	12(%rbx), %xmm0
	jbe	.L47
	movss	20(%rbx), %xmm0
	comiss	4(%rsp), %xmm0
	seta	%al
	jmp	.L33
.L50:
	call	__stack_chk_fail@PLT
	.cfi_endproc
.LFE11486:
	.size	_ZN8Camera2D9isVisibleER6Entity, .-_ZN8Camera2D9isVisibleER6Entity
	.align 2
	.p2align 4
	.globl	_ZN9Render_2D12clear_windowE11SpectrumRGB
	.type	_ZN9Render_2D12clear_windowE11SpectrumRGB, @function
_ZN9Render_2D12clear_windowE11SpectrumRGB:
.LFB11489:
	.cfi_startproc
	endbr64
	pushq	%rbx
	.cfi_def_cfa_offset 16
	.cfi_offset 3, -16
	movl	%esi, %ecx
	movq	%rdi, %rbx
	movl	%esi, %eax
	movq	64(%rdi), %rdi
	movl	%esi, %r8d
	shrl	$16, %ecx
	movzbl	%ah, %edx
	movzbl	%cl, %ecx
	movzbl	%sil, %esi
	shrl	$24, %r8d
	call	SDL_SetRenderDrawColor@PLT
	movq	64(%rbx), %rdi
	popq	%rbx
	.cfi_def_cfa_offset 8
	jmp	SDL_RenderClear@PLT
	.cfi_endproc
.LFE11489:
	.size	_ZN9Render_2D12clear_windowE11SpectrumRGB, .-_ZN9Render_2D12clear_windowE11SpectrumRGB
	.align 2
	.p2align 4
	.globl	_ZN9Render_2D14entity_to_rectER6EntityR8Camera2D
	.type	_ZN9Render_2D14entity_to_rectER6EntityR8Camera2D, @function
_ZN9Render_2D14entity_to_rectER6EntityR8Camera2D:
.LFB11490:
	.cfi_startproc
	endbr64
	pushq	%r15
	.cfi_def_cfa_offset 16
	.cfi_offset 15, -16
	pushq	%r14
	.cfi_def_cfa_offset 24
	.cfi_offset 14, -24
	movq	%rsi, %r14
	pushq	%r13
	.cfi_def_cfa_offset 32
	.cfi_offset 13, -32
	movq	%rdi, %r13
	pushq	%r12
	.cfi_def_cfa_offset 40
	.cfi_offset 12, -40
	pushq	%rbp
	.cfi_def_cfa_offset 48
	.cfi_offset 6, -48
	pushq	%rbx
	.cfi_def_cfa_offset 56
	.cfi_offset 3, -56
	movq	%rdx, %rbx
	subq	$72, %rsp
	.cfi_def_cfa_offset 128
	movq	%fs:40, %rax
	movq	%rax, 56(%rsp)
	xorl	%eax, %eax
	leaq	32(%rsp), %r15
	movq	%r15, %rdi
	call	_ZNK6Entity14get_position2DEv@PLT
	movss	8(%rbx), %xmm2
	movq	%r14, %rsi
	movq	%r15, %rdi
	movss	32(%rsp), %xmm0
	movss	16(%rbx), %xmm1
	movss	20(%rbx), %xmm3
	movl	76(%r13), %r12d
	subss	%xmm2, %xmm1
	subss	%xmm2, %xmm0
	movss	12(%rbx), %xmm2
	movl	72(%r13), %ebp
	subss	%xmm2, %xmm3
	divss	%xmm1, %xmm0
	movss	36(%rsp), %xmm1
	subss	%xmm2, %xmm1
	movaps	%xmm1, %xmm2
	divss	%xmm3, %xmm2
	movss	%xmm0, 28(%rsp)
	movss	%xmm2, (%rsp)
	call	_ZNK6Entity7bound2fEv@PLT
	movss	40(%rsp), %xmm1
	movss	16(%rbx), %xmm3
	movd	%r12d, %xmm6
	subss	8(%rbx), %xmm3
	subss	32(%rsp), %xmm1
	movss	20(%rbx), %xmm4
	subss	12(%rbx), %xmm4
	movss	(%rsp), %xmm2
	movss	28(%rsp), %xmm0
	divss	%xmm3, %xmm1
	movss	44(%rsp), %xmm3
	subss	36(%rsp), %xmm3
	unpcklps	%xmm2, %xmm0
	movd	76(%r13), %xmm5
	movd	72(%r13), %xmm2
	punpckldq	%xmm5, %xmm2
	divss	%xmm4, %xmm3
	unpcklps	%xmm3, %xmm1
	movlhps	%xmm1, %xmm0
	movd	%ebp, %xmm1
	punpckldq	%xmm6, %xmm1
	punpcklqdq	%xmm2, %xmm1
	movaps	.LC1(%rip), %xmm2
	cvtdq2ps	%xmm1, %xmm1
	mulps	%xmm1, %xmm0
	movaps	%xmm2, %xmm1
	cmpleps	%xmm0, %xmm1
	andps	%xmm1, %xmm2
	pslld	$31, %xmm1
	subps	%xmm2, %xmm0
	cvttps2dq	%xmm0, %xmm0
	pxor	%xmm1, %xmm0
	movaps	%xmm0, (%rsp)
	movq	56(%rsp), %rax
	subq	%fs:40, %rax
	jne	.L56
	movq	(%rsp), %rax
	movq	8(%rsp), %rdx
	addq	$72, %rsp
	.cfi_remember_state
	.cfi_def_cfa_offset 56
	popq	%rbx
	.cfi_def_cfa_offset 48
	popq	%rbp
	.cfi_def_cfa_offset 40
	popq	%r12
	.cfi_def_cfa_offset 32
	popq	%r13
	.cfi_def_cfa_offset 24
	popq	%r14
	.cfi_def_cfa_offset 16
	popq	%r15
	.cfi_def_cfa_offset 8
	ret
.L56:
	.cfi_restore_state
	call	__stack_chk_fail@PLT
	.cfi_endproc
.LFE11490:
	.size	_ZN9Render_2D14entity_to_rectER6EntityR8Camera2D, .-_ZN9Render_2D14entity_to_rectER6EntityR8Camera2D
	.section	.text._ZN7TextureD2Ev,"axG",@progbits,_ZN7TextureD5Ev,comdat
	.align 2
	.p2align 4
	.weak	_ZN7TextureD2Ev
	.type	_ZN7TextureD2Ev, @function
_ZN7TextureD2Ev:
.LFB11505:
	.cfi_startproc
	endbr64
	pushq	%rbp
	.cfi_def_cfa_offset 16
	.cfi_offset 6, -16
	pushq	%rbx
	.cfi_def_cfa_offset 24
	.cfi_offset 3, -24
	movq	%rdi, %rbx
	subq	$8, %rsp
	.cfi_def_cfa_offset 32
	movq	24(%rdi), %rbp
	testq	%rbp, %rbp
	je	.L59
	cmpb	$0, __libc_single_threaded(%rip)
	je	.L60
	movl	8(%rbp), %eax
	leal	-1(%rax), %edx
	movl	%edx, 8(%rbp)
.L61:
	cmpl	$1, %eax
	je	.L73
.L59:
	movq	8(%rbx), %rbp
	testq	%rbp, %rbp
	je	.L57
	cmpb	$0, __libc_single_threaded(%rip)
	je	.L67
	movl	8(%rbp), %eax
	leal	-1(%rax), %edx
	movl	%edx, 8(%rbp)
.L68:
	cmpl	$1, %eax
	je	.L74
.L57:
	addq	$8, %rsp
	.cfi_remember_state
	.cfi_def_cfa_offset 24
	popq	%rbx
	.cfi_def_cfa_offset 16
	popq	%rbp
	.cfi_def_cfa_offset 8
	ret
	.p2align 4,,10
	.p2align 3
.L73:
	.cfi_restore_state
	movq	0(%rbp), %rax
	movq	%rbp, %rdi
	call	*16(%rax)
	cmpb	$0, __libc_single_threaded(%rip)
	je	.L63
	movl	12(%rbp), %eax
	leal	-1(%rax), %edx
	movl	%edx, 12(%rbp)
.L64:
	cmpl	$1, %eax
	jne	.L59
	movq	0(%rbp), %rax
	movq	%rbp, %rdi
	call	*24(%rax)
	jmp	.L59
	.p2align 4,,10
	.p2align 3
.L74:
	movq	0(%rbp), %rax
	movq	%rbp, %rdi
	call	*16(%rax)
	cmpb	$0, __libc_single_threaded(%rip)
	je	.L70
	movl	12(%rbp), %eax
	leal	-1(%rax), %edx
	movl	%edx, 12(%rbp)
.L71:
	cmpl	$1, %eax
	jne	.L57
	movq	0(%rbp), %rax
	movq	%rbp, %rdi
	movq	24(%rax), %rax
	addq	$8, %rsp
	.cfi_remember_state
	.cfi_def_cfa_offset 24
	popq	%rbx
	.cfi_def_cfa_offset 16
	popq	%rbp
	.cfi_def_cfa_offset 8
	jmp	*%rax
	.p2align 4,,10
	.p2align 3
.L67:
	.cfi_restore_state
	movl	$-1, %eax
	lock xaddl	%eax, 8(%rbp)
	jmp	.L68
	.p2align 4,,10
	.p2align 3
.L60:
	movl	$-1, %eax
	lock xaddl	%eax, 8(%rbp)
	jmp	.L61
	.p2align 4,,10
	.p2align 3
.L63:
	movl	$-1, %eax
	lock xaddl	%eax, 12(%rbp)
	jmp	.L64
	.p2align 4,,10
	.p2align 3
.L70:
	movl	$-1, %eax
	lock xaddl	%eax, 12(%rbp)
	jmp	.L71
	.cfi_endproc
.LFE11505:
	.size	_ZN7TextureD2Ev, .-_ZN7TextureD2Ev
	.weak	_ZN7TextureD1Ev
	.set	_ZN7TextureD1Ev,_ZN7TextureD2Ev
	.section	.text.unlikely,"ax",@progbits
	.align 2
.LCOLDB2:
	.text
.LHOTB2:
	.align 2
	.p2align 4
	.globl	_ZN9Render_2D13render_entityER6EntityR8Camera2D
	.type	_ZN9Render_2D13render_entityER6EntityR8Camera2D, @function
_ZN9Render_2D13render_entityER6EntityR8Camera2D:
.LFB11491:
	.cfi_startproc
	.cfi_personality 0x9b,DW.ref.__gxx_personality_v0
	.cfi_lsda 0x1b,.LLSDA11491
	endbr64
	pushq	%r13
	.cfi_def_cfa_offset 16
	.cfi_offset 13, -16
	pushq	%r12
	.cfi_def_cfa_offset 24
	.cfi_offset 12, -24
	movq	%rdx, %r12
	pushq	%rbp
	.cfi_def_cfa_offset 32
	.cfi_offset 6, -32
	movq	%rsi, %rbp
	pushq	%rbx
	.cfi_def_cfa_offset 40
	.cfi_offset 3, -40
	movq	%rdi, %rbx
	subq	$72, %rsp
	.cfi_def_cfa_offset 112
	movq	%fs:40, %rax
	movq	%rax, 56(%rsp)
	xorl	%eax, %eax
	leaq	16(%rsp), %r13
	movq	%r13, %rdi
.LEHB0:
	call	_ZNK6Entity7bound2fEv@PLT
	movss	24(%rsp), %xmm0
	comiss	8(%r12), %xmm0
	jbe	.L75
	movss	16(%r12), %xmm0
	comiss	16(%rsp), %xmm0
	ja	.L105
	.p2align 4,,10
	.p2align 3
.L75:
	movq	56(%rsp), %rax
	subq	%fs:40, %rax
	jne	.L106
	addq	$72, %rsp
	.cfi_remember_state
	.cfi_def_cfa_offset 40
	popq	%rbx
	.cfi_def_cfa_offset 32
	popq	%rbp
	.cfi_def_cfa_offset 24
	popq	%r12
	.cfi_def_cfa_offset 16
	popq	%r13
	.cfi_def_cfa_offset 8
	ret
	.p2align 4,,10
	.p2align 3
.L105:
	.cfi_restore_state
	movss	28(%rsp), %xmm0
	comiss	12(%r12), %xmm0
	jbe	.L75
	movss	20(%r12), %xmm0
	comiss	20(%rsp), %xmm0
	jbe	.L75
	movq	%rbp, %rsi
	movq	%rbx, %rdi
	movq	%r12, %rdx
	call	_ZN9Render_2D14entity_to_rectER6EntityR8Camera2D
	movq	%r13, %rdi
	movq	%rbp, %rsi
	movq	%rax, (%rsp)
	movq	%rdx, 8(%rsp)
	call	_ZNK6Entity18get_active_textureEv@PLT
.LEHE0:
	movq	%r13, %rdi
.LEHB1:
	call	_ZNK7Texture3getEv@PLT
	movq	64(%rbx), %rdi
	movq	%rax, %rsi
	movq	%rsp, %rcx
	xorl	%edx, %edx
	call	SDL_RenderCopy@PLT
.LEHE1:
	movq	40(%rsp), %rbp
	testq	%rbp, %rbp
	je	.L84
	cmpb	$0, __libc_single_threaded(%rip)
	je	.L85
	movl	8(%rbp), %eax
	leal	-1(%rax), %edx
	movl	%edx, 8(%rbp)
.L86:
	cmpl	$1, %eax
	je	.L107
.L84:
	movq	24(%rsp), %rbp
	testq	%rbp, %rbp
	je	.L75
	cmpb	$0, __libc_single_threaded(%rip)
	je	.L92
	movl	8(%rbp), %eax
	leal	-1(%rax), %edx
	movl	%edx, 8(%rbp)
.L93:
	cmpl	$1, %eax
	jne	.L75
	movq	0(%rbp), %rax
	movq	%rbp, %rdi
	call	*16(%rax)
	cmpb	$0, __libc_single_threaded(%rip)
	je	.L95
	movl	12(%rbp), %eax
	leal	-1(%rax), %edx
	movl	%edx, 12(%rbp)
.L96:
	cmpl	$1, %eax
	jne	.L75
	movq	0(%rbp), %rax
	movq	%rbp, %rdi
	call	*24(%rax)
	jmp	.L75
	.p2align 4,,10
	.p2align 3
.L107:
	movq	0(%rbp), %rax
	movq	%rbp, %rdi
	call	*16(%rax)
	cmpb	$0, __libc_single_threaded(%rip)
	je	.L88
	movl	12(%rbp), %eax
	leal	-1(%rax), %edx
	movl	%edx, 12(%rbp)
.L89:
	cmpl	$1, %eax
	jne	.L84
	movq	0(%rbp), %rax
	movq	%rbp, %rdi
	call	*24(%rax)
	jmp	.L84
	.p2align 4,,10
	.p2align 3
.L85:
	movl	$-1, %eax
	lock xaddl	%eax, 8(%rbp)
	jmp	.L86
	.p2align 4,,10
	.p2align 3
.L92:
	movl	$-1, %eax
	lock xaddl	%eax, 8(%rbp)
	jmp	.L93
	.p2align 4,,10
	.p2align 3
.L95:
	movl	$-1, %eax
	lock xaddl	%eax, 12(%rbp)
	jmp	.L96
	.p2align 4,,10
	.p2align 3
.L88:
	movl	$-1, %eax
	lock xaddl	%eax, 12(%rbp)
	jmp	.L89
.L106:
	call	__stack_chk_fail@PLT
.L99:
	endbr64
	movq	%rax, %rbp
	jmp	.L97
	.section	.gcc_except_table,"a",@progbits
.LLSDA11491:
	.byte	0xff
	.byte	0xff
	.byte	0x1
	.uleb128 .LLSDACSE11491-.LLSDACSB11491
.LLSDACSB11491:
	.uleb128 .LEHB0-.LFB11491
	.uleb128 .LEHE0-.LEHB0
	.uleb128 0
	.uleb128 0
	.uleb128 .LEHB1-.LFB11491
	.uleb128 .LEHE1-.LEHB1
	.uleb128 .L99-.LFB11491
	.uleb128 0
.LLSDACSE11491:
	.text
	.cfi_endproc
	.section	.text.unlikely
	.cfi_startproc
	.cfi_personality 0x9b,DW.ref.__gxx_personality_v0
	.cfi_lsda 0x1b,.LLSDAC11491
	.type	_ZN9Render_2D13render_entityER6EntityR8Camera2D.cold, @function
_ZN9Render_2D13render_entityER6EntityR8Camera2D.cold:
.LFSB11491:
.L97:
	.cfi_def_cfa_offset 112
	.cfi_offset 3, -40
	.cfi_offset 6, -32
	.cfi_offset 12, -24
	.cfi_offset 13, -16
	movq	%r13, %rdi
	call	_ZN7TextureD1Ev
	movq	%rbp, %rdi
.LEHB2:
	call	_Unwind_Resume@PLT
.LEHE2:
	.cfi_endproc
.LFE11491:
	.section	.gcc_except_table
.LLSDAC11491:
	.byte	0xff
	.byte	0xff
	.byte	0x1
	.uleb128 .LLSDACSEC11491-.LLSDACSBC11491
.LLSDACSBC11491:
	.uleb128 .LEHB2-.LCOLDB2
	.uleb128 .LEHE2-.LEHB2
	.uleb128 0
	.uleb128 0
.LLSDACSEC11491:
	.section	.text.unlikely
	.text
	.size	_ZN9Render_2D13render_entityER6EntityR8Camera2D, .-_ZN9Render_2D13render_entityER6EntityR8Camera2D
	.section	.text.unlikely
	.size	_ZN9Render_2D13render_entityER6EntityR8Camera2D.cold, .-_ZN9Render_2D13render_entityER6EntityR8Camera2D.cold
.LCOLDE2:
	.text
.LHOTE2:
	.align 2
	.p2align 4
	.globl	_ZN9Render_2D15world_to_rasterE6Point2IfER8Camera2D
	.type	_ZN9Render_2D15world_to_rasterE6Point2IfER8Camera2D, @function
_ZN9Render_2D15world_to_rasterE6Point2IfER8Camera2D:
.LFB11539:
	.cfi_startproc
	endbr64
	movss	8(%rcx), %xmm2
	movss	(%rdx), %xmm0
	movq	%rdi, %rax
	movss	16(%rcx), %xmm1
	movss	12(%rcx), %xmm3
	subss	%xmm2, %xmm0
	subss	%xmm2, %xmm1
	movss	20(%rcx), %xmm2
	subss	%xmm3, %xmm2
	divss	%xmm1, %xmm0
	movss	4(%rdx), %xmm1
	subss	%xmm3, %xmm1
	divss	%xmm2, %xmm1
	unpcklps	%xmm1, %xmm0
	movq	72(%rsi), %xmm1
	cvtdq2ps	%xmm1, %xmm1
	mulps	%xmm1, %xmm0
	movlps	%xmm0, (%rdi)
	ret
	.cfi_endproc
.LFE11539:
	.size	_ZN9Render_2D15world_to_rasterE6Point2IfER8Camera2D, .-_ZN9Render_2D15world_to_rasterE6Point2IfER8Camera2D
	.align 2
	.p2align 4
	.globl	_ZN9Render_2D15world_to_rasterE7Vector2IfER8Camera2D
	.type	_ZN9Render_2D15world_to_rasterE7Vector2IfER8Camera2D, @function
_ZN9Render_2D15world_to_rasterE7Vector2IfER8Camera2D:
.LFB11540:
	.cfi_startproc
	endbr64
	movss	16(%rcx), %xmm1
	subss	8(%rcx), %xmm1
	movq	%rdi, %rax
	movss	(%rdx), %xmm0
	movss	20(%rcx), %xmm2
	subss	12(%rcx), %xmm2
	divss	%xmm1, %xmm0
	movss	4(%rdx), %xmm1
	divss	%xmm2, %xmm1
	unpcklps	%xmm1, %xmm0
	movq	72(%rsi), %xmm1
	cvtdq2ps	%xmm1, %xmm1
	mulps	%xmm1, %xmm0
	movlps	%xmm0, (%rdi)
	ret
	.cfi_endproc
.LFE11540:
	.size	_ZN9Render_2D15world_to_rasterE7Vector2IfER8Camera2D, .-_ZN9Render_2D15world_to_rasterE7Vector2IfER8Camera2D
	.align 2
	.p2align 4
	.globl	_ZN9Render_2D15raster_to_worldE6Point2IfER8Camera2D
	.type	_ZN9Render_2D15raster_to_worldE6Point2IfER8Camera2D, @function
_ZN9Render_2D15raster_to_worldE6Point2IfER8Camera2D:
.LFB11541:
	.cfi_startproc
	endbr64
	pxor	%xmm1, %xmm1
	pxor	%xmm3, %xmm3
	movss	(%rdx), %xmm0
	movq	%rdi, %rax
	cvtsi2ssl	72(%rsi), %xmm1
	movq	8(%rcx), %xmm2
	cvtsi2ssl	76(%rsi), %xmm3
	divss	%xmm1, %xmm0
	movss	4(%rdx), %xmm1
	divss	%xmm3, %xmm1
	unpcklps	%xmm1, %xmm0
	movq	16(%rcx), %xmm1
	subps	%xmm2, %xmm1
	mulps	%xmm1, %xmm0
	addps	%xmm2, %xmm0
	movlps	%xmm0, (%rdi)
	ret
	.cfi_endproc
.LFE11541:
	.size	_ZN9Render_2D15raster_to_worldE6Point2IfER8Camera2D, .-_ZN9Render_2D15raster_to_worldE6Point2IfER8Camera2D
	.align 2
	.p2align 4
	.globl	_ZN9Render_2D15raster_to_worldE7Vector2IfER8Camera2D
	.type	_ZN9Render_2D15raster_to_worldE7Vector2IfER8Camera2D, @function
_ZN9Render_2D15raster_to_worldE7Vector2IfER8Camera2D:
.LFB11542:
	.cfi_startproc
	endbr64
	pxor	%xmm1, %xmm1
	pxor	%xmm2, %xmm2
	movss	(%rdx), %xmm0
	movq	%rdi, %rax
	cvtsi2ssl	72(%rsi), %xmm1
	cvtsi2ssl	76(%rsi), %xmm2
	divss	%xmm1, %xmm0
	movss	4(%rdx), %xmm1
	divss	%xmm2, %xmm1
	movq	8(%rcx), %xmm2
	unpcklps	%xmm1, %xmm0
	movq	16(%rcx), %xmm1
	subps	%xmm2, %xmm1
	mulps	%xmm1, %xmm0
	movlps	%xmm0, (%rdi)
	ret
	.cfi_endproc
.LFE11542:
	.size	_ZN9Render_2D15raster_to_worldE7Vector2IfER8Camera2D, .-_ZN9Render_2D15raster_to_worldE7Vector2IfER8Camera2D
	.section	.text.unlikely
	.align 2
.LCOLDB3:
	.text
.LHOTB3:
	.align 2
	.p2align 4
	.globl	_ZN9Render_2D4drawERSt6vectorISt10shared_ptrI6EntityESaIS3_EER8Camera2D
	.type	_ZN9Render_2D4drawERSt6vectorISt10shared_ptrI6EntityESaIS3_EER8Camera2D, @function
_ZN9Render_2D4drawERSt6vectorISt10shared_ptrI6EntityESaIS3_EER8Camera2D:
.LFB11543:
	.cfi_startproc
	.cfi_personality 0x9b,DW.ref.__gxx_personality_v0
	.cfi_lsda 0x1b,.LLSDA11543
	endbr64
	pushq	%r15
	.cfi_def_cfa_offset 16
	.cfi_offset 15, -16
	movl	$255, %r8d
	movl	$235, %ecx
	pushq	%r14
	.cfi_def_cfa_offset 24
	.cfi_offset 14, -24
	pushq	%r13
	.cfi_def_cfa_offset 32
	.cfi_offset 13, -32
	movq	%rdi, %r13
	pushq	%r12
	.cfi_def_cfa_offset 40
	.cfi_offset 12, -40
	movq	%rsi, %r12
	movl	$134, %esi
	pushq	%rbp
	.cfi_def_cfa_offset 48
	.cfi_offset 6, -48
	movq	%rdx, %rbp
	movl	$206, %edx
	pushq	%rbx
	.cfi_def_cfa_offset 56
	.cfi_offset 3, -56
	subq	$88, %rsp
	.cfi_def_cfa_offset 144
	movq	64(%rdi), %rdi
	movq	%fs:40, %rax
	movq	%rax, 72(%rsp)
	xorl	%eax, %eax
.LEHB3:
	call	SDL_SetRenderDrawColor@PLT
	movq	64(%r13), %rdi
	call	SDL_RenderClear@PLT
	movq	(%r12), %rbx
	movq	8(%r12), %r14
	cmpq	%rbx, %r14
	je	.L113
	leaq	16(%rsp), %rax
	leaq	32(%rsp), %r12
	movq	%rax, (%rsp)
	.p2align 4,,10
	.p2align 3
.L135:
	movq	(%rbx), %r15
	movq	%r12, %rdi
	movq	%r15, %rsi
	call	_ZNK6Entity7bound2fEv@PLT
	movss	40(%rsp), %xmm0
	comiss	8(%rbp), %xmm0
	jbe	.L120
	movss	16(%rbp), %xmm0
	comiss	32(%rsp), %xmm0
	jbe	.L120
	movss	44(%rsp), %xmm0
	comiss	12(%rbp), %xmm0
	jbe	.L120
	movss	20(%rbp), %xmm0
	comiss	36(%rsp), %xmm0
	jbe	.L120
	movq	%r15, %rsi
	movq	%r13, %rdi
	movq	%rbp, %rdx
	call	_ZN9Render_2D14entity_to_rectER6EntityR8Camera2D
	movq	%r12, %rdi
	movq	%r15, %rsi
	movq	%rax, 16(%rsp)
	movq	%rdx, 24(%rsp)
	call	_ZNK6Entity18get_active_textureEv@PLT
.LEHE3:
	movq	%r12, %rdi
.LEHB4:
	call	_ZNK7Texture3getEv@PLT
	movq	64(%r13), %rdi
	movq	(%rsp), %rcx
	movq	%rax, %rsi
	xorl	%edx, %edx
	call	SDL_RenderCopy@PLT
.LEHE4:
	movq	56(%rsp), %rdi
	testq	%rdi, %rdi
	je	.L122
	cmpb	$0, __libc_single_threaded(%rip)
	je	.L123
	movl	8(%rdi), %eax
	leal	-1(%rax), %edx
	movl	%edx, 8(%rdi)
.L124:
	cmpl	$1, %eax
	je	.L146
.L122:
	movq	40(%rsp), %rdi
	testq	%rdi, %rdi
	je	.L120
	cmpb	$0, __libc_single_threaded(%rip)
	je	.L130
	movl	8(%rdi), %eax
	leal	-1(%rax), %edx
	movl	%edx, 8(%rdi)
.L131:
	cmpl	$1, %eax
	je	.L147
	.p2align 4,,10
	.p2align 3
.L120:
	addq	$16, %rbx
	cmpq	%rbx, %r14
	jne	.L135
.L113:
	movq	72(%rsp), %rax
	subq	%fs:40, %rax
	jne	.L148
	movq	64(%r13), %rdi
	addq	$88, %rsp
	.cfi_remember_state
	.cfi_def_cfa_offset 56
	popq	%rbx
	.cfi_def_cfa_offset 48
	popq	%rbp
	.cfi_def_cfa_offset 40
	popq	%r12
	.cfi_def_cfa_offset 32
	popq	%r13
	.cfi_def_cfa_offset 24
	popq	%r14
	.cfi_def_cfa_offset 16
	popq	%r15
	.cfi_def_cfa_offset 8
.LEHB5:
	jmp	SDL_RenderPresent@PLT
.LEHE5:
	.p2align 4,,10
	.p2align 3
.L146:
	.cfi_restore_state
	movq	(%rdi), %rax
	movq	%rdi, 8(%rsp)
	call	*16(%rax)
	cmpb	$0, __libc_single_threaded(%rip)
	movq	8(%rsp), %rdi
	je	.L126
	movl	12(%rdi), %eax
	leal	-1(%rax), %edx
	movl	%edx, 12(%rdi)
.L127:
	cmpl	$1, %eax
	jne	.L122
	movq	(%rdi), %rax
	call	*24(%rax)
	jmp	.L122
	.p2align 4,,10
	.p2align 3
.L147:
	movq	(%rdi), %rax
	movq	%rdi, 8(%rsp)
	call	*16(%rax)
	cmpb	$0, __libc_single_threaded(%rip)
	movq	8(%rsp), %rdi
	je	.L133
	movl	12(%rdi), %eax
	leal	-1(%rax), %edx
	movl	%edx, 12(%rdi)
.L134:
	cmpl	$1, %eax
	jne	.L120
	movq	(%rdi), %rax
	call	*24(%rax)
	jmp	.L120
	.p2align 4,,10
	.p2align 3
.L123:
	movl	$-1, %eax
	lock xaddl	%eax, 8(%rdi)
	jmp	.L124
	.p2align 4,,10
	.p2align 3
.L130:
	movl	$-1, %eax
	lock xaddl	%eax, 8(%rdi)
	jmp	.L131
	.p2align 4,,10
	.p2align 3
.L133:
	movl	$-1, %eax
	lock xaddl	%eax, 12(%rdi)
	jmp	.L134
	.p2align 4,,10
	.p2align 3
.L126:
	movl	$-1, %eax
	lock xaddl	%eax, 12(%rdi)
	jmp	.L127
.L148:
	call	__stack_chk_fail@PLT
.L139:
	endbr64
	movq	%rax, %rbp
	jmp	.L136
	.section	.gcc_except_table
.LLSDA11543:
	.byte	0xff
	.byte	0xff
	.byte	0x1
	.uleb128 .LLSDACSE11543-.LLSDACSB11543
.LLSDACSB11543:
	.uleb128 .LEHB3-.LFB11543
	.uleb128 .LEHE3-.LEHB3
	.uleb128 0
	.uleb128 0
	.uleb128 .LEHB4-.LFB11543
	.uleb128 .LEHE4-.LEHB4
	.uleb128 .L139-.LFB11543
	.uleb128 0
	.uleb128 .LEHB5-.LFB11543
	.uleb128 .LEHE5-.LEHB5
	.uleb128 0
	.uleb128 0
.LLSDACSE11543:
	.text
	.cfi_endproc
	.section	.text.unlikely
	.cfi_startproc
	.cfi_personality 0x9b,DW.ref.__gxx_personality_v0
	.cfi_lsda 0x1b,.LLSDAC11543
	.type	_ZN9Render_2D4drawERSt6vectorISt10shared_ptrI6EntityESaIS3_EER8Camera2D.cold, @function
_ZN9Render_2D4drawERSt6vectorISt10shared_ptrI6EntityESaIS3_EER8Camera2D.cold:
.LFSB11543:
.L136:
	.cfi_def_cfa_offset 144
	.cfi_offset 3, -56
	.cfi_offset 6, -48
	.cfi_offset 12, -40
	.cfi_offset 13, -32
	.cfi_offset 14, -24
	.cfi_offset 15, -16
	movq	%r12, %rdi
	call	_ZN7TextureD1Ev
	movq	%rbp, %rdi
.LEHB6:
	call	_Unwind_Resume@PLT
.LEHE6:
	.cfi_endproc
.LFE11543:
	.section	.gcc_except_table
.LLSDAC11543:
	.byte	0xff
	.byte	0xff
	.byte	0x1
	.uleb128 .LLSDACSEC11543-.LLSDACSBC11543
.LLSDACSBC11543:
	.uleb128 .LEHB6-.LCOLDB3
	.uleb128 .LEHE6-.LEHB6
	.uleb128 0
	.uleb128 0
.LLSDACSEC11543:
	.section	.text.unlikely
	.text
	.size	_ZN9Render_2D4drawERSt6vectorISt10shared_ptrI6EntityESaIS3_EER8Camera2D, .-_ZN9Render_2D4drawERSt6vectorISt10shared_ptrI6EntityESaIS3_EER8Camera2D
	.section	.text.unlikely
	.size	_ZN9Render_2D4drawERSt6vectorISt10shared_ptrI6EntityESaIS3_EER8Camera2D.cold, .-_ZN9Render_2D4drawERSt6vectorISt10shared_ptrI6EntityESaIS3_EER8Camera2D.cold
.LCOLDE3:
	.text
.LHOTE3:
	.section	.text._ZNSt10_HashtableINSt7__cxx1112basic_stringIcSt11char_traitsIcESaIcEEESt4pairIKS5_7TextureESaIS9_ENSt8__detail10_Select1stESt8equal_toIS5_ESt4hashIS5_ENSB_18_Mod_range_hashingENSB_20_Default_ranged_hashENSB_20_Prime_rehash_policyENSB_17_Hashtable_traitsILb1ELb0ELb1EEEED2Ev,"axG",@progbits,_ZNSt10_HashtableINSt7__cxx1112basic_stringIcSt11char_traitsIcESaIcEEESt4pairIKS5_7TextureESaIS9_ENSt8__detail10_Select1stESt8equal_toIS5_ESt4hashIS5_ENSB_18_Mod_range_hashingENSB_20_Default_ranged_hashENSB_20_Prime_rehash_policyENSB_17_Hashtable_traitsILb1ELb0ELb1EEEED5Ev,comdat
	.align 2
	.p2align 4
	.weak	_ZNSt10_HashtableINSt7__cxx1112basic_stringIcSt11char_traitsIcESaIcEEESt4pairIKS5_7TextureESaIS9_ENSt8__detail10_Select1stESt8equal_toIS5_ESt4hashIS5_ENSB_18_Mod_range_hashingENSB_20_Default_ranged_hashENSB_20_Prime_rehash_policyENSB_17_Hashtable_traitsILb1ELb0ELb1EEEED2Ev
	.type	_ZNSt10_HashtableINSt7__cxx1112basic_stringIcSt11char_traitsIcESaIcEEESt4pairIKS5_7TextureESaIS9_ENSt8__detail10_Select1stESt8equal_toIS5_ESt4hashIS5_ENSB_18_Mod_range_hashingENSB_20_Default_ranged_hashENSB_20_Prime_rehash_policyENSB_17_Hashtable_traitsILb1ELb0ELb1EEEED2Ev, @function
_ZNSt10_HashtableINSt7__cxx1112basic_stringIcSt11char_traitsIcESaIcEEESt4pairIKS5_7TextureESaIS9_ENSt8__detail10_Select1stESt8equal_toIS5_ESt4hashIS5_ENSB_18_Mod_range_hashingENSB_20_Default_ranged_hashENSB_20_Prime_rehash_policyENSB_17_Hashtable_traitsILb1ELb0ELb1EEEED2Ev:
.LFB11964:
	.cfi_startproc
	endbr64
	pushq	%r13
	.cfi_def_cfa_offset 16
	.cfi_offset 13, -16
	movq	%rdi, %r13
	pushq	%r12
	.cfi_def_cfa_offset 24
	.cfi_offset 12, -24
	pushq	%rbp
	.cfi_def_cfa_offset 32
	.cfi_offset 6, -32
	pushq	%rbx
	.cfi_def_cfa_offset 40
	.cfi_offset 3, -40
	subq	$8, %rsp
	.cfi_def_cfa_offset 48
	movq	16(%rdi), %rbp
	testq	%rbp, %rbp
	jne	.L167
	jmp	.L150
	.p2align 4,,10
	.p2align 3
.L152:
	movq	48(%rbp), %r12
	testq	%r12, %r12
	je	.L159
	cmpb	$0, __libc_single_threaded(%rip)
	je	.L160
	movl	8(%r12), %eax
	leal	-1(%rax), %edx
	movl	%edx, 8(%r12)
.L161:
	cmpl	$1, %eax
	je	.L176
.L159:
	movq	8(%rbp), %rdi
	leaq	24(%rbp), %rax
	cmpq	%rax, %rdi
	je	.L165
	movq	24(%rbp), %rax
	leaq	1(%rax), %rsi
	call	_ZdlPvm@PLT
.L165:
	movl	$88, %esi
	movq	%rbp, %rdi
	call	_ZdlPvm@PLT
	testq	%rbx, %rbx
	je	.L150
	movq	%rbx, %rbp
.L167:
	movq	64(%rbp), %r12
	movq	0(%rbp), %rbx
	testq	%r12, %r12
	je	.L152
	cmpb	$0, __libc_single_threaded(%rip)
	je	.L153
	movl	8(%r12), %eax
	leal	-1(%rax), %edx
	movl	%edx, 8(%r12)
.L154:
	cmpl	$1, %eax
	jne	.L152
	movq	(%r12), %rax
	movq	%r12, %rdi
	call	*16(%rax)
	cmpb	$0, __libc_single_threaded(%rip)
	je	.L156
	movl	12(%r12), %eax
	leal	-1(%rax), %edx
	movl	%edx, 12(%r12)
.L157:
	cmpl	$1, %eax
	jne	.L152
	movq	(%r12), %rax
	movq	%r12, %rdi
	call	*24(%rax)
	jmp	.L152
	.p2align 4,,10
	.p2align 3
.L176:
	movq	(%r12), %rax
	movq	%r12, %rdi
	call	*16(%rax)
	cmpb	$0, __libc_single_threaded(%rip)
	je	.L163
	movl	12(%r12), %eax
	leal	-1(%rax), %edx
	movl	%edx, 12(%r12)
.L164:
	cmpl	$1, %eax
	jne	.L159
	movq	(%r12), %rax
	movq	%r12, %rdi
	call	*24(%rax)
	jmp	.L159
	.p2align 4,,10
	.p2align 3
.L160:
	movl	$-1, %eax
	lock xaddl	%eax, 8(%r12)
	jmp	.L161
	.p2align 4,,10
	.p2align 3
.L153:
	movl	$-1, %eax
	lock xaddl	%eax, 8(%r12)
	jmp	.L154
	.p2align 4,,10
	.p2align 3
.L150:
	movq	8(%r13), %rax
	movq	0(%r13), %rdi
	xorl	%esi, %esi
	addq	$48, %r13
	leaq	0(,%rax,8), %rdx
	call	memset@PLT
	movq	-48(%r13), %rdi
	movq	-40(%r13), %rsi
	movq	$0, -24(%r13)
	movq	$0, -32(%r13)
	cmpq	%r13, %rdi
	je	.L149
	addq	$8, %rsp
	.cfi_remember_state
	.cfi_def_cfa_offset 40
	salq	$3, %rsi
	popq	%rbx
	.cfi_def_cfa_offset 32
	popq	%rbp
	.cfi_def_cfa_offset 24
	popq	%r12
	.cfi_def_cfa_offset 16
	popq	%r13
	.cfi_def_cfa_offset 8
	jmp	_ZdlPvm@PLT
	.p2align 4,,10
	.p2align 3
.L156:
	.cfi_restore_state
	movl	$-1, %eax
	lock xaddl	%eax, 12(%r12)
	jmp	.L157
	.p2align 4,,10
	.p2align 3
.L163:
	movl	$-1, %eax
	lock xaddl	%eax, 12(%r12)
	jmp	.L164
	.p2align 4,,10
	.p2align 3
.L149:
	addq	$8, %rsp
	.cfi_def_cfa_offset 40
	popq	%rbx
	.cfi_def_cfa_offset 32
	popq	%rbp
	.cfi_def_cfa_offset 24
	popq	%r12
	.cfi_def_cfa_offset 16
	popq	%r13
	.cfi_def_cfa_offset 8
	ret
	.cfi_endproc
.LFE11964:
	.size	_ZNSt10_HashtableINSt7__cxx1112basic_stringIcSt11char_traitsIcESaIcEEESt4pairIKS5_7TextureESaIS9_ENSt8__detail10_Select1stESt8equal_toIS5_ESt4hashIS5_ENSB_18_Mod_range_hashingENSB_20_Default_ranged_hashENSB_20_Prime_rehash_policyENSB_17_Hashtable_traitsILb1ELb0ELb1EEEED2Ev, .-_ZNSt10_HashtableINSt7__cxx1112basic_stringIcSt11char_traitsIcESaIcEEESt4pairIKS5_7TextureESaIS9_ENSt8__detail10_Select1stESt8equal_toIS5_ESt4hashIS5_ENSB_18_Mod_range_hashingENSB_20_Default_ranged_hashENSB_20_Prime_rehash_policyENSB_17_Hashtable_traitsILb1ELb0ELb1EEEED2Ev
	.weak	_ZNSt10_HashtableINSt7__cxx1112basic_stringIcSt11char_traitsIcESaIcEEESt4pairIKS5_7TextureESaIS9_ENSt8__detail10_Select1stESt8equal_toIS5_ESt4hashIS5_ENSB_18_Mod_range_hashingENSB_20_Default_ranged_hashENSB_20_Prime_rehash_policyENSB_17_Hashtable_traitsILb1ELb0ELb1EEEED1Ev
	.set	_ZNSt10_HashtableINSt7__cxx1112basic_stringIcSt11char_traitsIcESaIcEEESt4pairIKS5_7TextureESaIS9_ENSt8__detail10_Select1stESt8equal_toIS5_ESt4hashIS5_ENSB_18_Mod_range_hashingENSB_20_Default_ranged_hashENSB_20_Prime_rehash_policyENSB_17_Hashtable_traitsILb1ELb0ELb1EEEED1Ev,_ZNSt10_HashtableINSt7__cxx1112basic_stringIcSt11char_traitsIcESaIcEEESt4pairIKS5_7TextureESaIS9_ENSt8__detail10_Select1stESt8equal_toIS5_ESt4hashIS5_ENSB_18_Mod_range_hashingENSB_20_Default_ranged_hashENSB_20_Prime_rehash_policyENSB_17_Hashtable_traitsILb1ELb0ELb1EEEED2Ev
	.section	.text.unlikely
	.align 2
.LCOLDB5:
	.text
.LHOTB5:
	.align 2
	.p2align 4
	.globl	_ZN9Render_2DC2ENSt7__cxx1112basic_stringIcSt11char_traitsIcESaIcEEEii
	.type	_ZN9Render_2DC2ENSt7__cxx1112basic_stringIcSt11char_traitsIcESaIcEEEii, @function
_ZN9Render_2DC2ENSt7__cxx1112basic_stringIcSt11char_traitsIcESaIcEEEii:
.LFB11533:
	.cfi_startproc
	.cfi_personality 0x9b,DW.ref.__gxx_personality_v0
	.cfi_lsda 0x1b,.LLSDA11533
	endbr64
	pushq	%r12
	.cfi_def_cfa_offset 16
	.cfi_offset 12, -16
	pxor	%xmm0, %xmm0
	leaq	48(%rdi), %rax
	movd	%ecx, %xmm1
	pushq	%rbp
	.cfi_def_cfa_offset 24
	.cfi_offset 6, -24
	movq	%rsi, %r11
	movq	%rdi, %rbp
	movl	%ecx, %r8d
	xorl	%r9d, %r9d
	movl	%edx, %ecx
	movl	$805240832, %esi
	subq	$8, %rsp
	.cfi_def_cfa_offset 32
	movups	%xmm0, 48(%rdi)
	movd	%edx, %xmm0
	movl	$805240832, %edx
	movq	%rax, (%rdi)
	punpckldq	%xmm1, %xmm0
	movq	$1, 8(%rdi)
	movq	$0, 16(%rdi)
	movq	$0, 24(%rdi)
	movl	$0x3f800000, 32(%rdi)
	movq	$0, 40(%rdi)
	movq	$0, 64(%rdi)
	movq	%xmm0, 72(%rdi)
	movq	(%r11), %rdi
.LEHB7:
	call	SDL_CreateWindow@PLT
	movq	%rax, 56(%rbp)
	movq	%rax, %rdi
	movl	$6, %edx
	movl	$-1, %esi
	call	SDL_CreateRenderer@PLT
	movq	%rax, 64(%rbp)
	movq	%rax, %rdi
	movl	$1, %esi
	call	SDL_SetRenderDrawBlendMode@PLT
.LEHE7:
	addq	$8, %rsp
	.cfi_remember_state
	.cfi_def_cfa_offset 24
	popq	%rbp
	.cfi_def_cfa_offset 16
	popq	%r12
	.cfi_def_cfa_offset 8
	ret
.L179:
	.cfi_restore_state
	endbr64
	movq	%rax, %r12
	jmp	.L178
	.section	.gcc_except_table
.LLSDA11533:
	.byte	0xff
	.byte	0xff
	.byte	0x1
	.uleb128 .LLSDACSE11533-.LLSDACSB11533
.LLSDACSB11533:
	.uleb128 .LEHB7-.LFB11533
	.uleb128 .LEHE7-.LEHB7
	.uleb128 .L179-.LFB11533
	.uleb128 0
.LLSDACSE11533:
	.text
	.cfi_endproc
	.section	.text.unlikely
	.cfi_startproc
	.cfi_personality 0x9b,DW.ref.__gxx_personality_v0
	.cfi_lsda 0x1b,.LLSDAC11533
	.type	_ZN9Render_2DC2ENSt7__cxx1112basic_stringIcSt11char_traitsIcESaIcEEEii.cold, @function
_ZN9Render_2DC2ENSt7__cxx1112basic_stringIcSt11char_traitsIcESaIcEEEii.cold:
.LFSB11533:
.L178:
	.cfi_def_cfa_offset 32
	.cfi_offset 6, -24
	.cfi_offset 12, -16
	movq	%rbp, %rdi
	call	_ZNSt10_HashtableINSt7__cxx1112basic_stringIcSt11char_traitsIcESaIcEEESt4pairIKS5_7TextureESaIS9_ENSt8__detail10_Select1stESt8equal_toIS5_ESt4hashIS5_ENSB_18_Mod_range_hashingENSB_20_Default_ranged_hashENSB_20_Prime_rehash_policyENSB_17_Hashtable_traitsILb1ELb0ELb1EEEED1Ev
	movq	%r12, %rdi
.LEHB8:
	call	_Unwind_Resume@PLT
.LEHE8:
	.cfi_endproc
.LFE11533:
	.section	.gcc_except_table
.LLSDAC11533:
	.byte	0xff
	.byte	0xff
	.byte	0x1
	.uleb128 .LLSDACSEC11533-.LLSDACSBC11533
.LLSDACSBC11533:
	.uleb128 .LEHB8-.LCOLDB5
	.uleb128 .LEHE8-.LEHB8
	.uleb128 0
	.uleb128 0
.LLSDACSEC11533:
	.section	.text.unlikely
	.text
	.size	_ZN9Render_2DC2ENSt7__cxx1112basic_stringIcSt11char_traitsIcESaIcEEEii, .-_ZN9Render_2DC2ENSt7__cxx1112basic_stringIcSt11char_traitsIcESaIcEEEii
	.section	.text.unlikely
	.size	_ZN9Render_2DC2ENSt7__cxx1112basic_stringIcSt11char_traitsIcESaIcEEEii.cold, .-_ZN9Render_2DC2ENSt7__cxx1112basic_stringIcSt11char_traitsIcESaIcEEEii.cold
.LCOLDE5:
	.text
.LHOTE5:
	.globl	_ZN9Render_2DC1ENSt7__cxx1112basic_stringIcSt11char_traitsIcESaIcEEEii
	.set	_ZN9Render_2DC1ENSt7__cxx1112basic_stringIcSt11char_traitsIcESaIcEEEii,_ZN9Render_2DC2ENSt7__cxx1112basic_stringIcSt11char_traitsIcESaIcEEEii
	.section	.text._ZNSt16_Sp_counted_baseILN9__gnu_cxx12_Lock_policyE2EE10_M_releaseEv,"axG",@progbits,_ZNSt16_Sp_counted_baseILN9__gnu_cxx12_Lock_policyE2EE10_M_releaseEv,comdat
	.align 2
	.p2align 4
	.weak	_ZNSt16_Sp_counted_baseILN9__gnu_cxx12_Lock_policyE2EE10_M_releaseEv
	.type	_ZNSt16_Sp_counted_baseILN9__gnu_cxx12_Lock_policyE2EE10_M_releaseEv, @function
_ZNSt16_Sp_counted_baseILN9__gnu_cxx12_Lock_policyE2EE10_M_releaseEv:
.LFB12138:
	.cfi_startproc
	endbr64
	cmpb	$0, __libc_single_threaded(%rip)
	pushq	%rbp
	.cfi_def_cfa_offset 16
	.cfi_offset 6, -16
	movq	%rdi, %rbp
	je	.L183
	movl	8(%rdi), %eax
	leal	-1(%rax), %edx
	movl	%edx, 8(%rdi)
.L184:
	cmpl	$1, %eax
	je	.L191
.L182:
	popq	%rbp
	.cfi_remember_state
	.cfi_def_cfa_offset 8
	ret
	.p2align 4,,10
	.p2align 3
.L191:
	.cfi_restore_state
	movq	0(%rbp), %rax
	movq	%rbp, %rdi
	call	*16(%rax)
	cmpb	$0, __libc_single_threaded(%rip)
	je	.L187
	movl	12(%rbp), %eax
	leal	-1(%rax), %edx
	movl	%edx, 12(%rbp)
.L188:
	cmpl	$1, %eax
	jne	.L182
	movq	0(%rbp), %rax
	movq	%rbp, %rdi
	popq	%rbp
	.cfi_remember_state
	.cfi_def_cfa_offset 8
	movq	24(%rax), %rax
	jmp	*%rax
	.p2align 4,,10
	.p2align 3
.L183:
	.cfi_restore_state
	movl	$-1, %eax
	lock xaddl	%eax, 8(%rdi)
	jmp	.L184
	.p2align 4,,10
	.p2align 3
.L187:
	movl	$-1, %eax
	lock xaddl	%eax, 12(%rbp)
	jmp	.L188
	.cfi_endproc
.LFE12138:
	.size	_ZNSt16_Sp_counted_baseILN9__gnu_cxx12_Lock_policyE2EE10_M_releaseEv, .-_ZNSt16_Sp_counted_baseILN9__gnu_cxx12_Lock_policyE2EE10_M_releaseEv
	.section	.text._ZNSt10_HashtableINSt7__cxx1112basic_stringIcSt11char_traitsIcESaIcEEESt4pairIKS5_7TextureESaIS9_ENSt8__detail10_Select1stESt8equal_toIS5_ESt4hashIS5_ENSB_18_Mod_range_hashingENSB_20_Default_ranged_hashENSB_20_Prime_rehash_policyENSB_17_Hashtable_traitsILb1ELb0ELb1EEEE12_Scoped_nodeD2Ev,"axG",@progbits,_ZNSt10_HashtableINSt7__cxx1112basic_stringIcSt11char_traitsIcESaIcEEESt4pairIKS5_7TextureESaIS9_ENSt8__detail10_Select1stESt8equal_toIS5_ESt4hashIS5_ENSB_18_Mod_range_hashingENSB_20_Default_ranged_hashENSB_20_Prime_rehash_policyENSB_17_Hashtable_traitsILb1ELb0ELb1EEEE12_Scoped_nodeD5Ev,comdat
	.align 2
	.p2align 4
	.weak	_ZNSt10_HashtableINSt7__cxx1112basic_stringIcSt11char_traitsIcESaIcEEESt4pairIKS5_7TextureESaIS9_ENSt8__detail10_Select1stESt8equal_toIS5_ESt4hashIS5_ENSB_18_Mod_range_hashingENSB_20_Default_ranged_hashENSB_20_Prime_rehash_policyENSB_17_Hashtable_traitsILb1ELb0ELb1EEEE12_Scoped_nodeD2Ev
	.type	_ZNSt10_HashtableINSt7__cxx1112basic_stringIcSt11char_traitsIcESaIcEEESt4pairIKS5_7TextureESaIS9_ENSt8__detail10_Select1stESt8equal_toIS5_ESt4hashIS5_ENSB_18_Mod_range_hashingENSB_20_Default_ranged_hashENSB_20_Prime_rehash_policyENSB_17_Hashtable_traitsILb1ELb0ELb1EEEE12_Scoped_nodeD2Ev, @function
_ZNSt10_HashtableINSt7__cxx1112basic_stringIcSt11char_traitsIcESaIcEEESt4pairIKS5_7TextureESaIS9_ENSt8__detail10_Select1stESt8equal_toIS5_ESt4hashIS5_ENSB_18_Mod_range_hashingENSB_20_Default_ranged_hashENSB_20_Prime_rehash_policyENSB_17_Hashtable_traitsILb1ELb0ELb1EEEE12_Scoped_nodeD2Ev:
.LFB12251:
	.cfi_startproc
	endbr64
	pushq	%r12
	.cfi_def_cfa_offset 16
	.cfi_offset 12, -16
	pushq	%rbp
	.cfi_def_cfa_offset 24
	.cfi_offset 6, -24
	subq	$8, %rsp
	.cfi_def_cfa_offset 32
	movq	8(%rdi), %rbp
	testq	%rbp, %rbp
	je	.L192
	movq	64(%rbp), %r12
	testq	%r12, %r12
	je	.L195
	cmpb	$0, __libc_single_threaded(%rip)
	je	.L196
	movl	8(%r12), %eax
	leal	-1(%rax), %edx
	movl	%edx, 8(%r12)
.L197:
	cmpl	$1, %eax
	jne	.L195
	movq	(%r12), %rax
	movq	%r12, %rdi
	call	*16(%rax)
	cmpb	$0, __libc_single_threaded(%rip)
	je	.L199
	movl	12(%r12), %eax
	leal	-1(%rax), %edx
	movl	%edx, 12(%r12)
.L200:
	cmpl	$1, %eax
	je	.L210
	.p2align 4,,10
	.p2align 3
.L195:
	movq	48(%rbp), %r12
	testq	%r12, %r12
	je	.L202
	cmpb	$0, __libc_single_threaded(%rip)
	je	.L203
	movl	8(%r12), %eax
	leal	-1(%rax), %edx
	movl	%edx, 8(%r12)
.L204:
	cmpl	$1, %eax
	jne	.L202
	movq	(%r12), %rax
	movq	%r12, %rdi
	call	*16(%rax)
	cmpb	$0, __libc_single_threaded(%rip)
	je	.L206
	movl	12(%r12), %eax
	leal	-1(%rax), %edx
	movl	%edx, 12(%r12)
.L207:
	cmpl	$1, %eax
	je	.L211
	.p2align 4,,10
	.p2align 3
.L202:
	movq	8(%rbp), %rdi
	leaq	24(%rbp), %rax
	cmpq	%rax, %rdi
	je	.L208
	movq	24(%rbp), %rax
	leaq	1(%rax), %rsi
	call	_ZdlPvm@PLT
.L208:
	addq	$8, %rsp
	.cfi_remember_state
	.cfi_def_cfa_offset 24
	movq	%rbp, %rdi
	movl	$88, %esi
	popq	%rbp
	.cfi_def_cfa_offset 16
	popq	%r12
	.cfi_def_cfa_offset 8
	jmp	_ZdlPvm@PLT
	.p2align 4,,10
	.p2align 3
.L192:
	.cfi_restore_state
	addq	$8, %rsp
	.cfi_remember_state
	.cfi_def_cfa_offset 24
	popq	%rbp
	.cfi_def_cfa_offset 16
	popq	%r12
	.cfi_def_cfa_offset 8
	ret
	.p2align 4,,10
	.p2align 3
.L203:
	.cfi_restore_state
	movl	$-1, %eax
	lock xaddl	%eax, 8(%r12)
	jmp	.L204
	.p2align 4,,10
	.p2align 3
.L196:
	movl	$-1, %eax
	lock xaddl	%eax, 8(%r12)
	jmp	.L197
	.p2align 4,,10
	.p2align 3
.L211:
	movq	(%r12), %rax
	movq	%r12, %rdi
	call	*24(%rax)
	jmp	.L202
	.p2align 4,,10
	.p2align 3
.L210:
	movq	(%r12), %rax
	movq	%r12, %rdi
	call	*24(%rax)
	jmp	.L195
	.p2align 4,,10
	.p2align 3
.L206:
	movl	$-1, %eax
	lock xaddl	%eax, 12(%r12)
	jmp	.L207
	.p2align 4,,10
	.p2align 3
.L199:
	movl	$-1, %eax
	lock xaddl	%eax, 12(%r12)
	jmp	.L200
	.cfi_endproc
.LFE12251:
	.size	_ZNSt10_HashtableINSt7__cxx1112basic_stringIcSt11char_traitsIcESaIcEEESt4pairIKS5_7TextureESaIS9_ENSt8__detail10_Select1stESt8equal_toIS5_ESt4hashIS5_ENSB_18_Mod_range_hashingENSB_20_Default_ranged_hashENSB_20_Prime_rehash_policyENSB_17_Hashtable_traitsILb1ELb0ELb1EEEE12_Scoped_nodeD2Ev, .-_ZNSt10_HashtableINSt7__cxx1112basic_stringIcSt11char_traitsIcESaIcEEESt4pairIKS5_7TextureESaIS9_ENSt8__detail10_Select1stESt8equal_toIS5_ESt4hashIS5_ENSB_18_Mod_range_hashingENSB_20_Default_ranged_hashENSB_20_Prime_rehash_policyENSB_17_Hashtable_traitsILb1ELb0ELb1EEEE12_Scoped_nodeD2Ev
	.weak	_ZNSt10_HashtableINSt7__cxx1112basic_stringIcSt11char_traitsIcESaIcEEESt4pairIKS5_7TextureESaIS9_ENSt8__detail10_Select1stESt8equal_toIS5_ESt4hashIS5_ENSB_18_Mod_range_hashingENSB_20_Default_ranged_hashENSB_20_Prime_rehash_policyENSB_17_Hashtable_traitsILb1ELb0ELb1EEEE12_Scoped_nodeD1Ev
	.set	_ZNSt10_HashtableINSt7__cxx1112basic_stringIcSt11char_traitsIcESaIcEEESt4pairIKS5_7TextureESaIS9_ENSt8__detail10_Select1stESt8equal_toIS5_ESt4hashIS5_ENSB_18_Mod_range_hashingENSB_20_Default_ranged_hashENSB_20_Prime_rehash_policyENSB_17_Hashtable_traitsILb1ELb0ELb1EEEE12_Scoped_nodeD1Ev,_ZNSt10_HashtableINSt7__cxx1112basic_stringIcSt11char_traitsIcESaIcEEESt4pairIKS5_7TextureESaIS9_ENSt8__detail10_Select1stESt8equal_toIS5_ESt4hashIS5_ENSB_18_Mod_range_hashingENSB_20_Default_ranged_hashENSB_20_Prime_rehash_policyENSB_17_Hashtable_traitsILb1ELb0ELb1EEEE12_Scoped_nodeD2Ev
	.section	.text._ZNSt10_HashtableINSt7__cxx1112basic_stringIcSt11char_traitsIcESaIcEEESt4pairIKS5_7TextureESaIS9_ENSt8__detail10_Select1stESt8equal_toIS5_ESt4hashIS5_ENSB_18_Mod_range_hashingENSB_20_Default_ranged_hashENSB_20_Prime_rehash_policyENSB_17_Hashtable_traitsILb1ELb0ELb1EEEE9_M_rehashEmRKm,"axG",@progbits,_ZNSt10_HashtableINSt7__cxx1112basic_stringIcSt11char_traitsIcESaIcEEESt4pairIKS5_7TextureESaIS9_ENSt8__detail10_Select1stESt8equal_toIS5_ESt4hashIS5_ENSB_18_Mod_range_hashingENSB_20_Default_ranged_hashENSB_20_Prime_rehash_policyENSB_17_Hashtable_traitsILb1ELb0ELb1EEEE9_M_rehashEmRKm,comdat
	.align 2
	.p2align 4
	.weak	_ZNSt10_HashtableINSt7__cxx1112basic_stringIcSt11char_traitsIcESaIcEEESt4pairIKS5_7TextureESaIS9_ENSt8__detail10_Select1stESt8equal_toIS5_ESt4hashIS5_ENSB_18_Mod_range_hashingENSB_20_Default_ranged_hashENSB_20_Prime_rehash_policyENSB_17_Hashtable_traitsILb1ELb0ELb1EEEE9_M_rehashEmRKm
	.type	_ZNSt10_HashtableINSt7__cxx1112basic_stringIcSt11char_traitsIcESaIcEEESt4pairIKS5_7TextureESaIS9_ENSt8__detail10_Select1stESt8equal_toIS5_ESt4hashIS5_ENSB_18_Mod_range_hashingENSB_20_Default_ranged_hashENSB_20_Prime_rehash_policyENSB_17_Hashtable_traitsILb1ELb0ELb1EEEE9_M_rehashEmRKm, @function
_ZNSt10_HashtableINSt7__cxx1112basic_stringIcSt11char_traitsIcESaIcEEESt4pairIKS5_7TextureESaIS9_ENSt8__detail10_Select1stESt8equal_toIS5_ESt4hashIS5_ENSB_18_Mod_range_hashingENSB_20_Default_ranged_hashENSB_20_Prime_rehash_policyENSB_17_Hashtable_traitsILb1ELb0ELb1EEEE9_M_rehashEmRKm:
.LFB12360:
	.cfi_startproc
	.cfi_personality 0x9b,DW.ref.__gxx_personality_v0
	.cfi_lsda 0x1b,.LLSDA12360
	endbr64
	pushq	%r13
	.cfi_def_cfa_offset 16
	.cfi_offset 13, -16
	pushq	%r12
	.cfi_def_cfa_offset 24
	.cfi_offset 12, -24
	pushq	%rbp
	.cfi_def_cfa_offset 32
	.cfi_offset 6, -32
	movq	%rdi, %rbp
	pushq	%rbx
	.cfi_def_cfa_offset 40
	.cfi_offset 3, -40
	movq	%rsi, %rbx
	subq	$8, %rsp
	.cfi_def_cfa_offset 48
	cmpq	$1, %rsi
	je	.L236
	movq	%rsi, %rax
	movq	%rdx, %r12
	shrq	$60, %rax
	jne	.L237
	leaq	0(,%rsi,8), %r13
	movq	%r13, %rdi
.LEHB9:
	call	_Znwm@PLT
	movq	%r13, %rdx
	xorl	%esi, %esi
	movq	%rax, %rdi
	movq	%rax, %r12
	call	memset@PLT
	leaq	48(%rbp), %r10
.L214:
	movq	16(%rbp), %rsi
	movq	$0, 16(%rbp)
	xorl	%r8d, %r8d
	leaq	16(%rbp), %r9
.L235:
	testq	%rsi, %rsi
	je	.L238
.L217:
	movq	%rsi, %rcx
	xorl	%edx, %edx
	movq	(%rsi), %rsi
	movq	80(%rcx), %rax
	divq	%rbx
	leaq	(%r12,%rdx,8), %rax
	movq	(%rax), %rdi
	testq	%rdi, %rdi
	je	.L239
	movq	(%rdi), %rdx
	movq	%rdx, (%rcx)
	movq	(%rax), %rax
	movq	%rcx, (%rax)
	testq	%rsi, %rsi
	jne	.L217
.L238:
	movq	0(%rbp), %rdi
	movq	8(%rbp), %rsi
	cmpq	%rdi, %r10
	je	.L218
	salq	$3, %rsi
	call	_ZdlPvm@PLT
.L218:
	movq	%rbx, 8(%rbp)
	movq	%r12, 0(%rbp)
	addq	$8, %rsp
	.cfi_remember_state
	.cfi_def_cfa_offset 40
	popq	%rbx
	.cfi_def_cfa_offset 32
	popq	%rbp
	.cfi_def_cfa_offset 24
	popq	%r12
	.cfi_def_cfa_offset 16
	popq	%r13
	.cfi_def_cfa_offset 8
	ret
	.p2align 4,,10
	.p2align 3
.L239:
	.cfi_restore_state
	movq	16(%rbp), %rdi
	movq	%rdi, (%rcx)
	movq	%rcx, 16(%rbp)
	movq	%r9, (%rax)
	cmpq	$0, (%rcx)
	je	.L226
	movq	%rcx, (%r12,%r8,8)
	movq	%rdx, %r8
	jmp	.L235
	.p2align 4,,10
	.p2align 3
.L226:
	movq	%rdx, %r8
	jmp	.L235
	.p2align 4,,10
	.p2align 3
.L236:
	leaq	48(%rdi), %r12
	movq	$0, 48(%rdi)
	movq	%r12, %r10
	jmp	.L214
	.p2align 4,,10
	.p2align 3
.L237:
	shrq	$61, %rbx
	je	.L216
	call	_ZSt28__throw_bad_array_new_lengthv@PLT
.L216:
	call	_ZSt17__throw_bad_allocv@PLT
.LEHE9:
.L227:
	endbr64
	movq	%rax, %rdi
.L223:
	call	__cxa_begin_catch@PLT
	movq	(%r12), %rax
	movq	%rax, 40(%rbp)
.LEHB10:
	call	__cxa_rethrow@PLT
.LEHE10:
.L228:
	endbr64
	movq	%rax, %rbp
.L224:
	call	__cxa_end_catch@PLT
	movq	%rbp, %rdi
.LEHB11:
	call	_Unwind_Resume@PLT
.LEHE11:
	.cfi_endproc
.LFE12360:
	.section	.gcc_except_table
	.align 4
.LLSDA12360:
	.byte	0xff
	.byte	0x9b
	.uleb128 .LLSDATT12360-.LLSDATTD12360
.LLSDATTD12360:
	.byte	0x1
	.uleb128 .LLSDACSE12360-.LLSDACSB12360
.LLSDACSB12360:
	.uleb128 .LEHB9-.LFB12360
	.uleb128 .LEHE9-.LEHB9
	.uleb128 .L227-.LFB12360
	.uleb128 0x1
	.uleb128 .LEHB10-.LFB12360
	.uleb128 .LEHE10-.LEHB10
	.uleb128 .L228-.LFB12360
	.uleb128 0
	.uleb128 .LEHB11-.LFB12360
	.uleb128 .LEHE11-.LEHB11
	.uleb128 0
	.uleb128 0
.LLSDACSE12360:
	.byte	0x1
	.byte	0
	.align 4
	.long	0

.LLSDATT12360:
	.section	.text._ZNSt10_HashtableINSt7__cxx1112basic_stringIcSt11char_traitsIcESaIcEEESt4pairIKS5_7TextureESaIS9_ENSt8__detail10_Select1stESt8equal_toIS5_ESt4hashIS5_ENSB_18_Mod_range_hashingENSB_20_Default_ranged_hashENSB_20_Prime_rehash_policyENSB_17_Hashtable_traitsILb1ELb0ELb1EEEE9_M_rehashEmRKm,"axG",@progbits,_ZNSt10_HashtableINSt7__cxx1112basic_stringIcSt11char_traitsIcESaIcEEESt4pairIKS5_7TextureESaIS9_ENSt8__detail10_Select1stESt8equal_toIS5_ESt4hashIS5_ENSB_18_Mod_range_hashingENSB_20_Default_ranged_hashENSB_20_Prime_rehash_policyENSB_17_Hashtable_traitsILb1ELb0ELb1EEEE9_M_rehashEmRKm,comdat
	.size	_ZNSt10_HashtableINSt7__cxx1112basic_stringIcSt11char_traitsIcESaIcEEESt4pairIKS5_7TextureESaIS9_ENSt8__detail10_Select1stESt8equal_toIS5_ESt4hashIS5_ENSB_18_Mod_range_hashingENSB_20_Default_ranged_hashENSB_20_Prime_rehash_policyENSB_17_Hashtable_traitsILb1ELb0ELb1EEEE9_M_rehashEmRKm, .-_ZNSt10_HashtableINSt7__cxx1112basic_stringIcSt11char_traitsIcESaIcEEESt4pairIKS5_7TextureESaIS9_ENSt8__detail10_Select1stESt8equal_toIS5_ESt4hashIS5_ENSB_18_Mod_range_hashingENSB_20_Default_ranged_hashENSB_20_Prime_rehash_policyENSB_17_Hashtable_traitsILb1ELb0ELb1EEEE9_M_rehashEmRKm
	.section	.rodata._ZNSt8__detail9_Map_baseINSt7__cxx1112basic_stringIcSt11char_traitsIcESaIcEEESt4pairIKS6_7TextureESaISA_ENS_10_Select1stESt8equal_toIS6_ESt4hashIS6_ENS_18_Mod_range_hashingENS_20_Default_ranged_hashENS_20_Prime_rehash_policyENS_17_Hashtable_traitsILb1ELb0ELb1EEELb1EEixERS8_.str1.8,"aMS",@progbits,1
	.align 8
.LC6:
	.string	"basic_string::_M_construct null not valid"
	.section	.rodata._ZNSt8__detail9_Map_baseINSt7__cxx1112basic_stringIcSt11char_traitsIcESaIcEEESt4pairIKS6_7TextureESaISA_ENS_10_Select1stESt8equal_toIS6_ESt4hashIS6_ENS_18_Mod_range_hashingENS_20_Default_ranged_hashENS_20_Prime_rehash_policyENS_17_Hashtable_traitsILb1ELb0ELb1EEELb1EEixERS8_.str1.1,"aMS",@progbits,1
.LC7:
	.string	"basic_string::_M_create"
	.section	.text._ZNSt8__detail9_Map_baseINSt7__cxx1112basic_stringIcSt11char_traitsIcESaIcEEESt4pairIKS6_7TextureESaISA_ENS_10_Select1stESt8equal_toIS6_ESt4hashIS6_ENS_18_Mod_range_hashingENS_20_Default_ranged_hashENS_20_Prime_rehash_policyENS_17_Hashtable_traitsILb1ELb0ELb1EEELb1EEixERS8_,"axG",@progbits,_ZNSt8__detail9_Map_baseINSt7__cxx1112basic_stringIcSt11char_traitsIcESaIcEEESt4pairIKS6_7TextureESaISA_ENS_10_Select1stESt8equal_toIS6_ESt4hashIS6_ENS_18_Mod_range_hashingENS_20_Default_ranged_hashENS_20_Prime_rehash_policyENS_17_Hashtable_traitsILb1ELb0ELb1EEELb1EEixERS8_,comdat
	.align 2
	.p2align 4
	.weak	_ZNSt8__detail9_Map_baseINSt7__cxx1112basic_stringIcSt11char_traitsIcESaIcEEESt4pairIKS6_7TextureESaISA_ENS_10_Select1stESt8equal_toIS6_ESt4hashIS6_ENS_18_Mod_range_hashingENS_20_Default_ranged_hashENS_20_Prime_rehash_policyENS_17_Hashtable_traitsILb1ELb0ELb1EEELb1EEixERS8_
	.type	_ZNSt8__detail9_Map_baseINSt7__cxx1112basic_stringIcSt11char_traitsIcESaIcEEESt4pairIKS6_7TextureESaISA_ENS_10_Select1stESt8equal_toIS6_ESt4hashIS6_ENS_18_Mod_range_hashingENS_20_Default_ranged_hashENS_20_Prime_rehash_policyENS_17_Hashtable_traitsILb1ELb0ELb1EEELb1EEixERS8_, @function
_ZNSt8__detail9_Map_baseINSt7__cxx1112basic_stringIcSt11char_traitsIcESaIcEEESt4pairIKS6_7TextureESaISA_ENS_10_Select1stESt8equal_toIS6_ESt4hashIS6_ENS_18_Mod_range_hashingENS_20_Default_ranged_hashENS_20_Prime_rehash_policyENS_17_Hashtable_traitsILb1ELb0ELb1EEELb1EEixERS8_:
.LFB12143:
	.cfi_startproc
	.cfi_personality 0x9b,DW.ref.__gxx_personality_v0
	.cfi_lsda 0x1b,.LLSDA12143
	endbr64
	pushq	%r15
	.cfi_def_cfa_offset 16
	.cfi_offset 15, -16
	movl	$3339675911, %edx
	pushq	%r14
	.cfi_def_cfa_offset 24
	.cfi_offset 14, -24
	movq	%rsi, %r14
	pushq	%r13
	.cfi_def_cfa_offset 32
	.cfi_offset 13, -32
	movq	%rdi, %r13
	pushq	%r12
	.cfi_def_cfa_offset 40
	.cfi_offset 12, -40
	pushq	%rbp
	.cfi_def_cfa_offset 48
	.cfi_offset 6, -48
	pushq	%rbx
	.cfi_def_cfa_offset 56
	.cfi_offset 3, -56
	subq	$72, %rsp
	.cfi_def_cfa_offset 128
	movq	8(%rsi), %rsi
	movq	(%r14), %rdi
	movq	%fs:40, %rax
	movq	%rax, 56(%rsp)
	xorl	%eax, %eax
	call	_ZSt11_Hash_bytesPKvmm@PLT
	movq	8(%r13), %rbp
	xorl	%edx, %edx
	movq	%rax, %rbx
	divq	%rbp
	leaq	0(,%rdx,8), %rax
	movq	%rax, (%rsp)
	movq	0(%r13), %rax
	movq	(%rax,%rdx,8), %rax
	testq	%rax, %rax
	je	.L241
	movq	(%rax), %r12
	movq	%rdx, %r15
	movq	80(%r12), %rcx
.L244:
	cmpq	%rcx, %rbx
	je	.L306
.L242:
	movq	(%r12), %r12
	testq	%r12, %r12
	je	.L241
	movq	80(%r12), %rcx
	xorl	%edx, %edx
	movq	%rcx, %rax
	divq	%rbp
	cmpq	%rdx, %r15
	je	.L244
.L241:
	movl	$88, %edi
	movq	%r13, 32(%rsp)
.LEHB12:
	call	_Znwm@PLT
.LEHE12:
	movq	(%r14), %r15
	movq	8(%r14), %r12
	movq	$0, (%rax)
	movq	%rax, %rbp
	leaq	24(%rax), %rax
	movq	%rax, 8(%rsp)
	movq	%rax, 8(%rbp)
	movq	%r15, %rax
	addq	%r12, %rax
	je	.L246
	testq	%r15, %r15
	je	.L307
.L246:
	cmpq	$15, %r12
	ja	.L308
	cmpq	$1, %r12
	je	.L309
	movq	8(%rsp), %rax
	testq	%r12, %r12
	jne	.L310
.L252:
	movq	%r12, 16(%rbp)
	pxor	%xmm0, %xmm0
	movl	$32, %edi
	movb	$0, (%rax,%r12)
	leaq	40(%rbp), %r12
	movq	$0, 72(%rbp)
	movups	%xmm0, 40(%rbp)
	movups	%xmm0, 56(%rbp)
.LEHB13:
	call	_Znwm@PLT
.LEHE13:
	movq	.LC8(%rip), %r15
	movq	SDL_DestroyTexture@GOTPCREL(%rip), %rdx
	movq	%rax, 48(%rbp)
	leaq	16+_ZTVSt19_Sp_counted_deleterIDnPFvP11SDL_TextureESaIvELN9__gnu_cxx12_Lock_policyE2EE(%rip), %rdi
	movq	%rdi, (%rax)
	movl	$32, %edi
	movq	%r15, 8(%rax)
	movq	%rdx, 16(%rax)
	movq	$0, 24(%rax)
	movq	$0, 56(%rbp)
	movq	$0, 64(%rbp)
.LEHB14:
	call	_Znwm@PLT
.LEHE14:
	movq	SDL_FreeSurface@GOTPCREL(%rip), %rdx
	movq	%r15, 8(%rax)
	leaq	32(%r13), %rdi
	leaq	16+_ZTVSt19_Sp_counted_deleterIDnPFvP11SDL_SurfaceESaIvELN9__gnu_cxx12_Lock_policyE2EE(%rip), %rsi
	movq	%rsi, (%rax)
	movq	8(%r13), %rsi
	movl	$1, %ecx
	movq	%rdx, 16(%rax)
	movq	24(%r13), %rdx
	movq	$0, 24(%rax)
	movq	%rax, 64(%rbp)
	movq	40(%r13), %rax
	movq	$0, 72(%rbp)
	movq	%rbp, 40(%rsp)
	movq	%rax, 24(%rsp)
.LEHB15:
	call	_ZNKSt8__detail20_Prime_rehash_policy14_M_need_rehashEmmm@PLT
.LEHE15:
	movq	%rdx, %rsi
	testb	%al, %al
	jne	.L311
.L264:
	movq	0(%r13), %rcx
	movq	(%rsp), %r14
	movq	%rbx, 80(%rbp)
	addq	%rcx, %r14
	movq	(%r14), %rax
	testq	%rax, %rax
	je	.L265
	movq	(%rax), %rax
	movq	%rax, 0(%rbp)
	movq	(%r14), %rax
	movq	%rbp, (%rax)
.L266:
	addq	$1, 24(%r13)
	jmp	.L240
	.p2align 4,,10
	.p2align 3
.L306:
	movq	8(%r14), %rdx
	cmpq	16(%r12), %rdx
	jne	.L242
	movq	(%r14), %rdi
	movq	8(%r12), %rsi
	testq	%rdx, %rdx
	je	.L243
	call	memcmp@PLT
	testl	%eax, %eax
	jne	.L242
.L243:
	addq	$40, %r12
.L240:
	movq	56(%rsp), %rax
	subq	%fs:40, %rax
	jne	.L312
	addq	$72, %rsp
	.cfi_remember_state
	.cfi_def_cfa_offset 56
	movq	%r12, %rax
	popq	%rbx
	.cfi_def_cfa_offset 48
	popq	%rbp
	.cfi_def_cfa_offset 40
	popq	%r12
	.cfi_def_cfa_offset 32
	popq	%r13
	.cfi_def_cfa_offset 24
	popq	%r14
	.cfi_def_cfa_offset 16
	popq	%r15
	.cfi_def_cfa_offset 8
	ret
	.p2align 4,,10
	.p2align 3
.L309:
	.cfi_restore_state
	movzbl	(%r15), %eax
	movb	%al, 24(%rbp)
	movq	8(%rsp), %rax
	jmp	.L252
	.p2align 4,,10
	.p2align 3
.L308:
	testq	%r12, %r12
	js	.L313
	movq	%r12, %rdi
	addq	$1, %rdi
	js	.L314
.LEHB16:
	call	_Znwm@PLT
.LEHE16:
	movq	%rax, 8(%rbp)
	movq	%rax, %rdi
	movq	%r12, 24(%rbp)
.L250:
	movq	%r12, %rdx
	movq	%r15, %rsi
	call	memcpy@PLT
	movq	8(%rbp), %rax
	jmp	.L252
	.p2align 4,,10
	.p2align 3
.L311:
	leaq	24(%rsp), %rdx
	movq	%r13, %rdi
.LEHB17:
	call	_ZNSt10_HashtableINSt7__cxx1112basic_stringIcSt11char_traitsIcESaIcEEESt4pairIKS5_7TextureESaIS9_ENSt8__detail10_Select1stESt8equal_toIS5_ESt4hashIS5_ENSB_18_Mod_range_hashingENSB_20_Default_ranged_hashENSB_20_Prime_rehash_policyENSB_17_Hashtable_traitsILb1ELb0ELb1EEEE9_M_rehashEmRKm
.LEHE17:
	movq	%rbx, %rax
	xorl	%edx, %edx
	divq	8(%r13)
	leaq	0(,%rdx,8), %rax
	movq	%rax, (%rsp)
	jmp	.L264
	.p2align 4,,10
	.p2align 3
.L265:
	movq	16(%r13), %rax
	movq	%rbp, 16(%r13)
	movq	%rax, 0(%rbp)
	testq	%rax, %rax
	je	.L267
	movq	80(%rax), %rax
	xorl	%edx, %edx
	divq	8(%r13)
	movq	%rbp, (%rcx,%rdx,8)
.L267:
	leaq	16(%r13), %rax
	movq	%rax, (%r14)
	jmp	.L266
.L314:
.LEHB18:
	call	_ZSt17__throw_bad_allocv@PLT
.L310:
	movq	%rax, %rdi
	jmp	.L250
.L312:
	call	__stack_chk_fail@PLT
.L307:
	leaq	.LC6(%rip), %rdi
	call	_ZSt19__throw_logic_errorPKc@PLT
.L313:
	leaq	.LC7(%rip), %rdi
	call	_ZSt20__throw_length_errorPKc@PLT
.LEHE18:
.L272:
	endbr64
	movq	%rax, %rdi
	jmp	.L262
.L271:
	endbr64
	movq	%rax, %rbp
	jmp	.L268
.L255:
	call	__cxa_end_catch@PLT
.L256:
	movq	8(%rbp), %rdi
	cmpq	%rdi, 8(%rsp)
	jne	.L315
.L261:
	movq	%rbx, %rdi
.L262:
	call	__cxa_begin_catch@PLT
	movl	$88, %esi
	movq	%rbp, %rdi
	call	_ZdlPvm@PLT
.LEHB19:
	call	__cxa_rethrow@PLT
.LEHE19:
.L268:
	leaq	32(%rsp), %rdi
	call	_ZNSt10_HashtableINSt7__cxx1112basic_stringIcSt11char_traitsIcESaIcEEESt4pairIKS5_7TextureESaIS9_ENSt8__detail10_Select1stESt8equal_toIS5_ESt4hashIS5_ENSB_18_Mod_range_hashingENSB_20_Default_ranged_hashENSB_20_Prime_rehash_policyENSB_17_Hashtable_traitsILb1ELb0ELb1EEEE12_Scoped_nodeD1Ev
	movq	%rbp, %rdi
.LEHB20:
	call	_Unwind_Resume@PLT
.LEHE20:
.L273:
	endbr64
	movq	%rax, %rbp
	jmp	.L263
.L277:
	endbr64
	movq	%rax, %rdi
	jmp	.L258
.L275:
	endbr64
	movq	%rax, %rdi
	jmp	.L254
.L263:
	call	__cxa_end_catch@PLT
	movq	%rbp, %rdi
.LEHB21:
	call	_Unwind_Resume@PLT
.LEHE21:
.L258:
	call	__cxa_begin_catch@PLT
	xorl	%edi, %edi
.LEHB22:
	call	SDL_FreeSurface@PLT
	call	__cxa_rethrow@PLT
.LEHE22:
.L254:
	call	__cxa_begin_catch@PLT
	xorl	%edi, %edi
.LEHB23:
	call	SDL_DestroyTexture@PLT
	call	__cxa_rethrow@PLT
.LEHE23:
.L276:
	endbr64
	movq	%rax, %rbx
	jmp	.L259
.L274:
	endbr64
	movq	%rax, %rbx
	jmp	.L255
.L259:
	call	__cxa_end_catch@PLT
	movq	48(%rbp), %rdi
	testq	%rdi, %rdi
	je	.L256
	call	_ZNSt16_Sp_counted_baseILN9__gnu_cxx12_Lock_policyE2EE10_M_releaseEv
	jmp	.L256
.L315:
	movq	24(%rbp), %rax
	leaq	1(%rax), %rsi
	call	_ZdlPvm@PLT
	jmp	.L261
	.cfi_endproc
.LFE12143:
	.section	.gcc_except_table
	.align 4
.LLSDA12143:
	.byte	0xff
	.byte	0x9b
	.uleb128 .LLSDATT12143-.LLSDATTD12143
.LLSDATTD12143:
	.byte	0x1
	.uleb128 .LLSDACSE12143-.LLSDACSB12143
.LLSDACSB12143:
	.uleb128 .LEHB12-.LFB12143
	.uleb128 .LEHE12-.LEHB12
	.uleb128 0
	.uleb128 0
	.uleb128 .LEHB13-.LFB12143
	.uleb128 .LEHE13-.LEHB13
	.uleb128 .L275-.LFB12143
	.uleb128 0x1
	.uleb128 .LEHB14-.LFB12143
	.uleb128 .LEHE14-.LEHB14
	.uleb128 .L277-.LFB12143
	.uleb128 0x1
	.uleb128 .LEHB15-.LFB12143
	.uleb128 .LEHE15-.LEHB15
	.uleb128 .L271-.LFB12143
	.uleb128 0
	.uleb128 .LEHB16-.LFB12143
	.uleb128 .LEHE16-.LEHB16
	.uleb128 .L272-.LFB12143
	.uleb128 0x1
	.uleb128 .LEHB17-.LFB12143
	.uleb128 .LEHE17-.LEHB17
	.uleb128 .L271-.LFB12143
	.uleb128 0
	.uleb128 .LEHB18-.LFB12143
	.uleb128 .LEHE18-.LEHB18
	.uleb128 .L272-.LFB12143
	.uleb128 0x1
	.uleb128 .LEHB19-.LFB12143
	.uleb128 .LEHE19-.LEHB19
	.uleb128 .L273-.LFB12143
	.uleb128 0
	.uleb128 .LEHB20-.LFB12143
	.uleb128 .LEHE20-.LEHB20
	.uleb128 0
	.uleb128 0
	.uleb128 .LEHB21-.LFB12143
	.uleb128 .LEHE21-.LEHB21
	.uleb128 0
	.uleb128 0
	.uleb128 .LEHB22-.LFB12143
	.uleb128 .LEHE22-.LEHB22
	.uleb128 .L276-.LFB12143
	.uleb128 0x3
	.uleb128 .LEHB23-.LFB12143
	.uleb128 .LEHE23-.LEHB23
	.uleb128 .L274-.LFB12143
	.uleb128 0x3
.LLSDACSE12143:
	.byte	0x1
	.byte	0
	.byte	0
	.byte	0x7d
	.align 4
	.long	0

.LLSDATT12143:
	.section	.text._ZNSt8__detail9_Map_baseINSt7__cxx1112basic_stringIcSt11char_traitsIcESaIcEEESt4pairIKS6_7TextureESaISA_ENS_10_Select1stESt8equal_toIS6_ESt4hashIS6_ENS_18_Mod_range_hashingENS_20_Default_ranged_hashENS_20_Prime_rehash_policyENS_17_Hashtable_traitsILb1ELb0ELb1EEELb1EEixERS8_,"axG",@progbits,_ZNSt8__detail9_Map_baseINSt7__cxx1112basic_stringIcSt11char_traitsIcESaIcEEESt4pairIKS6_7TextureESaISA_ENS_10_Select1stESt8equal_toIS6_ESt4hashIS6_ENS_18_Mod_range_hashingENS_20_Default_ranged_hashENS_20_Prime_rehash_policyENS_17_Hashtable_traitsILb1ELb0ELb1EEELb1EEixERS8_,comdat
	.size	_ZNSt8__detail9_Map_baseINSt7__cxx1112basic_stringIcSt11char_traitsIcESaIcEEESt4pairIKS6_7TextureESaISA_ENS_10_Select1stESt8equal_toIS6_ESt4hashIS6_ENS_18_Mod_range_hashingENS_20_Default_ranged_hashENS_20_Prime_rehash_policyENS_17_Hashtable_traitsILb1ELb0ELb1EEELb1EEixERS8_, .-_ZNSt8__detail9_Map_baseINSt7__cxx1112basic_stringIcSt11char_traitsIcESaIcEEESt4pairIKS6_7TextureESaISA_ENS_10_Select1stESt8equal_toIS6_ESt4hashIS6_ENS_18_Mod_range_hashingENS_20_Default_ranged_hashENS_20_Prime_rehash_policyENS_17_Hashtable_traitsILb1ELb0ELb1EEELb1EEixERS8_
	.section	.text.unlikely
	.align 2
.LCOLDB9:
	.text
.LHOTB9:
	.align 2
	.p2align 4
	.globl	_ZN9Render_2D12load_textureERKNSt7__cxx1112basic_stringIcSt11char_traitsIcESaIcEEE
	.type	_ZN9Render_2D12load_textureERKNSt7__cxx1112basic_stringIcSt11char_traitsIcESaIcEEE, @function
_ZN9Render_2D12load_textureERKNSt7__cxx1112basic_stringIcSt11char_traitsIcESaIcEEE:
.LFB11535:
	.cfi_startproc
	.cfi_personality 0x9b,DW.ref.__gxx_personality_v0
	.cfi_lsda 0x1b,.LLSDA11535
	endbr64
	pushq	%r15
	.cfi_def_cfa_offset 16
	.cfi_offset 15, -16
	pushq	%r14
	.cfi_def_cfa_offset 24
	.cfi_offset 14, -24
	movq	%rdi, %r14
	pushq	%r13
	.cfi_def_cfa_offset 32
	.cfi_offset 13, -32
	movq	%rsi, %r13
	pushq	%r12
	.cfi_def_cfa_offset 40
	.cfi_offset 12, -40
	movq	%rdx, %r12
	pushq	%rbp
	.cfi_def_cfa_offset 48
	.cfi_offset 6, -48
	pushq	%rbx
	.cfi_def_cfa_offset 56
	.cfi_offset 3, -56
	subq	$72, %rsp
	.cfi_def_cfa_offset 128
	movq	8(%rdx), %rsi
	movq	(%r12), %rdi
	movl	$3339675911, %edx
	movq	%fs:40, %rax
	movq	%rax, 56(%rsp)
	xorl	%eax, %eax
	call	_ZSt11_Hash_bytesPKvmm@PLT
	movq	8(%r13), %rbp
	xorl	%edx, %edx
	movq	%rax, %r15
	divq	%rbp
	movq	0(%r13), %rax
	movq	(%rax,%rdx,8), %rax
	testq	%rax, %rax
	je	.L317
	movq	(%rax), %rbx
	movq	%rdx, %r8
	movq	80(%rbx), %rcx
.L320:
	cmpq	%rcx, %r15
	je	.L367
.L318:
	movq	(%rbx), %rbx
	testq	%rbx, %rbx
	je	.L317
	movq	80(%rbx), %rcx
	xorl	%edx, %edx
	movq	%rcx, %rax
	divq	%rbp
	cmpq	%rdx, %r8
	je	.L320
.L317:
	pxor	%xmm0, %xmm0
	movl	$32, %edi
	movaps	%xmm0, 16(%rsp)
.LEHB24:
	call	_Znwm@PLT
.LEHE24:
	movq	.LC8(%rip), %rbx
	movq	SDL_DestroyTexture@GOTPCREL(%rip), %rdx
	leaq	16+_ZTVSt19_Sp_counted_deleterIDnPFvP11SDL_TextureESaIvELN9__gnu_cxx12_Lock_policyE2EE(%rip), %rdi
	movq	$0, 24(%rax)
	movq	%rdi, (%rax)
	movl	$32, %edi
	movq	%rbx, 8(%rax)
	movq	%rdx, 16(%rax)
	movq	%rax, 24(%rsp)
	movq	$0, 32(%rsp)
	movq	$0, 40(%rsp)
.LEHB25:
	call	_Znwm@PLT
.LEHE25:
	movq	SDL_FreeSurface@GOTPCREL(%rip), %rdx
	movq	%rbx, 8(%rax)
	movq	%r12, %rsi
	leaq	16+_ZTVSt19_Sp_counted_deleterIDnPFvP11SDL_SurfaceESaIvELN9__gnu_cxx12_Lock_policyE2EE(%rip), %rdi
	movq	%rdi, (%rax)
	leaq	16(%rsp), %rbp
	movq	%rdx, 16(%rax)
	movq	64(%r13), %rdx
	movq	%rbp, %rdi
	movq	$0, 24(%rax)
	movq	%rax, 40(%rsp)
	movq	$0, 48(%rsp)
.LEHB26:
	call	_ZN7Texture4loadERKNSt7__cxx1112basic_stringIcSt11char_traitsIcESaIcEEEP12SDL_Renderer@PLT
	movq	%r12, %rsi
	movq	%r13, %rdi
	call	_ZNSt8__detail9_Map_baseINSt7__cxx1112basic_stringIcSt11char_traitsIcESaIcEEESt4pairIKS6_7TextureESaISA_ENS_10_Select1stESt8equal_toIS6_ESt4hashIS6_ENS_18_Mod_range_hashingENS_20_Default_ranged_hashENS_20_Prime_rehash_policyENS_17_Hashtable_traitsILb1ELb0ELb1EEELb1EEixERS8_
	movq	%rax, %rdi
	movq	%rbp, %rsi
	call	_ZN7TextureaSERKS_@PLT
	movq	%rbp, %rsi
	movq	%r14, %rdi
	call	_ZN7TextureC1ERKS_@PLT
.LEHE26:
	movq	40(%rsp), %rbp
	testq	%rbp, %rbp
	je	.L330
	cmpb	$0, __libc_single_threaded(%rip)
	je	.L331
	movl	8(%rbp), %eax
	leal	-1(%rax), %edx
	movl	%edx, 8(%rbp)
.L332:
	cmpl	$1, %eax
	je	.L368
.L330:
	movq	24(%rsp), %rbp
	testq	%rbp, %rbp
	je	.L316
	cmpb	$0, __libc_single_threaded(%rip)
	je	.L338
	movl	8(%rbp), %eax
	leal	-1(%rax), %edx
	movl	%edx, 8(%rbp)
.L339:
	cmpl	$1, %eax
	jne	.L316
	movq	0(%rbp), %rax
	movq	%rbp, %rdi
	call	*16(%rax)
	cmpb	$0, __libc_single_threaded(%rip)
	je	.L341
	movl	12(%rbp), %eax
	leal	-1(%rax), %edx
	movl	%edx, 12(%rbp)
.L342:
	cmpl	$1, %eax
	jne	.L316
	movq	0(%rbp), %rax
	movq	%rbp, %rdi
	call	*24(%rax)
	jmp	.L316
	.p2align 4,,10
	.p2align 3
.L367:
	movq	8(%r12), %rdx
	cmpq	16(%rbx), %rdx
	jne	.L318
	movq	(%r12), %rdi
	movq	8(%rbx), %rsi
	movq	%r8, 8(%rsp)
	testq	%rdx, %rdx
	je	.L319
	call	memcmp@PLT
	movq	8(%rsp), %r8
	testl	%eax, %eax
	jne	.L318
.L319:
	movq	%r12, %rsi
	movq	%r13, %rdi
.LEHB27:
	call	_ZNSt8__detail9_Map_baseINSt7__cxx1112basic_stringIcSt11char_traitsIcESaIcEEESt4pairIKS6_7TextureESaISA_ENS_10_Select1stESt8equal_toIS6_ESt4hashIS6_ENS_18_Mod_range_hashingENS_20_Default_ranged_hashENS_20_Prime_rehash_policyENS_17_Hashtable_traitsILb1ELb0ELb1EEELb1EEixERS8_
	movq	%r14, %rdi
	movq	%rax, %rsi
	call	_ZN7TextureC1ERKS_@PLT
.LEHE27:
.L316:
	movq	56(%rsp), %rax
	subq	%fs:40, %rax
	jne	.L369
	addq	$72, %rsp
	.cfi_remember_state
	.cfi_def_cfa_offset 56
	movq	%r14, %rax
	popq	%rbx
	.cfi_def_cfa_offset 48
	popq	%rbp
	.cfi_def_cfa_offset 40
	popq	%r12
	.cfi_def_cfa_offset 32
	popq	%r13
	.cfi_def_cfa_offset 24
	popq	%r14
	.cfi_def_cfa_offset 16
	popq	%r15
	.cfi_def_cfa_offset 8
	ret
	.p2align 4,,10
	.p2align 3
.L368:
	.cfi_restore_state
	movq	0(%rbp), %rax
	movq	%rbp, %rdi
	call	*16(%rax)
	cmpb	$0, __libc_single_threaded(%rip)
	je	.L334
	movl	12(%rbp), %eax
	leal	-1(%rax), %edx
	movl	%edx, 12(%rbp)
.L335:
	cmpl	$1, %eax
	jne	.L330
	movq	0(%rbp), %rax
	movq	%rbp, %rdi
	call	*24(%rax)
	jmp	.L330
	.p2align 4,,10
	.p2align 3
.L331:
	movl	$-1, %eax
	lock xaddl	%eax, 8(%rbp)
	jmp	.L332
	.p2align 4,,10
	.p2align 3
.L338:
	movl	$-1, %eax
	lock xaddl	%eax, 8(%rbp)
	jmp	.L339
.L341:
	movl	$-1, %eax
	lock xaddl	%eax, 12(%rbp)
	jmp	.L342
.L334:
	movl	$-1, %eax
	lock xaddl	%eax, 12(%rbp)
	jmp	.L335
.L369:
	call	__stack_chk_fail@PLT
.L349:
	endbr64
	movq	%rax, %rdi
	jmp	.L323
.L347:
	endbr64
	movq	%rax, %rdi
	jmp	.L326
.L345:
	endbr64
	movq	%rax, %r12
	jmp	.L343
	.section	.gcc_except_table
	.align 4
.LLSDA11535:
	.byte	0xff
	.byte	0x9b
	.uleb128 .LLSDATT11535-.LLSDATTD11535
.LLSDATTD11535:
	.byte	0x1
	.uleb128 .LLSDACSE11535-.LLSDACSB11535
.LLSDACSB11535:
	.uleb128 .LEHB24-.LFB11535
	.uleb128 .LEHE24-.LEHB24
	.uleb128 .L349-.LFB11535
	.uleb128 0x1
	.uleb128 .LEHB25-.LFB11535
	.uleb128 .LEHE25-.LEHB25
	.uleb128 .L347-.LFB11535
	.uleb128 0x1
	.uleb128 .LEHB26-.LFB11535
	.uleb128 .LEHE26-.LEHB26
	.uleb128 .L345-.LFB11535
	.uleb128 0
	.uleb128 .LEHB27-.LFB11535
	.uleb128 .LEHE27-.LEHB27
	.uleb128 0
	.uleb128 0
.LLSDACSE11535:
	.byte	0x1
	.byte	0
	.align 4
	.long	0

.LLSDATT11535:
	.text
	.cfi_endproc
	.section	.text.unlikely
	.cfi_startproc
	.cfi_personality 0x9b,DW.ref.__gxx_personality_v0
	.cfi_lsda 0x1b,.LLSDAC11535
	.type	_ZN9Render_2D12load_textureERKNSt7__cxx1112basic_stringIcSt11char_traitsIcESaIcEEE.cold, @function
_ZN9Render_2D12load_textureERKNSt7__cxx1112basic_stringIcSt11char_traitsIcESaIcEEE.cold:
.LFSB11535:
.L323:
	.cfi_def_cfa_offset 128
	.cfi_offset 3, -56
	.cfi_offset 6, -48
	.cfi_offset 12, -40
	.cfi_offset 13, -32
	.cfi_offset 14, -24
	.cfi_offset 15, -16
	call	__cxa_begin_catch@PLT
	xorl	%edi, %edi
.LEHB28:
	call	SDL_DestroyTexture@PLT
	call	__cxa_rethrow@PLT
.LEHE28:
.L326:
	call	__cxa_begin_catch@PLT
	xorl	%edi, %edi
.LEHB29:
	call	SDL_FreeSurface@PLT
	call	__cxa_rethrow@PLT
.LEHE29:
.L343:
	movq	%rbp, %rdi
	call	_ZN7TextureD1Ev
	movq	%r12, %rdi
.LEHB30:
	call	_Unwind_Resume@PLT
.LEHE30:
.L348:
	endbr64
	movq	%rax, %rbp
	call	__cxa_end_catch@PLT
	movq	%rbp, %rdi
.LEHB31:
	call	_Unwind_Resume@PLT
.LEHE31:
.L346:
	endbr64
	movq	%rax, %rbp
	call	__cxa_end_catch@PLT
	movq	24(%rsp), %rdi
	testq	%rdi, %rdi
	je	.L328
	call	_ZNSt16_Sp_counted_baseILN9__gnu_cxx12_Lock_policyE2EE10_M_releaseEv
.L328:
	movq	%rbp, %rdi
.LEHB32:
	call	_Unwind_Resume@PLT
.LEHE32:
	.cfi_endproc
.LFE11535:
	.section	.gcc_except_table
	.align 4
.LLSDAC11535:
	.byte	0xff
	.byte	0x9b
	.uleb128 .LLSDATTC11535-.LLSDATTDC11535
.LLSDATTDC11535:
	.byte	0x1
	.uleb128 .LLSDACSEC11535-.LLSDACSBC11535
.LLSDACSBC11535:
	.uleb128 .LEHB28-.LCOLDB9
	.uleb128 .LEHE28-.LEHB28
	.uleb128 .L348-.LCOLDB9
	.uleb128 0
	.uleb128 .LEHB29-.LCOLDB9
	.uleb128 .LEHE29-.LEHB29
	.uleb128 .L346-.LCOLDB9
	.uleb128 0
	.uleb128 .LEHB30-.LCOLDB9
	.uleb128 .LEHE30-.LEHB30
	.uleb128 0
	.uleb128 0
	.uleb128 .LEHB31-.LCOLDB9
	.uleb128 .LEHE31-.LEHB31
	.uleb128 0
	.uleb128 0
	.uleb128 .LEHB32-.LCOLDB9
	.uleb128 .LEHE32-.LEHB32
	.uleb128 0
	.uleb128 0
.LLSDACSEC11535:
	.byte	0x1
	.byte	0
	.align 4
	.long	0

.LLSDATTC11535:
	.section	.text.unlikely
	.text
	.size	_ZN9Render_2D12load_textureERKNSt7__cxx1112basic_stringIcSt11char_traitsIcESaIcEEE, .-_ZN9Render_2D12load_textureERKNSt7__cxx1112basic_stringIcSt11char_traitsIcESaIcEEE
	.section	.text.unlikely
	.size	_ZN9Render_2D12load_textureERKNSt7__cxx1112basic_stringIcSt11char_traitsIcESaIcEEE.cold, .-_ZN9Render_2D12load_textureERKNSt7__cxx1112basic_stringIcSt11char_traitsIcESaIcEEE.cold
.LCOLDE9:
	.text
.LHOTE9:
	.section	.text.startup,"ax",@progbits
	.p2align 4
	.type	_GLOBAL__sub_I__ZN8Camera2DC2Ev, @function
_GLOBAL__sub_I__ZN8Camera2DC2Ev:
.LFB12650:
	.cfi_startproc
	endbr64
	pushq	%rbp
	.cfi_def_cfa_offset 16
	.cfi_offset 6, -16
	leaq	_ZStL8__ioinit(%rip), %rbp
	movq	%rbp, %rdi
	call	_ZNSt8ios_base4InitC1Ev@PLT
	movq	_ZNSt8ios_base4InitD1Ev@GOTPCREL(%rip), %rdi
	movq	%rbp, %rsi
	popq	%rbp
	.cfi_def_cfa_offset 8
	leaq	__dso_handle(%rip), %rdx
	jmp	__cxa_atexit@PLT
	.cfi_endproc
.LFE12650:
	.size	_GLOBAL__sub_I__ZN8Camera2DC2Ev, .-_GLOBAL__sub_I__ZN8Camera2DC2Ev
	.section	.init_array,"aw"
	.align 8
	.quad	_GLOBAL__sub_I__ZN8Camera2DC2Ev
	.weak	_ZTSSt11_Mutex_baseILN9__gnu_cxx12_Lock_policyE2EE
	.section	.rodata._ZTSSt11_Mutex_baseILN9__gnu_cxx12_Lock_policyE2EE,"aG",@progbits,_ZTSSt11_Mutex_baseILN9__gnu_cxx12_Lock_policyE2EE,comdat
	.align 32
	.type	_ZTSSt11_Mutex_baseILN9__gnu_cxx12_Lock_policyE2EE, @object
	.size	_ZTSSt11_Mutex_baseILN9__gnu_cxx12_Lock_policyE2EE, 47
_ZTSSt11_Mutex_baseILN9__gnu_cxx12_Lock_policyE2EE:
	.string	"St11_Mutex_baseILN9__gnu_cxx12_Lock_policyE2EE"
	.weak	_ZTISt11_Mutex_baseILN9__gnu_cxx12_Lock_policyE2EE
	.section	.data.rel.ro._ZTISt11_Mutex_baseILN9__gnu_cxx12_Lock_policyE2EE,"awG",@progbits,_ZTISt11_Mutex_baseILN9__gnu_cxx12_Lock_policyE2EE,comdat
	.align 8
	.type	_ZTISt11_Mutex_baseILN9__gnu_cxx12_Lock_policyE2EE, @object
	.size	_ZTISt11_Mutex_baseILN9__gnu_cxx12_Lock_policyE2EE, 16
_ZTISt11_Mutex_baseILN9__gnu_cxx12_Lock_policyE2EE:
	.quad	_ZTVN10__cxxabiv117__class_type_infoE+16
	.quad	_ZTSSt11_Mutex_baseILN9__gnu_cxx12_Lock_policyE2EE
	.weak	_ZTSPFvP11SDL_SurfaceE
	.section	.rodata._ZTSPFvP11SDL_SurfaceE,"aG",@progbits,_ZTSPFvP11SDL_SurfaceE,comdat
	.align 16
	.type	_ZTSPFvP11SDL_SurfaceE, @object
	.size	_ZTSPFvP11SDL_SurfaceE, 19
_ZTSPFvP11SDL_SurfaceE:
	.string	"PFvP11SDL_SurfaceE"
	.weak	_ZTSPFvP11SDL_TextureE
	.section	.rodata._ZTSPFvP11SDL_TextureE,"aG",@progbits,_ZTSPFvP11SDL_TextureE,comdat
	.align 16
	.type	_ZTSPFvP11SDL_TextureE, @object
	.size	_ZTSPFvP11SDL_TextureE, 19
_ZTSPFvP11SDL_TextureE:
	.string	"PFvP11SDL_TextureE"
	.weak	_ZTSSt16_Sp_counted_baseILN9__gnu_cxx12_Lock_policyE2EE
	.section	.rodata._ZTSSt16_Sp_counted_baseILN9__gnu_cxx12_Lock_policyE2EE,"aG",@progbits,_ZTSSt16_Sp_counted_baseILN9__gnu_cxx12_Lock_policyE2EE,comdat
	.align 32
	.type	_ZTSSt16_Sp_counted_baseILN9__gnu_cxx12_Lock_policyE2EE, @object
	.size	_ZTSSt16_Sp_counted_baseILN9__gnu_cxx12_Lock_policyE2EE, 52
_ZTSSt16_Sp_counted_baseILN9__gnu_cxx12_Lock_policyE2EE:
	.string	"St16_Sp_counted_baseILN9__gnu_cxx12_Lock_policyE2EE"
	.weak	_ZTISt16_Sp_counted_baseILN9__gnu_cxx12_Lock_policyE2EE
	.section	.data.rel.ro._ZTISt16_Sp_counted_baseILN9__gnu_cxx12_Lock_policyE2EE,"awG",@progbits,_ZTISt16_Sp_counted_baseILN9__gnu_cxx12_Lock_policyE2EE,comdat
	.align 8
	.type	_ZTISt16_Sp_counted_baseILN9__gnu_cxx12_Lock_policyE2EE, @object
	.size	_ZTISt16_Sp_counted_baseILN9__gnu_cxx12_Lock_policyE2EE, 24
_ZTISt16_Sp_counted_baseILN9__gnu_cxx12_Lock_policyE2EE:
	.quad	_ZTVN10__cxxabiv120__si_class_type_infoE+16
	.quad	_ZTSSt16_Sp_counted_baseILN9__gnu_cxx12_Lock_policyE2EE
	.quad	_ZTISt11_Mutex_baseILN9__gnu_cxx12_Lock_policyE2EE
	.weak	_ZTS8Camera2D
	.section	.rodata._ZTS8Camera2D,"aG",@progbits,_ZTS8Camera2D,comdat
	.align 8
	.type	_ZTS8Camera2D, @object
	.size	_ZTS8Camera2D, 10
_ZTS8Camera2D:
	.string	"8Camera2D"
	.weak	_ZTI8Camera2D
	.section	.data.rel.ro._ZTI8Camera2D,"awG",@progbits,_ZTI8Camera2D,comdat
	.align 8
	.type	_ZTI8Camera2D, @object
	.size	_ZTI8Camera2D, 16
_ZTI8Camera2D:
	.quad	_ZTVN10__cxxabiv117__class_type_infoE+16
	.quad	_ZTS8Camera2D
	.weak	_ZTSSt19_Sp_counted_deleterIDnPFvP11SDL_TextureESaIvELN9__gnu_cxx12_Lock_policyE2EE
	.section	.rodata._ZTSSt19_Sp_counted_deleterIDnPFvP11SDL_TextureESaIvELN9__gnu_cxx12_Lock_policyE2EE,"aG",@progbits,_ZTSSt19_Sp_counted_deleterIDnPFvP11SDL_TextureESaIvELN9__gnu_cxx12_Lock_policyE2EE,comdat
	.align 32
	.type	_ZTSSt19_Sp_counted_deleterIDnPFvP11SDL_TextureESaIvELN9__gnu_cxx12_Lock_policyE2EE, @object
	.size	_ZTSSt19_Sp_counted_deleterIDnPFvP11SDL_TextureESaIvELN9__gnu_cxx12_Lock_policyE2EE, 80
_ZTSSt19_Sp_counted_deleterIDnPFvP11SDL_TextureESaIvELN9__gnu_cxx12_Lock_policyE2EE:
	.string	"St19_Sp_counted_deleterIDnPFvP11SDL_TextureESaIvELN9__gnu_cxx12_Lock_policyE2EE"
	.weak	_ZTISt19_Sp_counted_deleterIDnPFvP11SDL_TextureESaIvELN9__gnu_cxx12_Lock_policyE2EE
	.section	.data.rel.ro._ZTISt19_Sp_counted_deleterIDnPFvP11SDL_TextureESaIvELN9__gnu_cxx12_Lock_policyE2EE,"awG",@progbits,_ZTISt19_Sp_counted_deleterIDnPFvP11SDL_TextureESaIvELN9__gnu_cxx12_Lock_policyE2EE,comdat
	.align 8
	.type	_ZTISt19_Sp_counted_deleterIDnPFvP11SDL_TextureESaIvELN9__gnu_cxx12_Lock_policyE2EE, @object
	.size	_ZTISt19_Sp_counted_deleterIDnPFvP11SDL_TextureESaIvELN9__gnu_cxx12_Lock_policyE2EE, 24
_ZTISt19_Sp_counted_deleterIDnPFvP11SDL_TextureESaIvELN9__gnu_cxx12_Lock_policyE2EE:
	.quad	_ZTVN10__cxxabiv120__si_class_type_infoE+16
	.quad	_ZTSSt19_Sp_counted_deleterIDnPFvP11SDL_TextureESaIvELN9__gnu_cxx12_Lock_policyE2EE
	.quad	_ZTISt16_Sp_counted_baseILN9__gnu_cxx12_Lock_policyE2EE
	.weak	_ZTSSt19_Sp_counted_deleterIDnPFvP11SDL_SurfaceESaIvELN9__gnu_cxx12_Lock_policyE2EE
	.section	.rodata._ZTSSt19_Sp_counted_deleterIDnPFvP11SDL_SurfaceESaIvELN9__gnu_cxx12_Lock_policyE2EE,"aG",@progbits,_ZTSSt19_Sp_counted_deleterIDnPFvP11SDL_SurfaceESaIvELN9__gnu_cxx12_Lock_policyE2EE,comdat
	.align 32
	.type	_ZTSSt19_Sp_counted_deleterIDnPFvP11SDL_SurfaceESaIvELN9__gnu_cxx12_Lock_policyE2EE, @object
	.size	_ZTSSt19_Sp_counted_deleterIDnPFvP11SDL_SurfaceESaIvELN9__gnu_cxx12_Lock_policyE2EE, 80
_ZTSSt19_Sp_counted_deleterIDnPFvP11SDL_SurfaceESaIvELN9__gnu_cxx12_Lock_policyE2EE:
	.string	"St19_Sp_counted_deleterIDnPFvP11SDL_SurfaceESaIvELN9__gnu_cxx12_Lock_policyE2EE"
	.weak	_ZTISt19_Sp_counted_deleterIDnPFvP11SDL_SurfaceESaIvELN9__gnu_cxx12_Lock_policyE2EE
	.section	.data.rel.ro._ZTISt19_Sp_counted_deleterIDnPFvP11SDL_SurfaceESaIvELN9__gnu_cxx12_Lock_policyE2EE,"awG",@progbits,_ZTISt19_Sp_counted_deleterIDnPFvP11SDL_SurfaceESaIvELN9__gnu_cxx12_Lock_policyE2EE,comdat
	.align 8
	.type	_ZTISt19_Sp_counted_deleterIDnPFvP11SDL_SurfaceESaIvELN9__gnu_cxx12_Lock_policyE2EE, @object
	.size	_ZTISt19_Sp_counted_deleterIDnPFvP11SDL_SurfaceESaIvELN9__gnu_cxx12_Lock_policyE2EE, 24
_ZTISt19_Sp_counted_deleterIDnPFvP11SDL_SurfaceESaIvELN9__gnu_cxx12_Lock_policyE2EE:
	.quad	_ZTVN10__cxxabiv120__si_class_type_infoE+16
	.quad	_ZTSSt19_Sp_counted_deleterIDnPFvP11SDL_SurfaceESaIvELN9__gnu_cxx12_Lock_policyE2EE
	.quad	_ZTISt16_Sp_counted_baseILN9__gnu_cxx12_Lock_policyE2EE
	.weak	_ZTV8Camera2D
	.section	.data.rel.ro.local._ZTV8Camera2D,"awG",@progbits,_ZTV8Camera2D,comdat
	.align 8
	.type	_ZTV8Camera2D, @object
	.size	_ZTV8Camera2D, 40
_ZTV8Camera2D:
	.quad	0
	.quad	_ZTI8Camera2D
	.quad	_ZN8Camera2D15update_positionER6Engine
	.quad	_ZN8Camera2D13on_event_downER6EngineN8EngineIO10InputEventE
	.quad	_ZN8Camera2D11on_event_upER6EngineN8EngineIO10InputEventE
	.weak	_ZTVSt19_Sp_counted_deleterIDnPFvP11SDL_TextureESaIvELN9__gnu_cxx12_Lock_policyE2EE
	.section	.data.rel.ro.local._ZTVSt19_Sp_counted_deleterIDnPFvP11SDL_TextureESaIvELN9__gnu_cxx12_Lock_policyE2EE,"awG",@progbits,_ZTVSt19_Sp_counted_deleterIDnPFvP11SDL_TextureESaIvELN9__gnu_cxx12_Lock_policyE2EE,comdat
	.align 8
	.type	_ZTVSt19_Sp_counted_deleterIDnPFvP11SDL_TextureESaIvELN9__gnu_cxx12_Lock_policyE2EE, @object
	.size	_ZTVSt19_Sp_counted_deleterIDnPFvP11SDL_TextureESaIvELN9__gnu_cxx12_Lock_policyE2EE, 56
_ZTVSt19_Sp_counted_deleterIDnPFvP11SDL_TextureESaIvELN9__gnu_cxx12_Lock_policyE2EE:
	.quad	0
	.quad	_ZTISt19_Sp_counted_deleterIDnPFvP11SDL_TextureESaIvELN9__gnu_cxx12_Lock_policyE2EE
	.quad	_ZNSt19_Sp_counted_deleterIDnPFvP11SDL_TextureESaIvELN9__gnu_cxx12_Lock_policyE2EED1Ev
	.quad	_ZNSt19_Sp_counted_deleterIDnPFvP11SDL_TextureESaIvELN9__gnu_cxx12_Lock_policyE2EED0Ev
	.quad	_ZNSt19_Sp_counted_deleterIDnPFvP11SDL_TextureESaIvELN9__gnu_cxx12_Lock_policyE2EE10_M_disposeEv
	.quad	_ZNSt19_Sp_counted_deleterIDnPFvP11SDL_TextureESaIvELN9__gnu_cxx12_Lock_policyE2EE10_M_destroyEv
	.quad	_ZNSt19_Sp_counted_deleterIDnPFvP11SDL_TextureESaIvELN9__gnu_cxx12_Lock_policyE2EE14_M_get_deleterERKSt9type_info
	.weak	_ZTVSt19_Sp_counted_deleterIDnPFvP11SDL_SurfaceESaIvELN9__gnu_cxx12_Lock_policyE2EE
	.section	.data.rel.ro.local._ZTVSt19_Sp_counted_deleterIDnPFvP11SDL_SurfaceESaIvELN9__gnu_cxx12_Lock_policyE2EE,"awG",@progbits,_ZTVSt19_Sp_counted_deleterIDnPFvP11SDL_SurfaceESaIvELN9__gnu_cxx12_Lock_policyE2EE,comdat
	.align 8
	.type	_ZTVSt19_Sp_counted_deleterIDnPFvP11SDL_SurfaceESaIvELN9__gnu_cxx12_Lock_policyE2EE, @object
	.size	_ZTVSt19_Sp_counted_deleterIDnPFvP11SDL_SurfaceESaIvELN9__gnu_cxx12_Lock_policyE2EE, 56
_ZTVSt19_Sp_counted_deleterIDnPFvP11SDL_SurfaceESaIvELN9__gnu_cxx12_Lock_policyE2EE:
	.quad	0
	.quad	_ZTISt19_Sp_counted_deleterIDnPFvP11SDL_SurfaceESaIvELN9__gnu_cxx12_Lock_policyE2EE
	.quad	_ZNSt19_Sp_counted_deleterIDnPFvP11SDL_SurfaceESaIvELN9__gnu_cxx12_Lock_policyE2EED1Ev
	.quad	_ZNSt19_Sp_counted_deleterIDnPFvP11SDL_SurfaceESaIvELN9__gnu_cxx12_Lock_policyE2EED0Ev
	.quad	_ZNSt19_Sp_counted_deleterIDnPFvP11SDL_SurfaceESaIvELN9__gnu_cxx12_Lock_policyE2EE10_M_disposeEv
	.quad	_ZNSt19_Sp_counted_deleterIDnPFvP11SDL_SurfaceESaIvELN9__gnu_cxx12_Lock_policyE2EE10_M_destroyEv
	.quad	_ZNSt19_Sp_counted_deleterIDnPFvP11SDL_SurfaceESaIvELN9__gnu_cxx12_Lock_policyE2EE14_M_get_deleterERKSt9type_info
	.local	_ZStL8__ioinit
	.comm	_ZStL8__ioinit,1,1
	.section	.rodata.cst16,"aM",@progbits,16
	.align 16
.LC0:
	.long	0
	.long	0
	.long	1065353216
	.long	1065353216
	.align 16
.LC1:
	.long	1325400064
	.long	1325400064
	.long	1325400064
	.long	1325400064
	.section	.rodata.cst8,"aM",@progbits,8
	.align 8
.LC8:
	.long	1
	.long	1
	.hidden	DW.ref.__gxx_personality_v0
	.weak	DW.ref.__gxx_personality_v0
	.section	.data.rel.local.DW.ref.__gxx_personality_v0,"awG",@progbits,DW.ref.__gxx_personality_v0,comdat
	.align 8
	.type	DW.ref.__gxx_personality_v0, @object
	.size	DW.ref.__gxx_personality_v0, 8
DW.ref.__gxx_personality_v0:
	.quad	__gxx_personality_v0
	.hidden	__dso_handle
	.ident	"GCC: (Ubuntu 11.4.0-1ubuntu1~22.04) 11.4.0"
	.section	.note.GNU-stack,"",@progbits
	.section	.note.gnu.property,"a"
	.align 8
	.long	1f - 0f
	.long	4f - 1f
	.long	5
0:
	.string	"GNU"
1:
	.align 8
	.long	0xc0000002
	.long	3f - 2f
2:
	.long	0x3
3:
	.align 8
4:
