	.file	"lemmings.cpp"
	.text
	.section	.text._ZNSt23_Sp_counted_ptr_inplaceI6LiquidSaIS0_ELN9__gnu_cxx12_Lock_policyE2EED2Ev,"axG",@progbits,_ZNSt23_Sp_counted_ptr_inplaceI6LiquidSaIS0_ELN9__gnu_cxx12_Lock_policyE2EED5Ev,comdat
	.align 2
	.p2align 4
	.weak	_ZNSt23_Sp_counted_ptr_inplaceI6LiquidSaIS0_ELN9__gnu_cxx12_Lock_policyE2EED2Ev
	.type	_ZNSt23_Sp_counted_ptr_inplaceI6LiquidSaIS0_ELN9__gnu_cxx12_Lock_policyE2EED2Ev, @function
_ZNSt23_Sp_counted_ptr_inplaceI6LiquidSaIS0_ELN9__gnu_cxx12_Lock_policyE2EED2Ev:
.LFB13766:
	.cfi_startproc
	endbr64
	ret
	.cfi_endproc
.LFE13766:
	.size	_ZNSt23_Sp_counted_ptr_inplaceI6LiquidSaIS0_ELN9__gnu_cxx12_Lock_policyE2EED2Ev, .-_ZNSt23_Sp_counted_ptr_inplaceI6LiquidSaIS0_ELN9__gnu_cxx12_Lock_policyE2EED2Ev
	.weak	_ZNSt23_Sp_counted_ptr_inplaceI6LiquidSaIS0_ELN9__gnu_cxx12_Lock_policyE2EED1Ev
	.set	_ZNSt23_Sp_counted_ptr_inplaceI6LiquidSaIS0_ELN9__gnu_cxx12_Lock_policyE2EED1Ev,_ZNSt23_Sp_counted_ptr_inplaceI6LiquidSaIS0_ELN9__gnu_cxx12_Lock_policyE2EED2Ev
	.section	.text._ZNSt23_Sp_counted_ptr_inplaceI4GateSaIS0_ELN9__gnu_cxx12_Lock_policyE2EED2Ev,"axG",@progbits,_ZNSt23_Sp_counted_ptr_inplaceI4GateSaIS0_ELN9__gnu_cxx12_Lock_policyE2EED5Ev,comdat
	.align 2
	.p2align 4
	.weak	_ZNSt23_Sp_counted_ptr_inplaceI4GateSaIS0_ELN9__gnu_cxx12_Lock_policyE2EED2Ev
	.type	_ZNSt23_Sp_counted_ptr_inplaceI4GateSaIS0_ELN9__gnu_cxx12_Lock_policyE2EED2Ev, @function
_ZNSt23_Sp_counted_ptr_inplaceI4GateSaIS0_ELN9__gnu_cxx12_Lock_policyE2EED2Ev:
.LFB13773:
	.cfi_startproc
	endbr64
	ret
	.cfi_endproc
.LFE13773:
	.size	_ZNSt23_Sp_counted_ptr_inplaceI4GateSaIS0_ELN9__gnu_cxx12_Lock_policyE2EED2Ev, .-_ZNSt23_Sp_counted_ptr_inplaceI4GateSaIS0_ELN9__gnu_cxx12_Lock_policyE2EED2Ev
	.weak	_ZNSt23_Sp_counted_ptr_inplaceI4GateSaIS0_ELN9__gnu_cxx12_Lock_policyE2EED1Ev
	.set	_ZNSt23_Sp_counted_ptr_inplaceI4GateSaIS0_ELN9__gnu_cxx12_Lock_policyE2EED1Ev,_ZNSt23_Sp_counted_ptr_inplaceI4GateSaIS0_ELN9__gnu_cxx12_Lock_policyE2EED2Ev
	.section	.text._ZNSt23_Sp_counted_ptr_inplaceI4DoorSaIS0_ELN9__gnu_cxx12_Lock_policyE2EED2Ev,"axG",@progbits,_ZNSt23_Sp_counted_ptr_inplaceI4DoorSaIS0_ELN9__gnu_cxx12_Lock_policyE2EED5Ev,comdat
	.align 2
	.p2align 4
	.weak	_ZNSt23_Sp_counted_ptr_inplaceI4DoorSaIS0_ELN9__gnu_cxx12_Lock_policyE2EED2Ev
	.type	_ZNSt23_Sp_counted_ptr_inplaceI4DoorSaIS0_ELN9__gnu_cxx12_Lock_policyE2EED2Ev, @function
_ZNSt23_Sp_counted_ptr_inplaceI4DoorSaIS0_ELN9__gnu_cxx12_Lock_policyE2EED2Ev:
.LFB13780:
	.cfi_startproc
	endbr64
	ret
	.cfi_endproc
.LFE13780:
	.size	_ZNSt23_Sp_counted_ptr_inplaceI4DoorSaIS0_ELN9__gnu_cxx12_Lock_policyE2EED2Ev, .-_ZNSt23_Sp_counted_ptr_inplaceI4DoorSaIS0_ELN9__gnu_cxx12_Lock_policyE2EED2Ev
	.weak	_ZNSt23_Sp_counted_ptr_inplaceI4DoorSaIS0_ELN9__gnu_cxx12_Lock_policyE2EED1Ev
	.set	_ZNSt23_Sp_counted_ptr_inplaceI4DoorSaIS0_ELN9__gnu_cxx12_Lock_policyE2EED1Ev,_ZNSt23_Sp_counted_ptr_inplaceI4DoorSaIS0_ELN9__gnu_cxx12_Lock_policyE2EED2Ev
	.section	.text._ZNSt23_Sp_counted_ptr_inplaceI10Rigid_bodySaIS0_ELN9__gnu_cxx12_Lock_policyE2EED2Ev,"axG",@progbits,_ZNSt23_Sp_counted_ptr_inplaceI10Rigid_bodySaIS0_ELN9__gnu_cxx12_Lock_policyE2EED5Ev,comdat
	.align 2
	.p2align 4
	.weak	_ZNSt23_Sp_counted_ptr_inplaceI10Rigid_bodySaIS0_ELN9__gnu_cxx12_Lock_policyE2EED2Ev
	.type	_ZNSt23_Sp_counted_ptr_inplaceI10Rigid_bodySaIS0_ELN9__gnu_cxx12_Lock_policyE2EED2Ev, @function
_ZNSt23_Sp_counted_ptr_inplaceI10Rigid_bodySaIS0_ELN9__gnu_cxx12_Lock_policyE2EED2Ev:
.LFB13787:
	.cfi_startproc
	endbr64
	ret
	.cfi_endproc
.LFE13787:
	.size	_ZNSt23_Sp_counted_ptr_inplaceI10Rigid_bodySaIS0_ELN9__gnu_cxx12_Lock_policyE2EED2Ev, .-_ZNSt23_Sp_counted_ptr_inplaceI10Rigid_bodySaIS0_ELN9__gnu_cxx12_Lock_policyE2EED2Ev
	.weak	_ZNSt23_Sp_counted_ptr_inplaceI10Rigid_bodySaIS0_ELN9__gnu_cxx12_Lock_policyE2EED1Ev
	.set	_ZNSt23_Sp_counted_ptr_inplaceI10Rigid_bodySaIS0_ELN9__gnu_cxx12_Lock_policyE2EED1Ev,_ZNSt23_Sp_counted_ptr_inplaceI10Rigid_bodySaIS0_ELN9__gnu_cxx12_Lock_policyE2EED2Ev
	.section	.text._ZNSt23_Sp_counted_ptr_inplaceI15Lemmings_cameraSaIS0_ELN9__gnu_cxx12_Lock_policyE2EED2Ev,"axG",@progbits,_ZNSt23_Sp_counted_ptr_inplaceI15Lemmings_cameraSaIS0_ELN9__gnu_cxx12_Lock_policyE2EED5Ev,comdat
	.align 2
	.p2align 4
	.weak	_ZNSt23_Sp_counted_ptr_inplaceI15Lemmings_cameraSaIS0_ELN9__gnu_cxx12_Lock_policyE2EED2Ev
	.type	_ZNSt23_Sp_counted_ptr_inplaceI15Lemmings_cameraSaIS0_ELN9__gnu_cxx12_Lock_policyE2EED2Ev, @function
_ZNSt23_Sp_counted_ptr_inplaceI15Lemmings_cameraSaIS0_ELN9__gnu_cxx12_Lock_policyE2EED2Ev:
.LFB13794:
	.cfi_startproc
	endbr64
	ret
	.cfi_endproc
.LFE13794:
	.size	_ZNSt23_Sp_counted_ptr_inplaceI15Lemmings_cameraSaIS0_ELN9__gnu_cxx12_Lock_policyE2EED2Ev, .-_ZNSt23_Sp_counted_ptr_inplaceI15Lemmings_cameraSaIS0_ELN9__gnu_cxx12_Lock_policyE2EED2Ev
	.weak	_ZNSt23_Sp_counted_ptr_inplaceI15Lemmings_cameraSaIS0_ELN9__gnu_cxx12_Lock_policyE2EED1Ev
	.set	_ZNSt23_Sp_counted_ptr_inplaceI15Lemmings_cameraSaIS0_ELN9__gnu_cxx12_Lock_policyE2EED1Ev,_ZNSt23_Sp_counted_ptr_inplaceI15Lemmings_cameraSaIS0_ELN9__gnu_cxx12_Lock_policyE2EED2Ev
	.section	.text._ZNSt23_Sp_counted_ptr_inplaceI15Lemmings_cameraSaIS0_ELN9__gnu_cxx12_Lock_policyE2EE10_M_disposeEv,"axG",@progbits,_ZNSt23_Sp_counted_ptr_inplaceI15Lemmings_cameraSaIS0_ELN9__gnu_cxx12_Lock_policyE2EE10_M_disposeEv,comdat
	.align 2
	.p2align 4
	.weak	_ZNSt23_Sp_counted_ptr_inplaceI15Lemmings_cameraSaIS0_ELN9__gnu_cxx12_Lock_policyE2EE10_M_disposeEv
	.type	_ZNSt23_Sp_counted_ptr_inplaceI15Lemmings_cameraSaIS0_ELN9__gnu_cxx12_Lock_policyE2EE10_M_disposeEv, @function
_ZNSt23_Sp_counted_ptr_inplaceI15Lemmings_cameraSaIS0_ELN9__gnu_cxx12_Lock_policyE2EE10_M_disposeEv:
.LFB13797:
	.cfi_startproc
	endbr64
	ret
	.cfi_endproc
.LFE13797:
	.size	_ZNSt23_Sp_counted_ptr_inplaceI15Lemmings_cameraSaIS0_ELN9__gnu_cxx12_Lock_policyE2EE10_M_disposeEv, .-_ZNSt23_Sp_counted_ptr_inplaceI15Lemmings_cameraSaIS0_ELN9__gnu_cxx12_Lock_policyE2EE10_M_disposeEv
	.section	.text._ZNSt23_Sp_counted_ptr_inplaceI7LemmingSaIS0_ELN9__gnu_cxx12_Lock_policyE2EED2Ev,"axG",@progbits,_ZNSt23_Sp_counted_ptr_inplaceI7LemmingSaIS0_ELN9__gnu_cxx12_Lock_policyE2EED5Ev,comdat
	.align 2
	.p2align 4
	.weak	_ZNSt23_Sp_counted_ptr_inplaceI7LemmingSaIS0_ELN9__gnu_cxx12_Lock_policyE2EED2Ev
	.type	_ZNSt23_Sp_counted_ptr_inplaceI7LemmingSaIS0_ELN9__gnu_cxx12_Lock_policyE2EED2Ev, @function
_ZNSt23_Sp_counted_ptr_inplaceI7LemmingSaIS0_ELN9__gnu_cxx12_Lock_policyE2EED2Ev:
.LFB13801:
	.cfi_startproc
	endbr64
	ret
	.cfi_endproc
.LFE13801:
	.size	_ZNSt23_Sp_counted_ptr_inplaceI7LemmingSaIS0_ELN9__gnu_cxx12_Lock_policyE2EED2Ev, .-_ZNSt23_Sp_counted_ptr_inplaceI7LemmingSaIS0_ELN9__gnu_cxx12_Lock_policyE2EED2Ev
	.weak	_ZNSt23_Sp_counted_ptr_inplaceI7LemmingSaIS0_ELN9__gnu_cxx12_Lock_policyE2EED1Ev
	.set	_ZNSt23_Sp_counted_ptr_inplaceI7LemmingSaIS0_ELN9__gnu_cxx12_Lock_policyE2EED1Ev,_ZNSt23_Sp_counted_ptr_inplaceI7LemmingSaIS0_ELN9__gnu_cxx12_Lock_policyE2EED2Ev
	.section	.text._ZNSt19_Sp_counted_deleterIDnPFvP11SDL_SurfaceESaIvELN9__gnu_cxx12_Lock_policyE2EED2Ev,"axG",@progbits,_ZNSt19_Sp_counted_deleterIDnPFvP11SDL_SurfaceESaIvELN9__gnu_cxx12_Lock_policyE2EED5Ev,comdat
	.align 2
	.p2align 4
	.weak	_ZNSt19_Sp_counted_deleterIDnPFvP11SDL_SurfaceESaIvELN9__gnu_cxx12_Lock_policyE2EED2Ev
	.type	_ZNSt19_Sp_counted_deleterIDnPFvP11SDL_SurfaceESaIvELN9__gnu_cxx12_Lock_policyE2EED2Ev, @function
_ZNSt19_Sp_counted_deleterIDnPFvP11SDL_SurfaceESaIvELN9__gnu_cxx12_Lock_policyE2EED2Ev:
.LFB13808:
	.cfi_startproc
	endbr64
	ret
	.cfi_endproc
.LFE13808:
	.size	_ZNSt19_Sp_counted_deleterIDnPFvP11SDL_SurfaceESaIvELN9__gnu_cxx12_Lock_policyE2EED2Ev, .-_ZNSt19_Sp_counted_deleterIDnPFvP11SDL_SurfaceESaIvELN9__gnu_cxx12_Lock_policyE2EED2Ev
	.weak	_ZNSt19_Sp_counted_deleterIDnPFvP11SDL_SurfaceESaIvELN9__gnu_cxx12_Lock_policyE2EED1Ev
	.set	_ZNSt19_Sp_counted_deleterIDnPFvP11SDL_SurfaceESaIvELN9__gnu_cxx12_Lock_policyE2EED1Ev,_ZNSt19_Sp_counted_deleterIDnPFvP11SDL_SurfaceESaIvELN9__gnu_cxx12_Lock_policyE2EED2Ev
	.section	.text._ZNSt19_Sp_counted_deleterIDnPFvP11SDL_SurfaceESaIvELN9__gnu_cxx12_Lock_policyE2EE10_M_disposeEv,"axG",@progbits,_ZNSt19_Sp_counted_deleterIDnPFvP11SDL_SurfaceESaIvELN9__gnu_cxx12_Lock_policyE2EE10_M_disposeEv,comdat
	.align 2
	.p2align 4
	.weak	_ZNSt19_Sp_counted_deleterIDnPFvP11SDL_SurfaceESaIvELN9__gnu_cxx12_Lock_policyE2EE10_M_disposeEv
	.type	_ZNSt19_Sp_counted_deleterIDnPFvP11SDL_SurfaceESaIvELN9__gnu_cxx12_Lock_policyE2EE10_M_disposeEv, @function
_ZNSt19_Sp_counted_deleterIDnPFvP11SDL_SurfaceESaIvELN9__gnu_cxx12_Lock_policyE2EE10_M_disposeEv:
.LFB13811:
	.cfi_startproc
	.cfi_personality 0x9b,DW.ref.__gxx_personality_v0
	.cfi_lsda 0x1b,.LLSDA13811
	endbr64
	subq	$8, %rsp
	.cfi_def_cfa_offset 16
	movq	%rdi, %r8
	xorl	%edi, %edi
	call	*16(%r8)
	addq	$8, %rsp
	.cfi_def_cfa_offset 8
	ret
	.cfi_endproc
.LFE13811:
	.globl	__gxx_personality_v0
	.section	.gcc_except_table._ZNSt19_Sp_counted_deleterIDnPFvP11SDL_SurfaceESaIvELN9__gnu_cxx12_Lock_policyE2EE10_M_disposeEv,"aG",@progbits,_ZNSt19_Sp_counted_deleterIDnPFvP11SDL_SurfaceESaIvELN9__gnu_cxx12_Lock_policyE2EE10_M_disposeEv,comdat
.LLSDA13811:
	.byte	0xff
	.byte	0xff
	.byte	0x1
	.uleb128 .LLSDACSE13811-.LLSDACSB13811
.LLSDACSB13811:
.LLSDACSE13811:
	.section	.text._ZNSt19_Sp_counted_deleterIDnPFvP11SDL_SurfaceESaIvELN9__gnu_cxx12_Lock_policyE2EE10_M_disposeEv,"axG",@progbits,_ZNSt19_Sp_counted_deleterIDnPFvP11SDL_SurfaceESaIvELN9__gnu_cxx12_Lock_policyE2EE10_M_disposeEv,comdat
	.size	_ZNSt19_Sp_counted_deleterIDnPFvP11SDL_SurfaceESaIvELN9__gnu_cxx12_Lock_policyE2EE10_M_disposeEv, .-_ZNSt19_Sp_counted_deleterIDnPFvP11SDL_SurfaceESaIvELN9__gnu_cxx12_Lock_policyE2EE10_M_disposeEv
	.section	.text._ZNSt19_Sp_counted_deleterIDnPFvP11SDL_TextureESaIvELN9__gnu_cxx12_Lock_policyE2EED2Ev,"axG",@progbits,_ZNSt19_Sp_counted_deleterIDnPFvP11SDL_TextureESaIvELN9__gnu_cxx12_Lock_policyE2EED5Ev,comdat
	.align 2
	.p2align 4
	.weak	_ZNSt19_Sp_counted_deleterIDnPFvP11SDL_TextureESaIvELN9__gnu_cxx12_Lock_policyE2EED2Ev
	.type	_ZNSt19_Sp_counted_deleterIDnPFvP11SDL_TextureESaIvELN9__gnu_cxx12_Lock_policyE2EED2Ev, @function
_ZNSt19_Sp_counted_deleterIDnPFvP11SDL_TextureESaIvELN9__gnu_cxx12_Lock_policyE2EED2Ev:
.LFB13815:
	.cfi_startproc
	endbr64
	ret
	.cfi_endproc
.LFE13815:
	.size	_ZNSt19_Sp_counted_deleterIDnPFvP11SDL_TextureESaIvELN9__gnu_cxx12_Lock_policyE2EED2Ev, .-_ZNSt19_Sp_counted_deleterIDnPFvP11SDL_TextureESaIvELN9__gnu_cxx12_Lock_policyE2EED2Ev
	.weak	_ZNSt19_Sp_counted_deleterIDnPFvP11SDL_TextureESaIvELN9__gnu_cxx12_Lock_policyE2EED1Ev
	.set	_ZNSt19_Sp_counted_deleterIDnPFvP11SDL_TextureESaIvELN9__gnu_cxx12_Lock_policyE2EED1Ev,_ZNSt19_Sp_counted_deleterIDnPFvP11SDL_TextureESaIvELN9__gnu_cxx12_Lock_policyE2EED2Ev
	.section	.text._ZNSt19_Sp_counted_deleterIDnPFvP11SDL_TextureESaIvELN9__gnu_cxx12_Lock_policyE2EE10_M_disposeEv,"axG",@progbits,_ZNSt19_Sp_counted_deleterIDnPFvP11SDL_TextureESaIvELN9__gnu_cxx12_Lock_policyE2EE10_M_disposeEv,comdat
	.align 2
	.p2align 4
	.weak	_ZNSt19_Sp_counted_deleterIDnPFvP11SDL_TextureESaIvELN9__gnu_cxx12_Lock_policyE2EE10_M_disposeEv
	.type	_ZNSt19_Sp_counted_deleterIDnPFvP11SDL_TextureESaIvELN9__gnu_cxx12_Lock_policyE2EE10_M_disposeEv, @function
_ZNSt19_Sp_counted_deleterIDnPFvP11SDL_TextureESaIvELN9__gnu_cxx12_Lock_policyE2EE10_M_disposeEv:
.LFB13818:
	.cfi_startproc
	.cfi_personality 0x9b,DW.ref.__gxx_personality_v0
	.cfi_lsda 0x1b,.LLSDA13818
	endbr64
	subq	$8, %rsp
	.cfi_def_cfa_offset 16
	movq	%rdi, %r8
	xorl	%edi, %edi
	call	*16(%r8)
	addq	$8, %rsp
	.cfi_def_cfa_offset 8
	ret
	.cfi_endproc
.LFE13818:
	.section	.gcc_except_table._ZNSt19_Sp_counted_deleterIDnPFvP11SDL_TextureESaIvELN9__gnu_cxx12_Lock_policyE2EE10_M_disposeEv,"aG",@progbits,_ZNSt19_Sp_counted_deleterIDnPFvP11SDL_TextureESaIvELN9__gnu_cxx12_Lock_policyE2EE10_M_disposeEv,comdat
.LLSDA13818:
	.byte	0xff
	.byte	0xff
	.byte	0x1
	.uleb128 .LLSDACSE13818-.LLSDACSB13818
.LLSDACSB13818:
.LLSDACSE13818:
	.section	.text._ZNSt19_Sp_counted_deleterIDnPFvP11SDL_TextureESaIvELN9__gnu_cxx12_Lock_policyE2EE10_M_disposeEv,"axG",@progbits,_ZNSt19_Sp_counted_deleterIDnPFvP11SDL_TextureESaIvELN9__gnu_cxx12_Lock_policyE2EE10_M_disposeEv,comdat
	.size	_ZNSt19_Sp_counted_deleterIDnPFvP11SDL_TextureESaIvELN9__gnu_cxx12_Lock_policyE2EE10_M_disposeEv, .-_ZNSt19_Sp_counted_deleterIDnPFvP11SDL_TextureESaIvELN9__gnu_cxx12_Lock_policyE2EE10_M_disposeEv
	.section	.text._ZNSt19_Sp_counted_deleterIDnPFvP11SDL_TextureESaIvELN9__gnu_cxx12_Lock_policyE2EED0Ev,"axG",@progbits,_ZNSt19_Sp_counted_deleterIDnPFvP11SDL_TextureESaIvELN9__gnu_cxx12_Lock_policyE2EED5Ev,comdat
	.align 2
	.p2align 4
	.weak	_ZNSt19_Sp_counted_deleterIDnPFvP11SDL_TextureESaIvELN9__gnu_cxx12_Lock_policyE2EED0Ev
	.type	_ZNSt19_Sp_counted_deleterIDnPFvP11SDL_TextureESaIvELN9__gnu_cxx12_Lock_policyE2EED0Ev, @function
_ZNSt19_Sp_counted_deleterIDnPFvP11SDL_TextureESaIvELN9__gnu_cxx12_Lock_policyE2EED0Ev:
.LFB13817:
	.cfi_startproc
	endbr64
	movl	$32, %esi
	jmp	_ZdlPvm@PLT
	.cfi_endproc
.LFE13817:
	.size	_ZNSt19_Sp_counted_deleterIDnPFvP11SDL_TextureESaIvELN9__gnu_cxx12_Lock_policyE2EED0Ev, .-_ZNSt19_Sp_counted_deleterIDnPFvP11SDL_TextureESaIvELN9__gnu_cxx12_Lock_policyE2EED0Ev
	.section	.text._ZNSt19_Sp_counted_deleterIDnPFvP11SDL_SurfaceESaIvELN9__gnu_cxx12_Lock_policyE2EED0Ev,"axG",@progbits,_ZNSt19_Sp_counted_deleterIDnPFvP11SDL_SurfaceESaIvELN9__gnu_cxx12_Lock_policyE2EED5Ev,comdat
	.align 2
	.p2align 4
	.weak	_ZNSt19_Sp_counted_deleterIDnPFvP11SDL_SurfaceESaIvELN9__gnu_cxx12_Lock_policyE2EED0Ev
	.type	_ZNSt19_Sp_counted_deleterIDnPFvP11SDL_SurfaceESaIvELN9__gnu_cxx12_Lock_policyE2EED0Ev, @function
_ZNSt19_Sp_counted_deleterIDnPFvP11SDL_SurfaceESaIvELN9__gnu_cxx12_Lock_policyE2EED0Ev:
.LFB13810:
	.cfi_startproc
	endbr64
	movl	$32, %esi
	jmp	_ZdlPvm@PLT
	.cfi_endproc
.LFE13810:
	.size	_ZNSt19_Sp_counted_deleterIDnPFvP11SDL_SurfaceESaIvELN9__gnu_cxx12_Lock_policyE2EED0Ev, .-_ZNSt19_Sp_counted_deleterIDnPFvP11SDL_SurfaceESaIvELN9__gnu_cxx12_Lock_policyE2EED0Ev
	.section	.text._ZNSt23_Sp_counted_ptr_inplaceI7LemmingSaIS0_ELN9__gnu_cxx12_Lock_policyE2EED0Ev,"axG",@progbits,_ZNSt23_Sp_counted_ptr_inplaceI7LemmingSaIS0_ELN9__gnu_cxx12_Lock_policyE2EED5Ev,comdat
	.align 2
	.p2align 4
	.weak	_ZNSt23_Sp_counted_ptr_inplaceI7LemmingSaIS0_ELN9__gnu_cxx12_Lock_policyE2EED0Ev
	.type	_ZNSt23_Sp_counted_ptr_inplaceI7LemmingSaIS0_ELN9__gnu_cxx12_Lock_policyE2EED0Ev, @function
_ZNSt23_Sp_counted_ptr_inplaceI7LemmingSaIS0_ELN9__gnu_cxx12_Lock_policyE2EED0Ev:
.LFB13803:
	.cfi_startproc
	endbr64
	movl	$576, %esi
	jmp	_ZdlPvm@PLT
	.cfi_endproc
.LFE13803:
	.size	_ZNSt23_Sp_counted_ptr_inplaceI7LemmingSaIS0_ELN9__gnu_cxx12_Lock_policyE2EED0Ev, .-_ZNSt23_Sp_counted_ptr_inplaceI7LemmingSaIS0_ELN9__gnu_cxx12_Lock_policyE2EED0Ev
	.section	.text._ZNSt23_Sp_counted_ptr_inplaceI15Lemmings_cameraSaIS0_ELN9__gnu_cxx12_Lock_policyE2EED0Ev,"axG",@progbits,_ZNSt23_Sp_counted_ptr_inplaceI15Lemmings_cameraSaIS0_ELN9__gnu_cxx12_Lock_policyE2EED5Ev,comdat
	.align 2
	.p2align 4
	.weak	_ZNSt23_Sp_counted_ptr_inplaceI15Lemmings_cameraSaIS0_ELN9__gnu_cxx12_Lock_policyE2EED0Ev
	.type	_ZNSt23_Sp_counted_ptr_inplaceI15Lemmings_cameraSaIS0_ELN9__gnu_cxx12_Lock_policyE2EED0Ev, @function
_ZNSt23_Sp_counted_ptr_inplaceI15Lemmings_cameraSaIS0_ELN9__gnu_cxx12_Lock_policyE2EED0Ev:
.LFB13796:
	.cfi_startproc
	endbr64
	movl	$40, %esi
	jmp	_ZdlPvm@PLT
	.cfi_endproc
.LFE13796:
	.size	_ZNSt23_Sp_counted_ptr_inplaceI15Lemmings_cameraSaIS0_ELN9__gnu_cxx12_Lock_policyE2EED0Ev, .-_ZNSt23_Sp_counted_ptr_inplaceI15Lemmings_cameraSaIS0_ELN9__gnu_cxx12_Lock_policyE2EED0Ev
	.section	.text._ZNSt23_Sp_counted_ptr_inplaceI10Rigid_bodySaIS0_ELN9__gnu_cxx12_Lock_policyE2EED0Ev,"axG",@progbits,_ZNSt23_Sp_counted_ptr_inplaceI10Rigid_bodySaIS0_ELN9__gnu_cxx12_Lock_policyE2EED5Ev,comdat
	.align 2
	.p2align 4
	.weak	_ZNSt23_Sp_counted_ptr_inplaceI10Rigid_bodySaIS0_ELN9__gnu_cxx12_Lock_policyE2EED0Ev
	.type	_ZNSt23_Sp_counted_ptr_inplaceI10Rigid_bodySaIS0_ELN9__gnu_cxx12_Lock_policyE2EED0Ev, @function
_ZNSt23_Sp_counted_ptr_inplaceI10Rigid_bodySaIS0_ELN9__gnu_cxx12_Lock_policyE2EED0Ev:
.LFB13789:
	.cfi_startproc
	endbr64
	movl	$216, %esi
	jmp	_ZdlPvm@PLT
	.cfi_endproc
.LFE13789:
	.size	_ZNSt23_Sp_counted_ptr_inplaceI10Rigid_bodySaIS0_ELN9__gnu_cxx12_Lock_policyE2EED0Ev, .-_ZNSt23_Sp_counted_ptr_inplaceI10Rigid_bodySaIS0_ELN9__gnu_cxx12_Lock_policyE2EED0Ev
	.section	.text._ZNSt23_Sp_counted_ptr_inplaceI4DoorSaIS0_ELN9__gnu_cxx12_Lock_policyE2EED0Ev,"axG",@progbits,_ZNSt23_Sp_counted_ptr_inplaceI4DoorSaIS0_ELN9__gnu_cxx12_Lock_policyE2EED5Ev,comdat
	.align 2
	.p2align 4
	.weak	_ZNSt23_Sp_counted_ptr_inplaceI4DoorSaIS0_ELN9__gnu_cxx12_Lock_policyE2EED0Ev
	.type	_ZNSt23_Sp_counted_ptr_inplaceI4DoorSaIS0_ELN9__gnu_cxx12_Lock_policyE2EED0Ev, @function
_ZNSt23_Sp_counted_ptr_inplaceI4DoorSaIS0_ELN9__gnu_cxx12_Lock_policyE2EED0Ev:
.LFB13782:
	.cfi_startproc
	endbr64
	movl	$240, %esi
	jmp	_ZdlPvm@PLT
	.cfi_endproc
.LFE13782:
	.size	_ZNSt23_Sp_counted_ptr_inplaceI4DoorSaIS0_ELN9__gnu_cxx12_Lock_policyE2EED0Ev, .-_ZNSt23_Sp_counted_ptr_inplaceI4DoorSaIS0_ELN9__gnu_cxx12_Lock_policyE2EED0Ev
	.section	.text._ZNSt23_Sp_counted_ptr_inplaceI4GateSaIS0_ELN9__gnu_cxx12_Lock_policyE2EED0Ev,"axG",@progbits,_ZNSt23_Sp_counted_ptr_inplaceI4GateSaIS0_ELN9__gnu_cxx12_Lock_policyE2EED5Ev,comdat
	.align 2
	.p2align 4
	.weak	_ZNSt23_Sp_counted_ptr_inplaceI4GateSaIS0_ELN9__gnu_cxx12_Lock_policyE2EED0Ev
	.type	_ZNSt23_Sp_counted_ptr_inplaceI4GateSaIS0_ELN9__gnu_cxx12_Lock_policyE2EED0Ev, @function
_ZNSt23_Sp_counted_ptr_inplaceI4GateSaIS0_ELN9__gnu_cxx12_Lock_policyE2EED0Ev:
.LFB13775:
	.cfi_startproc
	endbr64
	movl	$224, %esi
	jmp	_ZdlPvm@PLT
	.cfi_endproc
.LFE13775:
	.size	_ZNSt23_Sp_counted_ptr_inplaceI4GateSaIS0_ELN9__gnu_cxx12_Lock_policyE2EED0Ev, .-_ZNSt23_Sp_counted_ptr_inplaceI4GateSaIS0_ELN9__gnu_cxx12_Lock_policyE2EED0Ev
	.section	.text._ZNSt23_Sp_counted_ptr_inplaceI6LiquidSaIS0_ELN9__gnu_cxx12_Lock_policyE2EED0Ev,"axG",@progbits,_ZNSt23_Sp_counted_ptr_inplaceI6LiquidSaIS0_ELN9__gnu_cxx12_Lock_policyE2EED5Ev,comdat
	.align 2
	.p2align 4
	.weak	_ZNSt23_Sp_counted_ptr_inplaceI6LiquidSaIS0_ELN9__gnu_cxx12_Lock_policyE2EED0Ev
	.type	_ZNSt23_Sp_counted_ptr_inplaceI6LiquidSaIS0_ELN9__gnu_cxx12_Lock_policyE2EED0Ev, @function
_ZNSt23_Sp_counted_ptr_inplaceI6LiquidSaIS0_ELN9__gnu_cxx12_Lock_policyE2EED0Ev:
.LFB13768:
	.cfi_startproc
	endbr64
	movl	$224, %esi
	jmp	_ZdlPvm@PLT
	.cfi_endproc
.LFE13768:
	.size	_ZNSt23_Sp_counted_ptr_inplaceI6LiquidSaIS0_ELN9__gnu_cxx12_Lock_policyE2EED0Ev, .-_ZNSt23_Sp_counted_ptr_inplaceI6LiquidSaIS0_ELN9__gnu_cxx12_Lock_policyE2EED0Ev
	.section	.text._ZN15Lemmings_camera15update_positionER6Engine,"axG",@progbits,_ZN15Lemmings_camera15update_positionER6Engine,comdat
	.align 2
	.p2align 4
	.weak	_ZN15Lemmings_camera15update_positionER6Engine
	.type	_ZN15Lemmings_camera15update_positionER6Engine, @function
_ZN15Lemmings_camera15update_positionER6Engine:
.LFB12042:
	.cfi_startproc
	endbr64
	pushq	%rbp
	.cfi_def_cfa_offset 16
	.cfi_offset 6, -16
	movq	%rsi, %rbp
	pushq	%rbx
	.cfi_def_cfa_offset 24
	.cfi_offset 3, -24
	movq	%rdi, %rbx
	movq	%rsi, %rdi
	subq	$24, %rsp
	.cfi_def_cfa_offset 48
	call	_ZN6Engine14get_delta_timeEv@PLT
	pxor	%xmm2, %xmm2
	movq	%rbp, %rdi
	cvtsd2ss	%xmm0, %xmm2
	movss	%xmm2, 12(%rsp)
	call	_ZNK6Engine9is_a_downEv@PLT
	testb	%al, %al
	je	.L24
	pxor	%xmm1, %xmm1
	pxor	%xmm0, %xmm0
	cvtss2sd	12(%rsp), %xmm1
	mulsd	.LC0(%rip), %xmm1
	cvtss2sd	8(%rbx), %xmm0
	subsd	%xmm1, %xmm0
	cvtsd2ss	%xmm0, %xmm0
	movss	%xmm0, 8(%rbx)
	pxor	%xmm0, %xmm0
	cvtss2sd	16(%rbx), %xmm0
	subsd	%xmm1, %xmm0
	cvtsd2ss	%xmm0, %xmm0
	movss	%xmm0, 16(%rbx)
.L24:
	movq	%rbp, %rdi
	call	_ZNK6Engine9is_d_downEv@PLT
	testb	%al, %al
	je	.L23
	pxor	%xmm0, %xmm0
	pxor	%xmm1, %xmm1
	cvtss2sd	12(%rsp), %xmm0
	mulsd	.LC0(%rip), %xmm0
	cvtss2sd	8(%rbx), %xmm1
	addsd	%xmm0, %xmm1
	cvtsd2ss	%xmm1, %xmm1
	movss	%xmm1, 8(%rbx)
	pxor	%xmm1, %xmm1
	cvtss2sd	16(%rbx), %xmm1
	addsd	%xmm0, %xmm1
	cvtsd2ss	%xmm1, %xmm1
	movss	%xmm1, 16(%rbx)
.L23:
	addq	$24, %rsp
	.cfi_def_cfa_offset 24
	popq	%rbx
	.cfi_def_cfa_offset 16
	popq	%rbp
	.cfi_def_cfa_offset 8
	ret
	.cfi_endproc
.LFE12042:
	.size	_ZN15Lemmings_camera15update_positionER6Engine, .-_ZN15Lemmings_camera15update_positionER6Engine
	.section	.text._ZN7Lemming12post_physicsER6Engine,"axG",@progbits,_ZN7Lemming12post_physicsER6Engine,comdat
	.align 2
	.p2align 4
	.weak	_ZN7Lemming12post_physicsER6Engine
	.type	_ZN7Lemming12post_physicsER6Engine, @function
_ZN7Lemming12post_physicsER6Engine:
.LFB12093:
	.cfi_startproc
	endbr64
	cmpb	$0, 200(%rdi)
	jne	.L33
	movl	548(%rdi), %eax
	andl	$-5, %eax
	cmpl	$2, %eax
	jne	.L39
.L33:
	ret
	.p2align 4,,10
	.p2align 3
.L39:
	movl	544(%rdi), %eax
	andl	$8, %eax
	cmpl	$1, %eax
	sbbl	%eax, %eax
	andl	$-4, %eax
	addl	$6, %eax
	movl	%eax, 548(%rdi)
	ret
	.cfi_endproc
.LFE12093:
	.size	_ZN7Lemming12post_physicsER6Engine, .-_ZN7Lemming12post_physicsER6Engine
	.section	.text._ZNSt19_Sp_counted_deleterIDnPFvP11SDL_SurfaceESaIvELN9__gnu_cxx12_Lock_policyE2EE10_M_destroyEv,"axG",@progbits,_ZNSt19_Sp_counted_deleterIDnPFvP11SDL_SurfaceESaIvELN9__gnu_cxx12_Lock_policyE2EE10_M_destroyEv,comdat
	.align 2
	.p2align 4
	.weak	_ZNSt19_Sp_counted_deleterIDnPFvP11SDL_SurfaceESaIvELN9__gnu_cxx12_Lock_policyE2EE10_M_destroyEv
	.type	_ZNSt19_Sp_counted_deleterIDnPFvP11SDL_SurfaceESaIvELN9__gnu_cxx12_Lock_policyE2EE10_M_destroyEv, @function
_ZNSt19_Sp_counted_deleterIDnPFvP11SDL_SurfaceESaIvELN9__gnu_cxx12_Lock_policyE2EE10_M_destroyEv:
.LFB13812:
	.cfi_startproc
	endbr64
	movl	$32, %esi
	jmp	_ZdlPvm@PLT
	.cfi_endproc
.LFE13812:
	.size	_ZNSt19_Sp_counted_deleterIDnPFvP11SDL_SurfaceESaIvELN9__gnu_cxx12_Lock_policyE2EE10_M_destroyEv, .-_ZNSt19_Sp_counted_deleterIDnPFvP11SDL_SurfaceESaIvELN9__gnu_cxx12_Lock_policyE2EE10_M_destroyEv
	.section	.text._ZNSt19_Sp_counted_deleterIDnPFvP11SDL_TextureESaIvELN9__gnu_cxx12_Lock_policyE2EE10_M_destroyEv,"axG",@progbits,_ZNSt19_Sp_counted_deleterIDnPFvP11SDL_TextureESaIvELN9__gnu_cxx12_Lock_policyE2EE10_M_destroyEv,comdat
	.align 2
	.p2align 4
	.weak	_ZNSt19_Sp_counted_deleterIDnPFvP11SDL_TextureESaIvELN9__gnu_cxx12_Lock_policyE2EE10_M_destroyEv
	.type	_ZNSt19_Sp_counted_deleterIDnPFvP11SDL_TextureESaIvELN9__gnu_cxx12_Lock_policyE2EE10_M_destroyEv, @function
_ZNSt19_Sp_counted_deleterIDnPFvP11SDL_TextureESaIvELN9__gnu_cxx12_Lock_policyE2EE10_M_destroyEv:
.LFB13819:
	.cfi_startproc
	endbr64
	movl	$32, %esi
	jmp	_ZdlPvm@PLT
	.cfi_endproc
.LFE13819:
	.size	_ZNSt19_Sp_counted_deleterIDnPFvP11SDL_TextureESaIvELN9__gnu_cxx12_Lock_policyE2EE10_M_destroyEv, .-_ZNSt19_Sp_counted_deleterIDnPFvP11SDL_TextureESaIvELN9__gnu_cxx12_Lock_policyE2EE10_M_destroyEv
	.section	.text._ZNSt23_Sp_counted_ptr_inplaceI10Rigid_bodySaIS0_ELN9__gnu_cxx12_Lock_policyE2EE10_M_destroyEv,"axG",@progbits,_ZNSt23_Sp_counted_ptr_inplaceI10Rigid_bodySaIS0_ELN9__gnu_cxx12_Lock_policyE2EE10_M_destroyEv,comdat
	.align 2
	.p2align 4
	.weak	_ZNSt23_Sp_counted_ptr_inplaceI10Rigid_bodySaIS0_ELN9__gnu_cxx12_Lock_policyE2EE10_M_destroyEv
	.type	_ZNSt23_Sp_counted_ptr_inplaceI10Rigid_bodySaIS0_ELN9__gnu_cxx12_Lock_policyE2EE10_M_destroyEv, @function
_ZNSt23_Sp_counted_ptr_inplaceI10Rigid_bodySaIS0_ELN9__gnu_cxx12_Lock_policyE2EE10_M_destroyEv:
.LFB13791:
	.cfi_startproc
	endbr64
	movl	$216, %esi
	jmp	_ZdlPvm@PLT
	.cfi_endproc
.LFE13791:
	.size	_ZNSt23_Sp_counted_ptr_inplaceI10Rigid_bodySaIS0_ELN9__gnu_cxx12_Lock_policyE2EE10_M_destroyEv, .-_ZNSt23_Sp_counted_ptr_inplaceI10Rigid_bodySaIS0_ELN9__gnu_cxx12_Lock_policyE2EE10_M_destroyEv
	.section	.text._ZNSt23_Sp_counted_ptr_inplaceI4DoorSaIS0_ELN9__gnu_cxx12_Lock_policyE2EE10_M_destroyEv,"axG",@progbits,_ZNSt23_Sp_counted_ptr_inplaceI4DoorSaIS0_ELN9__gnu_cxx12_Lock_policyE2EE10_M_destroyEv,comdat
	.align 2
	.p2align 4
	.weak	_ZNSt23_Sp_counted_ptr_inplaceI4DoorSaIS0_ELN9__gnu_cxx12_Lock_policyE2EE10_M_destroyEv
	.type	_ZNSt23_Sp_counted_ptr_inplaceI4DoorSaIS0_ELN9__gnu_cxx12_Lock_policyE2EE10_M_destroyEv, @function
_ZNSt23_Sp_counted_ptr_inplaceI4DoorSaIS0_ELN9__gnu_cxx12_Lock_policyE2EE10_M_destroyEv:
.LFB13784:
	.cfi_startproc
	endbr64
	movl	$240, %esi
	jmp	_ZdlPvm@PLT
	.cfi_endproc
.LFE13784:
	.size	_ZNSt23_Sp_counted_ptr_inplaceI4DoorSaIS0_ELN9__gnu_cxx12_Lock_policyE2EE10_M_destroyEv, .-_ZNSt23_Sp_counted_ptr_inplaceI4DoorSaIS0_ELN9__gnu_cxx12_Lock_policyE2EE10_M_destroyEv
	.section	.text._ZNSt23_Sp_counted_ptr_inplaceI4GateSaIS0_ELN9__gnu_cxx12_Lock_policyE2EE10_M_destroyEv,"axG",@progbits,_ZNSt23_Sp_counted_ptr_inplaceI4GateSaIS0_ELN9__gnu_cxx12_Lock_policyE2EE10_M_destroyEv,comdat
	.align 2
	.p2align 4
	.weak	_ZNSt23_Sp_counted_ptr_inplaceI4GateSaIS0_ELN9__gnu_cxx12_Lock_policyE2EE10_M_destroyEv
	.type	_ZNSt23_Sp_counted_ptr_inplaceI4GateSaIS0_ELN9__gnu_cxx12_Lock_policyE2EE10_M_destroyEv, @function
_ZNSt23_Sp_counted_ptr_inplaceI4GateSaIS0_ELN9__gnu_cxx12_Lock_policyE2EE10_M_destroyEv:
.LFB13777:
	.cfi_startproc
	endbr64
	movl	$224, %esi
	jmp	_ZdlPvm@PLT
	.cfi_endproc
.LFE13777:
	.size	_ZNSt23_Sp_counted_ptr_inplaceI4GateSaIS0_ELN9__gnu_cxx12_Lock_policyE2EE10_M_destroyEv, .-_ZNSt23_Sp_counted_ptr_inplaceI4GateSaIS0_ELN9__gnu_cxx12_Lock_policyE2EE10_M_destroyEv
	.section	.text._ZNSt23_Sp_counted_ptr_inplaceI6LiquidSaIS0_ELN9__gnu_cxx12_Lock_policyE2EE10_M_destroyEv,"axG",@progbits,_ZNSt23_Sp_counted_ptr_inplaceI6LiquidSaIS0_ELN9__gnu_cxx12_Lock_policyE2EE10_M_destroyEv,comdat
	.align 2
	.p2align 4
	.weak	_ZNSt23_Sp_counted_ptr_inplaceI6LiquidSaIS0_ELN9__gnu_cxx12_Lock_policyE2EE10_M_destroyEv
	.type	_ZNSt23_Sp_counted_ptr_inplaceI6LiquidSaIS0_ELN9__gnu_cxx12_Lock_policyE2EE10_M_destroyEv, @function
_ZNSt23_Sp_counted_ptr_inplaceI6LiquidSaIS0_ELN9__gnu_cxx12_Lock_policyE2EE10_M_destroyEv:
.LFB13770:
	.cfi_startproc
	endbr64
	movl	$224, %esi
	jmp	_ZdlPvm@PLT
	.cfi_endproc
.LFE13770:
	.size	_ZNSt23_Sp_counted_ptr_inplaceI6LiquidSaIS0_ELN9__gnu_cxx12_Lock_policyE2EE10_M_destroyEv, .-_ZNSt23_Sp_counted_ptr_inplaceI6LiquidSaIS0_ELN9__gnu_cxx12_Lock_policyE2EE10_M_destroyEv
	.section	.text._ZNSt23_Sp_counted_ptr_inplaceI15Lemmings_cameraSaIS0_ELN9__gnu_cxx12_Lock_policyE2EE10_M_destroyEv,"axG",@progbits,_ZNSt23_Sp_counted_ptr_inplaceI15Lemmings_cameraSaIS0_ELN9__gnu_cxx12_Lock_policyE2EE10_M_destroyEv,comdat
	.align 2
	.p2align 4
	.weak	_ZNSt23_Sp_counted_ptr_inplaceI15Lemmings_cameraSaIS0_ELN9__gnu_cxx12_Lock_policyE2EE10_M_destroyEv
	.type	_ZNSt23_Sp_counted_ptr_inplaceI15Lemmings_cameraSaIS0_ELN9__gnu_cxx12_Lock_policyE2EE10_M_destroyEv, @function
_ZNSt23_Sp_counted_ptr_inplaceI15Lemmings_cameraSaIS0_ELN9__gnu_cxx12_Lock_policyE2EE10_M_destroyEv:
.LFB13798:
	.cfi_startproc
	endbr64
	movl	$40, %esi
	jmp	_ZdlPvm@PLT
	.cfi_endproc
.LFE13798:
	.size	_ZNSt23_Sp_counted_ptr_inplaceI15Lemmings_cameraSaIS0_ELN9__gnu_cxx12_Lock_policyE2EE10_M_destroyEv, .-_ZNSt23_Sp_counted_ptr_inplaceI15Lemmings_cameraSaIS0_ELN9__gnu_cxx12_Lock_policyE2EE10_M_destroyEv
	.section	.text._ZNSt23_Sp_counted_ptr_inplaceI7LemmingSaIS0_ELN9__gnu_cxx12_Lock_policyE2EE10_M_destroyEv,"axG",@progbits,_ZNSt23_Sp_counted_ptr_inplaceI7LemmingSaIS0_ELN9__gnu_cxx12_Lock_policyE2EE10_M_destroyEv,comdat
	.align 2
	.p2align 4
	.weak	_ZNSt23_Sp_counted_ptr_inplaceI7LemmingSaIS0_ELN9__gnu_cxx12_Lock_policyE2EE10_M_destroyEv
	.type	_ZNSt23_Sp_counted_ptr_inplaceI7LemmingSaIS0_ELN9__gnu_cxx12_Lock_policyE2EE10_M_destroyEv, @function
_ZNSt23_Sp_counted_ptr_inplaceI7LemmingSaIS0_ELN9__gnu_cxx12_Lock_policyE2EE10_M_destroyEv:
.LFB13805:
	.cfi_startproc
	endbr64
	movl	$576, %esi
	jmp	_ZdlPvm@PLT
	.cfi_endproc
.LFE13805:
	.size	_ZNSt23_Sp_counted_ptr_inplaceI7LemmingSaIS0_ELN9__gnu_cxx12_Lock_policyE2EE10_M_destroyEv, .-_ZNSt23_Sp_counted_ptr_inplaceI7LemmingSaIS0_ELN9__gnu_cxx12_Lock_policyE2EE10_M_destroyEv
	.section	.text._ZNSt23_Sp_counted_ptr_inplaceI6LiquidSaIS0_ELN9__gnu_cxx12_Lock_policyE2EE14_M_get_deleterERKSt9type_info,"axG",@progbits,_ZNSt23_Sp_counted_ptr_inplaceI6LiquidSaIS0_ELN9__gnu_cxx12_Lock_policyE2EE14_M_get_deleterERKSt9type_info,comdat
	.align 2
	.p2align 4
	.weak	_ZNSt23_Sp_counted_ptr_inplaceI6LiquidSaIS0_ELN9__gnu_cxx12_Lock_policyE2EE14_M_get_deleterERKSt9type_info
	.type	_ZNSt23_Sp_counted_ptr_inplaceI6LiquidSaIS0_ELN9__gnu_cxx12_Lock_policyE2EE14_M_get_deleterERKSt9type_info, @function
_ZNSt23_Sp_counted_ptr_inplaceI6LiquidSaIS0_ELN9__gnu_cxx12_Lock_policyE2EE14_M_get_deleterERKSt9type_info:
.LFB13771:
	.cfi_startproc
	endbr64
	leaq	_ZZNSt19_Sp_make_shared_tag5_S_tiEvE5__tag(%rip), %rax
	pushq	%r12
	.cfi_def_cfa_offset 16
	.cfi_offset 12, -16
	leaq	16(%rdi), %r12
	cmpq	%rax, %rsi
	je	.L48
	movq	8(%rsi), %rdi
	leaq	_ZTSSt19_Sp_make_shared_tag(%rip), %rsi
	cmpq	%rsi, %rdi
	je	.L48
	cmpb	$42, (%rdi)
	je	.L50
	call	strcmp@PLT
	testl	%eax, %eax
	movl	$0, %eax
	cmovne	%rax, %r12
.L48:
	movq	%r12, %rax
	popq	%r12
	.cfi_remember_state
	.cfi_def_cfa_offset 8
	ret
	.p2align 4,,10
	.p2align 3
.L50:
	.cfi_restore_state
	xorl	%r12d, %r12d
	movq	%r12, %rax
	popq	%r12
	.cfi_def_cfa_offset 8
	ret
	.cfi_endproc
.LFE13771:
	.size	_ZNSt23_Sp_counted_ptr_inplaceI6LiquidSaIS0_ELN9__gnu_cxx12_Lock_policyE2EE14_M_get_deleterERKSt9type_info, .-_ZNSt23_Sp_counted_ptr_inplaceI6LiquidSaIS0_ELN9__gnu_cxx12_Lock_policyE2EE14_M_get_deleterERKSt9type_info
	.section	.text._ZNK13Lemmings_game10get_cameraEv,"axG",@progbits,_ZNK13Lemmings_game10get_cameraEv,comdat
	.align 2
	.p2align 4
	.weak	_ZNK13Lemmings_game10get_cameraEv
	.type	_ZNK13Lemmings_game10get_cameraEv, @function
_ZNK13Lemmings_game10get_cameraEv:
.LFB12127:
	.cfi_startproc
	.cfi_personality 0x9b,DW.ref.__gxx_personality_v0
	.cfi_lsda 0x1b,.LLSDA12127
	endbr64
	pushq	%r12
	.cfi_def_cfa_offset 16
	.cfi_offset 12, -16
	movq	%rdi, %r12
	movl	$40, %edi
	pushq	%rbp
	.cfi_def_cfa_offset 24
	.cfi_offset 6, -24
	subq	$56, %rsp
	.cfi_def_cfa_offset 80
	movq	%fs:40, %rax
	movq	%rax, 40(%rsp)
	xorl	%eax, %eax
.LEHB0:
	call	_Znwm@PLT
.LEHE0:
	movaps	.LC2(%rip), %xmm0
	leaq	16(%rsp), %rsi
	movq	%rax, %rbp
	movq	.LC1(%rip), %rax
	leaq	16(%rbp), %rdi
	movq	%rbp, %xmm2
	movaps	%xmm0, 16(%rsp)
	movq	%rdi, %xmm1
	movq	%rax, 8(%rbp)
	leaq	16+_ZTVSt23_Sp_counted_ptr_inplaceI15Lemmings_cameraSaIS0_ELN9__gnu_cxx12_Lock_policyE2EE(%rip), %rax
	punpcklqdq	%xmm2, %xmm1
	movq	%rax, 0(%rbp)
	movaps	%xmm1, (%rsp)
.LEHB1:
	call	_ZN8Camera2DC2E12BoundingBox2IfE@PLT
.LEHE1:
	leaq	16+_ZTV15Lemmings_camera(%rip), %rax
	movdqa	(%rsp), %xmm1
	movq	%rax, 16(%rbp)
	movups	%xmm1, (%r12)
	movq	40(%rsp), %rax
	subq	%fs:40, %rax
	jne	.L59
	addq	$56, %rsp
	.cfi_remember_state
	.cfi_def_cfa_offset 24
	movq	%r12, %rax
	popq	%rbp
	.cfi_def_cfa_offset 16
	popq	%r12
	.cfi_def_cfa_offset 8
	ret
.L59:
	.cfi_restore_state
	call	__stack_chk_fail@PLT
.L56:
	endbr64
	movq	%rax, %r12
.L54:
	movq	%rbp, %rdi
	movl	$40, %esi
	call	_ZdlPvm@PLT
	movq	%r12, %rdi
.LEHB2:
	call	_Unwind_Resume@PLT
.LEHE2:
	.cfi_endproc
.LFE12127:
	.section	.gcc_except_table._ZNK13Lemmings_game10get_cameraEv,"aG",@progbits,_ZNK13Lemmings_game10get_cameraEv,comdat
.LLSDA12127:
	.byte	0xff
	.byte	0xff
	.byte	0x1
	.uleb128 .LLSDACSE12127-.LLSDACSB12127
.LLSDACSB12127:
	.uleb128 .LEHB0-.LFB12127
	.uleb128 .LEHE0-.LEHB0
	.uleb128 0
	.uleb128 0
	.uleb128 .LEHB1-.LFB12127
	.uleb128 .LEHE1-.LEHB1
	.uleb128 .L56-.LFB12127
	.uleb128 0
	.uleb128 .LEHB2-.LFB12127
	.uleb128 .LEHE2-.LEHB2
	.uleb128 0
	.uleb128 0
.LLSDACSE12127:
	.section	.text._ZNK13Lemmings_game10get_cameraEv,"axG",@progbits,_ZNK13Lemmings_game10get_cameraEv,comdat
	.size	_ZNK13Lemmings_game10get_cameraEv, .-_ZNK13Lemmings_game10get_cameraEv
	.section	.text._ZNSt19_Sp_counted_deleterIDnPFvP11SDL_TextureESaIvELN9__gnu_cxx12_Lock_policyE2EE14_M_get_deleterERKSt9type_info,"axG",@progbits,_ZNSt19_Sp_counted_deleterIDnPFvP11SDL_TextureESaIvELN9__gnu_cxx12_Lock_policyE2EE14_M_get_deleterERKSt9type_info,comdat
	.align 2
	.p2align 4
	.weak	_ZNSt19_Sp_counted_deleterIDnPFvP11SDL_TextureESaIvELN9__gnu_cxx12_Lock_policyE2EE14_M_get_deleterERKSt9type_info
	.type	_ZNSt19_Sp_counted_deleterIDnPFvP11SDL_TextureESaIvELN9__gnu_cxx12_Lock_policyE2EE14_M_get_deleterERKSt9type_info, @function
_ZNSt19_Sp_counted_deleterIDnPFvP11SDL_TextureESaIvELN9__gnu_cxx12_Lock_policyE2EE14_M_get_deleterERKSt9type_info:
.LFB13820:
	.cfi_startproc
	endbr64
	pushq	%r12
	.cfi_def_cfa_offset 16
	.cfi_offset 12, -16
	pushq	%rbx
	.cfi_def_cfa_offset 24
	.cfi_offset 3, -24
	movq	%rdi, %rbx
	subq	$8, %rsp
	.cfi_def_cfa_offset 32
	movq	8(%rsi), %rdi
	leaq	_ZTSPFvP11SDL_TextureE(%rip), %rsi
	cmpq	%rsi, %rdi
	je	.L61
	xorl	%r12d, %r12d
	cmpb	$42, (%rdi)
	je	.L60
	call	strcmp@PLT
	testl	%eax, %eax
	jne	.L60
.L61:
	leaq	16(%rbx), %r12
.L60:
	addq	$8, %rsp
	.cfi_def_cfa_offset 24
	movq	%r12, %rax
	popq	%rbx
	.cfi_def_cfa_offset 16
	popq	%r12
	.cfi_def_cfa_offset 8
	ret
	.cfi_endproc
.LFE13820:
	.size	_ZNSt19_Sp_counted_deleterIDnPFvP11SDL_TextureESaIvELN9__gnu_cxx12_Lock_policyE2EE14_M_get_deleterERKSt9type_info, .-_ZNSt19_Sp_counted_deleterIDnPFvP11SDL_TextureESaIvELN9__gnu_cxx12_Lock_policyE2EE14_M_get_deleterERKSt9type_info
	.section	.text._ZNSt19_Sp_counted_deleterIDnPFvP11SDL_SurfaceESaIvELN9__gnu_cxx12_Lock_policyE2EE14_M_get_deleterERKSt9type_info,"axG",@progbits,_ZNSt19_Sp_counted_deleterIDnPFvP11SDL_SurfaceESaIvELN9__gnu_cxx12_Lock_policyE2EE14_M_get_deleterERKSt9type_info,comdat
	.align 2
	.p2align 4
	.weak	_ZNSt19_Sp_counted_deleterIDnPFvP11SDL_SurfaceESaIvELN9__gnu_cxx12_Lock_policyE2EE14_M_get_deleterERKSt9type_info
	.type	_ZNSt19_Sp_counted_deleterIDnPFvP11SDL_SurfaceESaIvELN9__gnu_cxx12_Lock_policyE2EE14_M_get_deleterERKSt9type_info, @function
_ZNSt19_Sp_counted_deleterIDnPFvP11SDL_SurfaceESaIvELN9__gnu_cxx12_Lock_policyE2EE14_M_get_deleterERKSt9type_info:
.LFB13813:
	.cfi_startproc
	endbr64
	pushq	%r12
	.cfi_def_cfa_offset 16
	.cfi_offset 12, -16
	pushq	%rbx
	.cfi_def_cfa_offset 24
	.cfi_offset 3, -24
	movq	%rdi, %rbx
	subq	$8, %rsp
	.cfi_def_cfa_offset 32
	movq	8(%rsi), %rdi
	leaq	_ZTSPFvP11SDL_SurfaceE(%rip), %rsi
	cmpq	%rsi, %rdi
	je	.L67
	xorl	%r12d, %r12d
	cmpb	$42, (%rdi)
	je	.L66
	call	strcmp@PLT
	testl	%eax, %eax
	jne	.L66
.L67:
	leaq	16(%rbx), %r12
.L66:
	addq	$8, %rsp
	.cfi_def_cfa_offset 24
	movq	%r12, %rax
	popq	%rbx
	.cfi_def_cfa_offset 16
	popq	%r12
	.cfi_def_cfa_offset 8
	ret
	.cfi_endproc
.LFE13813:
	.size	_ZNSt19_Sp_counted_deleterIDnPFvP11SDL_SurfaceESaIvELN9__gnu_cxx12_Lock_policyE2EE14_M_get_deleterERKSt9type_info, .-_ZNSt19_Sp_counted_deleterIDnPFvP11SDL_SurfaceESaIvELN9__gnu_cxx12_Lock_policyE2EE14_M_get_deleterERKSt9type_info
	.section	.text._ZNSt23_Sp_counted_ptr_inplaceI4GateSaIS0_ELN9__gnu_cxx12_Lock_policyE2EE14_M_get_deleterERKSt9type_info,"axG",@progbits,_ZNSt23_Sp_counted_ptr_inplaceI4GateSaIS0_ELN9__gnu_cxx12_Lock_policyE2EE14_M_get_deleterERKSt9type_info,comdat
	.align 2
	.p2align 4
	.weak	_ZNSt23_Sp_counted_ptr_inplaceI4GateSaIS0_ELN9__gnu_cxx12_Lock_policyE2EE14_M_get_deleterERKSt9type_info
	.type	_ZNSt23_Sp_counted_ptr_inplaceI4GateSaIS0_ELN9__gnu_cxx12_Lock_policyE2EE14_M_get_deleterERKSt9type_info, @function
_ZNSt23_Sp_counted_ptr_inplaceI4GateSaIS0_ELN9__gnu_cxx12_Lock_policyE2EE14_M_get_deleterERKSt9type_info:
.LFB13778:
	.cfi_startproc
	endbr64
	leaq	_ZZNSt19_Sp_make_shared_tag5_S_tiEvE5__tag(%rip), %rax
	pushq	%r12
	.cfi_def_cfa_offset 16
	.cfi_offset 12, -16
	leaq	16(%rdi), %r12
	cmpq	%rax, %rsi
	je	.L72
	movq	8(%rsi), %rdi
	leaq	_ZTSSt19_Sp_make_shared_tag(%rip), %rsi
	cmpq	%rsi, %rdi
	je	.L72
	cmpb	$42, (%rdi)
	je	.L74
	call	strcmp@PLT
	testl	%eax, %eax
	movl	$0, %eax
	cmovne	%rax, %r12
.L72:
	movq	%r12, %rax
	popq	%r12
	.cfi_remember_state
	.cfi_def_cfa_offset 8
	ret
	.p2align 4,,10
	.p2align 3
.L74:
	.cfi_restore_state
	xorl	%r12d, %r12d
	movq	%r12, %rax
	popq	%r12
	.cfi_def_cfa_offset 8
	ret
	.cfi_endproc
.LFE13778:
	.size	_ZNSt23_Sp_counted_ptr_inplaceI4GateSaIS0_ELN9__gnu_cxx12_Lock_policyE2EE14_M_get_deleterERKSt9type_info, .-_ZNSt23_Sp_counted_ptr_inplaceI4GateSaIS0_ELN9__gnu_cxx12_Lock_policyE2EE14_M_get_deleterERKSt9type_info
	.section	.text._ZNSt23_Sp_counted_ptr_inplaceI15Lemmings_cameraSaIS0_ELN9__gnu_cxx12_Lock_policyE2EE14_M_get_deleterERKSt9type_info,"axG",@progbits,_ZNSt23_Sp_counted_ptr_inplaceI15Lemmings_cameraSaIS0_ELN9__gnu_cxx12_Lock_policyE2EE14_M_get_deleterERKSt9type_info,comdat
	.align 2
	.p2align 4
	.weak	_ZNSt23_Sp_counted_ptr_inplaceI15Lemmings_cameraSaIS0_ELN9__gnu_cxx12_Lock_policyE2EE14_M_get_deleterERKSt9type_info
	.type	_ZNSt23_Sp_counted_ptr_inplaceI15Lemmings_cameraSaIS0_ELN9__gnu_cxx12_Lock_policyE2EE14_M_get_deleterERKSt9type_info, @function
_ZNSt23_Sp_counted_ptr_inplaceI15Lemmings_cameraSaIS0_ELN9__gnu_cxx12_Lock_policyE2EE14_M_get_deleterERKSt9type_info:
.LFB13799:
	.cfi_startproc
	endbr64
	leaq	_ZZNSt19_Sp_make_shared_tag5_S_tiEvE5__tag(%rip), %rax
	pushq	%r12
	.cfi_def_cfa_offset 16
	.cfi_offset 12, -16
	leaq	16(%rdi), %r12
	cmpq	%rax, %rsi
	je	.L77
	movq	8(%rsi), %rdi
	leaq	_ZTSSt19_Sp_make_shared_tag(%rip), %rsi
	cmpq	%rsi, %rdi
	je	.L77
	cmpb	$42, (%rdi)
	je	.L79
	call	strcmp@PLT
	testl	%eax, %eax
	movl	$0, %eax
	cmovne	%rax, %r12
.L77:
	movq	%r12, %rax
	popq	%r12
	.cfi_remember_state
	.cfi_def_cfa_offset 8
	ret
	.p2align 4,,10
	.p2align 3
.L79:
	.cfi_restore_state
	xorl	%r12d, %r12d
	movq	%r12, %rax
	popq	%r12
	.cfi_def_cfa_offset 8
	ret
	.cfi_endproc
.LFE13799:
	.size	_ZNSt23_Sp_counted_ptr_inplaceI15Lemmings_cameraSaIS0_ELN9__gnu_cxx12_Lock_policyE2EE14_M_get_deleterERKSt9type_info, .-_ZNSt23_Sp_counted_ptr_inplaceI15Lemmings_cameraSaIS0_ELN9__gnu_cxx12_Lock_policyE2EE14_M_get_deleterERKSt9type_info
	.section	.text._ZNSt23_Sp_counted_ptr_inplaceI4DoorSaIS0_ELN9__gnu_cxx12_Lock_policyE2EE14_M_get_deleterERKSt9type_info,"axG",@progbits,_ZNSt23_Sp_counted_ptr_inplaceI4DoorSaIS0_ELN9__gnu_cxx12_Lock_policyE2EE14_M_get_deleterERKSt9type_info,comdat
	.align 2
	.p2align 4
	.weak	_ZNSt23_Sp_counted_ptr_inplaceI4DoorSaIS0_ELN9__gnu_cxx12_Lock_policyE2EE14_M_get_deleterERKSt9type_info
	.type	_ZNSt23_Sp_counted_ptr_inplaceI4DoorSaIS0_ELN9__gnu_cxx12_Lock_policyE2EE14_M_get_deleterERKSt9type_info, @function
_ZNSt23_Sp_counted_ptr_inplaceI4DoorSaIS0_ELN9__gnu_cxx12_Lock_policyE2EE14_M_get_deleterERKSt9type_info:
.LFB13785:
	.cfi_startproc
	endbr64
	leaq	_ZZNSt19_Sp_make_shared_tag5_S_tiEvE5__tag(%rip), %rax
	pushq	%r12
	.cfi_def_cfa_offset 16
	.cfi_offset 12, -16
	leaq	16(%rdi), %r12
	cmpq	%rax, %rsi
	je	.L82
	movq	8(%rsi), %rdi
	leaq	_ZTSSt19_Sp_make_shared_tag(%rip), %rsi
	cmpq	%rsi, %rdi
	je	.L82
	cmpb	$42, (%rdi)
	je	.L84
	call	strcmp@PLT
	testl	%eax, %eax
	movl	$0, %eax
	cmovne	%rax, %r12
.L82:
	movq	%r12, %rax
	popq	%r12
	.cfi_remember_state
	.cfi_def_cfa_offset 8
	ret
	.p2align 4,,10
	.p2align 3
.L84:
	.cfi_restore_state
	xorl	%r12d, %r12d
	movq	%r12, %rax
	popq	%r12
	.cfi_def_cfa_offset 8
	ret
	.cfi_endproc
.LFE13785:
	.size	_ZNSt23_Sp_counted_ptr_inplaceI4DoorSaIS0_ELN9__gnu_cxx12_Lock_policyE2EE14_M_get_deleterERKSt9type_info, .-_ZNSt23_Sp_counted_ptr_inplaceI4DoorSaIS0_ELN9__gnu_cxx12_Lock_policyE2EE14_M_get_deleterERKSt9type_info
	.section	.text._ZNSt23_Sp_counted_ptr_inplaceI10Rigid_bodySaIS0_ELN9__gnu_cxx12_Lock_policyE2EE14_M_get_deleterERKSt9type_info,"axG",@progbits,_ZNSt23_Sp_counted_ptr_inplaceI10Rigid_bodySaIS0_ELN9__gnu_cxx12_Lock_policyE2EE14_M_get_deleterERKSt9type_info,comdat
	.align 2
	.p2align 4
	.weak	_ZNSt23_Sp_counted_ptr_inplaceI10Rigid_bodySaIS0_ELN9__gnu_cxx12_Lock_policyE2EE14_M_get_deleterERKSt9type_info
	.type	_ZNSt23_Sp_counted_ptr_inplaceI10Rigid_bodySaIS0_ELN9__gnu_cxx12_Lock_policyE2EE14_M_get_deleterERKSt9type_info, @function
_ZNSt23_Sp_counted_ptr_inplaceI10Rigid_bodySaIS0_ELN9__gnu_cxx12_Lock_policyE2EE14_M_get_deleterERKSt9type_info:
.LFB13792:
	.cfi_startproc
	endbr64
	leaq	_ZZNSt19_Sp_make_shared_tag5_S_tiEvE5__tag(%rip), %rax
	pushq	%r12
	.cfi_def_cfa_offset 16
	.cfi_offset 12, -16
	leaq	16(%rdi), %r12
	cmpq	%rax, %rsi
	je	.L87
	movq	8(%rsi), %rdi
	leaq	_ZTSSt19_Sp_make_shared_tag(%rip), %rsi
	cmpq	%rsi, %rdi
	je	.L87
	cmpb	$42, (%rdi)
	je	.L89
	call	strcmp@PLT
	testl	%eax, %eax
	movl	$0, %eax
	cmovne	%rax, %r12
.L87:
	movq	%r12, %rax
	popq	%r12
	.cfi_remember_state
	.cfi_def_cfa_offset 8
	ret
	.p2align 4,,10
	.p2align 3
.L89:
	.cfi_restore_state
	xorl	%r12d, %r12d
	movq	%r12, %rax
	popq	%r12
	.cfi_def_cfa_offset 8
	ret
	.cfi_endproc
.LFE13792:
	.size	_ZNSt23_Sp_counted_ptr_inplaceI10Rigid_bodySaIS0_ELN9__gnu_cxx12_Lock_policyE2EE14_M_get_deleterERKSt9type_info, .-_ZNSt23_Sp_counted_ptr_inplaceI10Rigid_bodySaIS0_ELN9__gnu_cxx12_Lock_policyE2EE14_M_get_deleterERKSt9type_info
	.section	.text._ZNSt23_Sp_counted_ptr_inplaceI7LemmingSaIS0_ELN9__gnu_cxx12_Lock_policyE2EE14_M_get_deleterERKSt9type_info,"axG",@progbits,_ZNSt23_Sp_counted_ptr_inplaceI7LemmingSaIS0_ELN9__gnu_cxx12_Lock_policyE2EE14_M_get_deleterERKSt9type_info,comdat
	.align 2
	.p2align 4
	.weak	_ZNSt23_Sp_counted_ptr_inplaceI7LemmingSaIS0_ELN9__gnu_cxx12_Lock_policyE2EE14_M_get_deleterERKSt9type_info
	.type	_ZNSt23_Sp_counted_ptr_inplaceI7LemmingSaIS0_ELN9__gnu_cxx12_Lock_policyE2EE14_M_get_deleterERKSt9type_info, @function
_ZNSt23_Sp_counted_ptr_inplaceI7LemmingSaIS0_ELN9__gnu_cxx12_Lock_policyE2EE14_M_get_deleterERKSt9type_info:
.LFB13806:
	.cfi_startproc
	endbr64
	leaq	_ZZNSt19_Sp_make_shared_tag5_S_tiEvE5__tag(%rip), %rax
	pushq	%r12
	.cfi_def_cfa_offset 16
	.cfi_offset 12, -16
	leaq	16(%rdi), %r12
	cmpq	%rax, %rsi
	je	.L92
	movq	8(%rsi), %rdi
	leaq	_ZTSSt19_Sp_make_shared_tag(%rip), %rsi
	cmpq	%rsi, %rdi
	je	.L92
	cmpb	$42, (%rdi)
	je	.L94
	call	strcmp@PLT
	testl	%eax, %eax
	movl	$0, %eax
	cmovne	%rax, %r12
.L92:
	movq	%r12, %rax
	popq	%r12
	.cfi_remember_state
	.cfi_def_cfa_offset 8
	ret
	.p2align 4,,10
	.p2align 3
.L94:
	.cfi_restore_state
	xorl	%r12d, %r12d
	movq	%r12, %rax
	popq	%r12
	.cfi_def_cfa_offset 8
	ret
	.cfi_endproc
.LFE13806:
	.size	_ZNSt23_Sp_counted_ptr_inplaceI7LemmingSaIS0_ELN9__gnu_cxx12_Lock_policyE2EE14_M_get_deleterERKSt9type_info, .-_ZNSt23_Sp_counted_ptr_inplaceI7LemmingSaIS0_ELN9__gnu_cxx12_Lock_policyE2EE14_M_get_deleterERKSt9type_info
	.section	.rodata.str1.8,"aMS",@progbits,1
	.align 8
.LC3:
	.string	"basic_string::_M_construct null not valid"
	.section	.rodata.str1.1,"aMS",@progbits,1
.LC4:
	.string	"basic_string::_M_create"
	.text
	.align 2
	.p2align 4
	.type	_ZNSt7__cxx1112basic_stringIcSt11char_traitsIcESaIcEE12_M_constructIPcEEvT_S7_St20forward_iterator_tag.isra.0, @function
_ZNSt7__cxx1112basic_stringIcSt11char_traitsIcESaIcEE12_M_constructIPcEEvT_S7_St20forward_iterator_tag.isra.0:
.LFB13881:
	.cfi_startproc
	pushq	%r12
	.cfi_def_cfa_offset 16
	.cfi_offset 12, -16
	movq	%rsi, %r12
	pushq	%rbp
	.cfi_def_cfa_offset 24
	.cfi_offset 6, -24
	movq	%rdi, %rbp
	pushq	%rbx
	.cfi_def_cfa_offset 32
	.cfi_offset 3, -32
	movq	%rdx, %rbx
	testq	%rdx, %rdx
	je	.L98
	testq	%rsi, %rsi
	je	.L115
.L98:
	subq	%r12, %rbx
	cmpq	$15, %rbx
	ja	.L116
	movq	0(%rbp), %rdi
	cmpq	$1, %rbx
	je	.L117
	testq	%rbx, %rbx
	jne	.L102
	movq	%rbx, 8(%rbp)
	movb	$0, (%rdi,%rbx)
	popq	%rbx
	.cfi_remember_state
	.cfi_def_cfa_offset 24
	popq	%rbp
	.cfi_def_cfa_offset 16
	popq	%r12
	.cfi_def_cfa_offset 8
	ret
	.p2align 4,,10
	.p2align 3
.L117:
	.cfi_restore_state
	movzbl	(%r12), %eax
	movb	%al, (%rdi)
	movq	0(%rbp), %rdi
	movq	%rbx, 8(%rbp)
	movb	$0, (%rdi,%rbx)
	popq	%rbx
	.cfi_remember_state
	.cfi_def_cfa_offset 24
	popq	%rbp
	.cfi_def_cfa_offset 16
	popq	%r12
	.cfi_def_cfa_offset 8
	ret
	.p2align 4,,10
	.p2align 3
.L116:
	.cfi_restore_state
	testq	%rbx, %rbx
	js	.L118
	movq	%rbx, %rdi
	addq	$1, %rdi
	js	.L119
	call	_Znwm@PLT
	movq	%rbx, 16(%rbp)
	movq	%rax, 0(%rbp)
	movq	%rax, %rdi
.L102:
	movq	%rbx, %rdx
	movq	%r12, %rsi
	call	memcpy@PLT
	movq	0(%rbp), %rdi
	movq	%rbx, 8(%rbp)
	movb	$0, (%rdi,%rbx)
	popq	%rbx
	.cfi_remember_state
	.cfi_def_cfa_offset 24
	popq	%rbp
	.cfi_def_cfa_offset 16
	popq	%r12
	.cfi_def_cfa_offset 8
	ret
.L115:
	.cfi_restore_state
	leaq	.LC3(%rip), %rdi
	call	_ZSt19__throw_logic_errorPKc@PLT
	.p2align 4,,10
	.p2align 3
.L119:
	call	_ZSt17__throw_bad_allocv@PLT
.L118:
	leaq	.LC4(%rip), %rdi
	call	_ZSt20__throw_length_errorPKc@PLT
	.cfi_endproc
.LFE13881:
	.size	_ZNSt7__cxx1112basic_stringIcSt11char_traitsIcESaIcEE12_M_constructIPcEEvT_S7_St20forward_iterator_tag.isra.0, .-_ZNSt7__cxx1112basic_stringIcSt11char_traitsIcESaIcEE12_M_constructIPcEEvT_S7_St20forward_iterator_tag.isra.0
	.section	.text._ZN10Rigid_body15update_positionER6Engine,"axG",@progbits,_ZN10Rigid_body15update_positionER6Engine,comdat
	.align 2
	.p2align 4
	.weak	_ZN10Rigid_body15update_positionER6Engine
	.type	_ZN10Rigid_body15update_positionER6Engine, @function
_ZN10Rigid_body15update_positionER6Engine:
.LFB12034:
	.cfi_startproc
	endbr64
	pushq	%rbx
	.cfi_def_cfa_offset 16
	.cfi_offset 3, -16
	movq	%rdi, %rbx
	movq	%rsi, %rdi
	call	_ZN6Engine14get_delta_timeEv@PLT
	cmpb	$0, 192(%rbx)
	movss	144(%rbx), %xmm2
	movapd	%xmm0, %xmm3
	jne	.L121
	movss	148(%rbx), %xmm0
.L122:
	cvtss2sd	%xmm2, %xmm2
	mulsd	%xmm3, %xmm2
	cvtss2sd	%xmm0, %xmm0
	pxor	%xmm1, %xmm1
	mulsd	%xmm3, %xmm0
	cvtss2sd	60(%rbx), %xmm1
	addsd	%xmm2, %xmm1
	pxor	%xmm2, %xmm2
	cvtss2sd	64(%rbx), %xmm2
	addsd	%xmm0, %xmm2
	cvtsd2ss	%xmm1, %xmm1
	cvtsd2ss	%xmm2, %xmm2
	unpcklps	%xmm2, %xmm1
	movlps	%xmm1, 60(%rbx)
	popq	%rbx
	.cfi_remember_state
	.cfi_def_cfa_offset 8
	ret
	.p2align 4,,10
	.p2align 3
.L121:
	.cfi_restore_state
	cvtsd2ss	%xmm0, %xmm0
	mulss	196(%rbx), %xmm0
	movss	156(%rbx), %xmm4
	addss	148(%rbx), %xmm0
	comiss	.LC5(%rip), %xmm4
	movss	%xmm0, 148(%rbx)
	jbe	.L122
	movaps	%xmm0, %xmm5
	movaps	%xmm2, %xmm1
	mulss	%xmm0, %xmm5
	mulss	%xmm2, %xmm1
	addss	%xmm5, %xmm1
	comiss	152(%rbx), %xmm1
	jbe	.L122
	mulss	%xmm4, %xmm0
	movaps	%xmm1, %xmm5
	mulss	%xmm2, %xmm4
	rsqrtss	%xmm5, %xmm5
	mulss	%xmm5, %xmm1
	mulss	%xmm5, %xmm1
	mulss	.LC7(%rip), %xmm5
	addss	.LC6(%rip), %xmm1
	mulss	%xmm5, %xmm1
	mulss	%xmm1, %xmm4
	mulss	%xmm1, %xmm0
	movaps	%xmm4, %xmm2
	movss	%xmm4, 144(%rbx)
	movss	%xmm0, 148(%rbx)
	jmp	.L122
	.cfi_endproc
.LFE12034:
	.size	_ZN10Rigid_body15update_positionER6Engine, .-_ZN10Rigid_body15update_positionER6Engine
	.section	.text._ZN7Lemming15update_positionER6Engine,"axG",@progbits,_ZN7Lemming15update_positionER6Engine,comdat
	.align 2
	.p2align 4
	.weak	_ZN7Lemming15update_positionER6Engine
	.type	_ZN7Lemming15update_positionER6Engine, @function
_ZN7Lemming15update_positionER6Engine:
.LFB12085:
	.cfi_startproc
	endbr64
	pushq	%rbx
	.cfi_def_cfa_offset 16
	.cfi_offset 3, -16
	movq	%rdi, %rbx
	movq	%rsi, %rdi
	movl	548(%rbx), %eax
	cmpl	$2, %eax
	je	.L158
	cmpl	$6, %eax
	je	.L135
	cmpl	$1, %eax
	je	.L159
.L134:
	call	_ZN6Engine14get_delta_timeEv@PLT
	cmpb	$0, 192(%rbx)
	movss	144(%rbx), %xmm1
	movapd	%xmm0, %xmm3
	jne	.L143
	movss	148(%rbx), %xmm0
.L144:
	cvtss2sd	%xmm1, %xmm1
	mulsd	%xmm3, %xmm1
	cvtss2sd	%xmm0, %xmm0
	pxor	%xmm2, %xmm2
	mulsd	%xmm3, %xmm0
	cvtss2sd	60(%rbx), %xmm2
	addsd	%xmm1, %xmm2
	pxor	%xmm1, %xmm1
	cvtss2sd	64(%rbx), %xmm1
	addsd	%xmm0, %xmm1
	cvtsd2ss	%xmm2, %xmm2
	movss	%xmm2, 60(%rbx)
	cvtsd2ss	%xmm1, %xmm1
	movss	%xmm1, 64(%rbx)
	popq	%rbx
	.cfi_remember_state
	.cfi_def_cfa_offset 8
	ret
	.p2align 4,,10
	.p2align 3
.L159:
	.cfi_restore_state
	pxor	%xmm0, %xmm0
	movss	156(%rbx), %xmm2
	comiss	.LC5(%rip), %xmm2
	cvtsi2sdl	552(%rbx), %xmm0
	mulsd	.LC0(%rip), %xmm0
	movss	.LC12(%rip), %xmm3
	movss	%xmm3, 148(%rbx)
	cvtsd2ss	%xmm0, %xmm0
	movss	%xmm0, 144(%rbx)
	jbe	.L140
	movaps	%xmm0, %xmm1
	mulss	%xmm0, %xmm1
	addss	.LC11(%rip), %xmm1
	comiss	152(%rbx), %xmm1
	ja	.L160
.L140:
	movb	$0, 200(%rbx)
	jmp	.L134
	.p2align 4,,10
	.p2align 3
.L143:
	cvtsd2ss	%xmm0, %xmm0
	mulss	196(%rbx), %xmm0
	movss	156(%rbx), %xmm4
	addss	148(%rbx), %xmm0
	comiss	.LC5(%rip), %xmm4
	movss	%xmm0, 148(%rbx)
	jbe	.L144
	movaps	%xmm0, %xmm5
	movaps	%xmm1, %xmm2
	mulss	%xmm0, %xmm5
	mulss	%xmm1, %xmm2
	addss	%xmm5, %xmm2
	comiss	152(%rbx), %xmm2
	jbe	.L144
	mulss	%xmm4, %xmm0
	movaps	%xmm2, %xmm5
	mulss	%xmm1, %xmm4
	rsqrtss	%xmm5, %xmm5
	mulss	%xmm5, %xmm2
	mulss	%xmm5, %xmm2
	mulss	.LC7(%rip), %xmm5
	addss	.LC6(%rip), %xmm2
	mulss	%xmm5, %xmm2
	mulss	%xmm2, %xmm4
	mulss	%xmm2, %xmm0
	movaps	%xmm4, %xmm1
	movss	%xmm4, 144(%rbx)
	movss	%xmm0, 148(%rbx)
	jmp	.L144
	.p2align 4,,10
	.p2align 3
.L135:
	movss	156(%rbx), %xmm0
	comiss	.LC5(%rip), %xmm0
	movq	.LC10(%rip), %rax
	movq	%rax, 144(%rbx)
	jbe	.L134
	movss	.LC11(%rip), %xmm1
	comiss	152(%rbx), %xmm1
	jbe	.L134
.L157:
	movss	%xmm0, 148(%rbx)
	jmp	.L134
	.p2align 4,,10
	.p2align 3
.L158:
	movss	156(%rbx), %xmm0
	comiss	.LC5(%rip), %xmm0
	movq	.LC8(%rip), %rax
	movq	%rax, 144(%rbx)
	jbe	.L134
	movss	.LC9(%rip), %xmm1
	comiss	152(%rbx), %xmm1
	jbe	.L134
	jmp	.L157
	.p2align 4,,10
	.p2align 3
.L160:
	mulss	%xmm2, %xmm0
	movaps	%xmm1, %xmm4
	mulss	%xmm3, %xmm2
	rsqrtss	%xmm4, %xmm4
	mulss	%xmm4, %xmm1
	unpcklps	%xmm2, %xmm0
	mulss	%xmm4, %xmm1
	mulss	.LC7(%rip), %xmm4
	addss	.LC6(%rip), %xmm1
	mulss	%xmm4, %xmm1
	shufps	$0xe0, %xmm1, %xmm1
	mulps	%xmm1, %xmm0
	movlps	%xmm0, 144(%rbx)
	jmp	.L140
	.cfi_endproc
.LFE12085:
	.size	_ZN7Lemming15update_positionER6Engine, .-_ZN7Lemming15update_positionER6Engine
	.section	.rodata._ZN13Lemmings_game21on_entity_destructionER6EngineSt10shared_ptrI6EntityE.str1.1,"aMS",@progbits,1
.LC13:
	.string	"Lemming"
	.section	.text._ZN13Lemmings_game21on_entity_destructionER6EngineSt10shared_ptrI6EntityE,"axG",@progbits,_ZN13Lemmings_game21on_entity_destructionER6EngineSt10shared_ptrI6EntityE,comdat
	.align 2
	.p2align 4
	.weak	_ZN13Lemmings_game21on_entity_destructionER6EngineSt10shared_ptrI6EntityE
	.type	_ZN13Lemmings_game21on_entity_destructionER6EngineSt10shared_ptrI6EntityE, @function
_ZN13Lemmings_game21on_entity_destructionER6EngineSt10shared_ptrI6EntityE:
.LFB12167:
	.cfi_startproc
	endbr64
	pushq	%r13
	.cfi_def_cfa_offset 16
	.cfi_offset 13, -16
	pushq	%r12
	.cfi_def_cfa_offset 24
	.cfi_offset 12, -24
	pushq	%rbp
	.cfi_def_cfa_offset 32
	.cfi_offset 6, -32
	pushq	%rbx
	.cfi_def_cfa_offset 40
	.cfi_offset 3, -40
	movq	%rdi, %rbx
	subq	$56, %rsp
	.cfi_def_cfa_offset 96
	movq	(%rdx), %rsi
	movq	%fs:40, %rax
	movq	%rax, 40(%rsp)
	xorl	%eax, %eax
	movq	%rsp, %rdi
	call	_ZNK6Entity15get_entity_nameB5cxx11Ev@PLT
	movq	8(%rsp), %rbp
	movq	(%rsp), %r12
	cmpq	$7, %rbp
	ja	.L179
	testq	%rbp, %rbp
	jne	.L180
	leaq	16(%rsp), %rax
	cmpq	%rax, %r12
	je	.L161
	movq	16(%rsp), %rax
	movq	%r12, %rdi
	leaq	1(%rax), %rsi
	call	_ZdlPvm@PLT
.L161:
	movq	40(%rsp), %rax
	subq	%fs:40, %rax
	jne	.L181
	addq	$56, %rsp
	.cfi_remember_state
	.cfi_def_cfa_offset 40
	popq	%rbx
	.cfi_def_cfa_offset 32
	popq	%rbp
	.cfi_def_cfa_offset 24
	popq	%r12
	.cfi_def_cfa_offset 16
	popq	%r13
	.cfi_def_cfa_offset 8
	ret
	.p2align 4,,10
	.p2align 3
.L179:
	.cfi_restore_state
	movl	$7, %edx
	leaq	.LC13(%rip), %rsi
	movq	%r12, %rdi
	call	memcmp@PLT
	movl	%eax, %r13d
	testl	%eax, %eax
	jne	.L164
	subq	$7, %rbp
	movl	$2147483647, %r13d
	cmpq	$2147483647, %rbp
	jle	.L182
.L164:
	leaq	16(%rsp), %rax
	cmpq	%rax, %r12
	je	.L161
.L169:
	movq	16(%rsp), %rax
	movq	%r12, %rdi
	leaq	1(%rax), %rsi
	call	_ZdlPvm@PLT
.L167:
	testl	%r13d, %r13d
	jne	.L161
	subl	$1, 64(%rbx)
	jmp	.L161
	.p2align 4,,10
	.p2align 3
.L180:
	movq	%rbp, %rdx
	leaq	.LC13(%rip), %rsi
	movq	%r12, %rdi
	call	memcmp@PLT
	movl	%eax, %r13d
	testl	%eax, %eax
	jne	.L164
	subq	$7, %rbp
.L172:
	leaq	16(%rsp), %rax
	movl	%ebp, %r13d
	cmpq	%rax, %r12
	jne	.L169
	jmp	.L167
	.p2align 4,,10
	.p2align 3
.L182:
	cmpq	$-2147483648, %rbp
	jge	.L172
	movl	$-2147483648, %r13d
	jmp	.L164
.L181:
	call	__stack_chk_fail@PLT
	.cfi_endproc
.LFE12167:
	.size	_ZN13Lemmings_game21on_entity_destructionER6EngineSt10shared_ptrI6EntityE, .-_ZN13Lemmings_game21on_entity_destructionER6EngineSt10shared_ptrI6EntityE
	.section	.text._ZNSt23_Sp_counted_ptr_inplaceI10Rigid_bodySaIS0_ELN9__gnu_cxx12_Lock_policyE2EE10_M_disposeEv,"axG",@progbits,_ZNSt23_Sp_counted_ptr_inplaceI10Rigid_bodySaIS0_ELN9__gnu_cxx12_Lock_policyE2EE10_M_disposeEv,comdat
	.align 2
	.p2align 4
	.weak	_ZNSt23_Sp_counted_ptr_inplaceI10Rigid_bodySaIS0_ELN9__gnu_cxx12_Lock_policyE2EE10_M_disposeEv
	.type	_ZNSt23_Sp_counted_ptr_inplaceI10Rigid_bodySaIS0_ELN9__gnu_cxx12_Lock_policyE2EE10_M_disposeEv, @function
_ZNSt23_Sp_counted_ptr_inplaceI10Rigid_bodySaIS0_ELN9__gnu_cxx12_Lock_policyE2EE10_M_disposeEv:
.LFB13790:
	.cfi_startproc
	endbr64
	pushq	%rbp
	.cfi_def_cfa_offset 16
	.cfi_offset 6, -16
	leaq	16+_ZTV6Entity(%rip), %rax
	pushq	%rbx
	.cfi_def_cfa_offset 24
	.cfi_offset 3, -24
	movq	%rdi, %rbx
	subq	$8, %rsp
	.cfi_def_cfa_offset 32
	movq	%rax, 16(%rdi)
	movq	128(%rdi), %rdi
	leaq	144(%rbx), %rax
	cmpq	%rax, %rdi
	je	.L184
	movq	144(%rbx), %rax
	leaq	1(%rax), %rsi
	call	_ZdlPvm@PLT
.L184:
	movq	96(%rbx), %rdi
	leaq	112(%rbx), %rax
	cmpq	%rax, %rdi
	je	.L185
	movq	112(%rbx), %rax
	leaq	1(%rax), %rsi
	call	_ZdlPvm@PLT
.L185:
	movq	48(%rbx), %rbp
	testq	%rbp, %rbp
	je	.L187
	cmpb	$0, __libc_single_threaded(%rip)
	je	.L188
	movl	8(%rbp), %eax
	leal	-1(%rax), %edx
	movl	%edx, 8(%rbp)
.L189:
	cmpl	$1, %eax
	je	.L201
.L187:
	movq	32(%rbx), %rbp
	testq	%rbp, %rbp
	je	.L183
	cmpb	$0, __libc_single_threaded(%rip)
	je	.L195
	movl	8(%rbp), %eax
	leal	-1(%rax), %edx
	movl	%edx, 8(%rbp)
.L196:
	cmpl	$1, %eax
	je	.L202
.L183:
	addq	$8, %rsp
	.cfi_remember_state
	.cfi_def_cfa_offset 24
	popq	%rbx
	.cfi_def_cfa_offset 16
	popq	%rbp
	.cfi_def_cfa_offset 8
	ret
	.p2align 4,,10
	.p2align 3
.L201:
	.cfi_restore_state
	movq	0(%rbp), %rax
	movq	%rbp, %rdi
	call	*16(%rax)
	cmpb	$0, __libc_single_threaded(%rip)
	je	.L191
	movl	12(%rbp), %eax
	leal	-1(%rax), %edx
	movl	%edx, 12(%rbp)
.L192:
	cmpl	$1, %eax
	jne	.L187
	movq	0(%rbp), %rax
	movq	%rbp, %rdi
	call	*24(%rax)
	jmp	.L187
	.p2align 4,,10
	.p2align 3
.L202:
	movq	0(%rbp), %rax
	movq	%rbp, %rdi
	call	*16(%rax)
	cmpb	$0, __libc_single_threaded(%rip)
	je	.L198
	movl	12(%rbp), %eax
	leal	-1(%rax), %edx
	movl	%edx, 12(%rbp)
.L199:
	cmpl	$1, %eax
	jne	.L183
	movq	0(%rbp), %rax
	movq	%rbp, %rdi
	movq	24(%rax), %rax
	addq	$8, %rsp
	.cfi_remember_state
	.cfi_def_cfa_offset 24
	popq	%rbx
	.cfi_def_cfa_offset 16
	popq	%rbp
	.cfi_def_cfa_offset 8
	jmp	*%rax
	.p2align 4,,10
	.p2align 3
.L195:
	.cfi_restore_state
	movl	$-1, %eax
	lock xaddl	%eax, 8(%rbp)
	jmp	.L196
	.p2align 4,,10
	.p2align 3
.L188:
	movl	$-1, %eax
	lock xaddl	%eax, 8(%rbp)
	jmp	.L189
	.p2align 4,,10
	.p2align 3
.L191:
	movl	$-1, %eax
	lock xaddl	%eax, 12(%rbp)
	jmp	.L192
	.p2align 4,,10
	.p2align 3
.L198:
	movl	$-1, %eax
	lock xaddl	%eax, 12(%rbp)
	jmp	.L199
	.cfi_endproc
.LFE13790:
	.size	_ZNSt23_Sp_counted_ptr_inplaceI10Rigid_bodySaIS0_ELN9__gnu_cxx12_Lock_policyE2EE10_M_disposeEv, .-_ZNSt23_Sp_counted_ptr_inplaceI10Rigid_bodySaIS0_ELN9__gnu_cxx12_Lock_policyE2EE10_M_disposeEv
	.section	.text._ZNSt23_Sp_counted_ptr_inplaceI4GateSaIS0_ELN9__gnu_cxx12_Lock_policyE2EE10_M_disposeEv,"axG",@progbits,_ZNSt23_Sp_counted_ptr_inplaceI4GateSaIS0_ELN9__gnu_cxx12_Lock_policyE2EE10_M_disposeEv,comdat
	.align 2
	.p2align 4
	.weak	_ZNSt23_Sp_counted_ptr_inplaceI4GateSaIS0_ELN9__gnu_cxx12_Lock_policyE2EE10_M_disposeEv
	.type	_ZNSt23_Sp_counted_ptr_inplaceI4GateSaIS0_ELN9__gnu_cxx12_Lock_policyE2EE10_M_disposeEv, @function
_ZNSt23_Sp_counted_ptr_inplaceI4GateSaIS0_ELN9__gnu_cxx12_Lock_policyE2EE10_M_disposeEv:
.LFB13776:
	.cfi_startproc
	endbr64
	pushq	%rbp
	.cfi_def_cfa_offset 16
	.cfi_offset 6, -16
	leaq	16+_ZTV9Structure(%rip), %rax
	pushq	%rbx
	.cfi_def_cfa_offset 24
	.cfi_offset 3, -24
	movq	%rdi, %rbx
	subq	$8, %rsp
	.cfi_def_cfa_offset 32
	movq	%rax, 16(%rdi)
	movq	168(%rdi), %rdi
	leaq	184(%rbx), %rax
	cmpq	%rax, %rdi
	je	.L204
	movq	184(%rbx), %rax
	leaq	1(%rax), %rsi
	call	_ZdlPvm@PLT
.L204:
	leaq	16+_ZTV6Entity(%rip), %rax
	movq	128(%rbx), %rdi
	movq	%rax, 16(%rbx)
	leaq	144(%rbx), %rax
	cmpq	%rax, %rdi
	je	.L205
	movq	144(%rbx), %rax
	leaq	1(%rax), %rsi
	call	_ZdlPvm@PLT
.L205:
	movq	96(%rbx), %rdi
	leaq	112(%rbx), %rax
	cmpq	%rax, %rdi
	je	.L206
	movq	112(%rbx), %rax
	leaq	1(%rax), %rsi
	call	_ZdlPvm@PLT
.L206:
	movq	48(%rbx), %rbp
	testq	%rbp, %rbp
	je	.L208
	cmpb	$0, __libc_single_threaded(%rip)
	je	.L209
	movl	8(%rbp), %eax
	leal	-1(%rax), %edx
	movl	%edx, 8(%rbp)
.L210:
	cmpl	$1, %eax
	je	.L222
.L208:
	movq	32(%rbx), %rbp
	testq	%rbp, %rbp
	je	.L203
	cmpb	$0, __libc_single_threaded(%rip)
	je	.L216
	movl	8(%rbp), %eax
	leal	-1(%rax), %edx
	movl	%edx, 8(%rbp)
.L217:
	cmpl	$1, %eax
	je	.L223
.L203:
	addq	$8, %rsp
	.cfi_remember_state
	.cfi_def_cfa_offset 24
	popq	%rbx
	.cfi_def_cfa_offset 16
	popq	%rbp
	.cfi_def_cfa_offset 8
	ret
	.p2align 4,,10
	.p2align 3
.L222:
	.cfi_restore_state
	movq	0(%rbp), %rax
	movq	%rbp, %rdi
	call	*16(%rax)
	cmpb	$0, __libc_single_threaded(%rip)
	je	.L212
	movl	12(%rbp), %eax
	leal	-1(%rax), %edx
	movl	%edx, 12(%rbp)
.L213:
	cmpl	$1, %eax
	jne	.L208
	movq	0(%rbp), %rax
	movq	%rbp, %rdi
	call	*24(%rax)
	jmp	.L208
	.p2align 4,,10
	.p2align 3
.L223:
	movq	0(%rbp), %rax
	movq	%rbp, %rdi
	call	*16(%rax)
	cmpb	$0, __libc_single_threaded(%rip)
	je	.L219
	movl	12(%rbp), %eax
	leal	-1(%rax), %edx
	movl	%edx, 12(%rbp)
.L220:
	cmpl	$1, %eax
	jne	.L203
	movq	0(%rbp), %rax
	movq	%rbp, %rdi
	movq	24(%rax), %rax
	addq	$8, %rsp
	.cfi_remember_state
	.cfi_def_cfa_offset 24
	popq	%rbx
	.cfi_def_cfa_offset 16
	popq	%rbp
	.cfi_def_cfa_offset 8
	jmp	*%rax
	.p2align 4,,10
	.p2align 3
.L216:
	.cfi_restore_state
	movl	$-1, %eax
	lock xaddl	%eax, 8(%rbp)
	jmp	.L217
	.p2align 4,,10
	.p2align 3
.L209:
	movl	$-1, %eax
	lock xaddl	%eax, 8(%rbp)
	jmp	.L210
	.p2align 4,,10
	.p2align 3
.L212:
	movl	$-1, %eax
	lock xaddl	%eax, 12(%rbp)
	jmp	.L213
	.p2align 4,,10
	.p2align 3
.L219:
	movl	$-1, %eax
	lock xaddl	%eax, 12(%rbp)
	jmp	.L220
	.cfi_endproc
.LFE13776:
	.size	_ZNSt23_Sp_counted_ptr_inplaceI4GateSaIS0_ELN9__gnu_cxx12_Lock_policyE2EE10_M_disposeEv, .-_ZNSt23_Sp_counted_ptr_inplaceI4GateSaIS0_ELN9__gnu_cxx12_Lock_policyE2EE10_M_disposeEv
	.section	.text._ZNSt23_Sp_counted_ptr_inplaceI6LiquidSaIS0_ELN9__gnu_cxx12_Lock_policyE2EE10_M_disposeEv,"axG",@progbits,_ZNSt23_Sp_counted_ptr_inplaceI6LiquidSaIS0_ELN9__gnu_cxx12_Lock_policyE2EE10_M_disposeEv,comdat
	.align 2
	.p2align 4
	.weak	_ZNSt23_Sp_counted_ptr_inplaceI6LiquidSaIS0_ELN9__gnu_cxx12_Lock_policyE2EE10_M_disposeEv
	.type	_ZNSt23_Sp_counted_ptr_inplaceI6LiquidSaIS0_ELN9__gnu_cxx12_Lock_policyE2EE10_M_disposeEv, @function
_ZNSt23_Sp_counted_ptr_inplaceI6LiquidSaIS0_ELN9__gnu_cxx12_Lock_policyE2EE10_M_disposeEv:
.LFB13769:
	.cfi_startproc
	endbr64
	pushq	%rbp
	.cfi_def_cfa_offset 16
	.cfi_offset 6, -16
	leaq	16+_ZTV9Structure(%rip), %rax
	pushq	%rbx
	.cfi_def_cfa_offset 24
	.cfi_offset 3, -24
	movq	%rdi, %rbx
	subq	$8, %rsp
	.cfi_def_cfa_offset 32
	movq	%rax, 16(%rdi)
	movq	168(%rdi), %rdi
	leaq	184(%rbx), %rax
	cmpq	%rax, %rdi
	je	.L225
	movq	184(%rbx), %rax
	leaq	1(%rax), %rsi
	call	_ZdlPvm@PLT
.L225:
	leaq	16+_ZTV6Entity(%rip), %rax
	movq	128(%rbx), %rdi
	movq	%rax, 16(%rbx)
	leaq	144(%rbx), %rax
	cmpq	%rax, %rdi
	je	.L226
	movq	144(%rbx), %rax
	leaq	1(%rax), %rsi
	call	_ZdlPvm@PLT
.L226:
	movq	96(%rbx), %rdi
	leaq	112(%rbx), %rax
	cmpq	%rax, %rdi
	je	.L227
	movq	112(%rbx), %rax
	leaq	1(%rax), %rsi
	call	_ZdlPvm@PLT
.L227:
	movq	48(%rbx), %rbp
	testq	%rbp, %rbp
	je	.L229
	cmpb	$0, __libc_single_threaded(%rip)
	je	.L230
	movl	8(%rbp), %eax
	leal	-1(%rax), %edx
	movl	%edx, 8(%rbp)
.L231:
	cmpl	$1, %eax
	je	.L243
.L229:
	movq	32(%rbx), %rbp
	testq	%rbp, %rbp
	je	.L224
	cmpb	$0, __libc_single_threaded(%rip)
	je	.L237
	movl	8(%rbp), %eax
	leal	-1(%rax), %edx
	movl	%edx, 8(%rbp)
.L238:
	cmpl	$1, %eax
	je	.L244
.L224:
	addq	$8, %rsp
	.cfi_remember_state
	.cfi_def_cfa_offset 24
	popq	%rbx
	.cfi_def_cfa_offset 16
	popq	%rbp
	.cfi_def_cfa_offset 8
	ret
	.p2align 4,,10
	.p2align 3
.L243:
	.cfi_restore_state
	movq	0(%rbp), %rax
	movq	%rbp, %rdi
	call	*16(%rax)
	cmpb	$0, __libc_single_threaded(%rip)
	je	.L233
	movl	12(%rbp), %eax
	leal	-1(%rax), %edx
	movl	%edx, 12(%rbp)
.L234:
	cmpl	$1, %eax
	jne	.L229
	movq	0(%rbp), %rax
	movq	%rbp, %rdi
	call	*24(%rax)
	jmp	.L229
	.p2align 4,,10
	.p2align 3
.L244:
	movq	0(%rbp), %rax
	movq	%rbp, %rdi
	call	*16(%rax)
	cmpb	$0, __libc_single_threaded(%rip)
	je	.L240
	movl	12(%rbp), %eax
	leal	-1(%rax), %edx
	movl	%edx, 12(%rbp)
.L241:
	cmpl	$1, %eax
	jne	.L224
	movq	0(%rbp), %rax
	movq	%rbp, %rdi
	movq	24(%rax), %rax
	addq	$8, %rsp
	.cfi_remember_state
	.cfi_def_cfa_offset 24
	popq	%rbx
	.cfi_def_cfa_offset 16
	popq	%rbp
	.cfi_def_cfa_offset 8
	jmp	*%rax
	.p2align 4,,10
	.p2align 3
.L237:
	.cfi_restore_state
	movl	$-1, %eax
	lock xaddl	%eax, 8(%rbp)
	jmp	.L238
	.p2align 4,,10
	.p2align 3
.L230:
	movl	$-1, %eax
	lock xaddl	%eax, 8(%rbp)
	jmp	.L231
	.p2align 4,,10
	.p2align 3
.L233:
	movl	$-1, %eax
	lock xaddl	%eax, 12(%rbp)
	jmp	.L234
	.p2align 4,,10
	.p2align 3
.L240:
	movl	$-1, %eax
	lock xaddl	%eax, 12(%rbp)
	jmp	.L241
	.cfi_endproc
.LFE13769:
	.size	_ZNSt23_Sp_counted_ptr_inplaceI6LiquidSaIS0_ELN9__gnu_cxx12_Lock_policyE2EE10_M_disposeEv, .-_ZNSt23_Sp_counted_ptr_inplaceI6LiquidSaIS0_ELN9__gnu_cxx12_Lock_policyE2EE10_M_disposeEv
	.section	.text._ZNSt23_Sp_counted_ptr_inplaceI4DoorSaIS0_ELN9__gnu_cxx12_Lock_policyE2EE10_M_disposeEv,"axG",@progbits,_ZNSt23_Sp_counted_ptr_inplaceI4DoorSaIS0_ELN9__gnu_cxx12_Lock_policyE2EE10_M_disposeEv,comdat
	.align 2
	.p2align 4
	.weak	_ZNSt23_Sp_counted_ptr_inplaceI4DoorSaIS0_ELN9__gnu_cxx12_Lock_policyE2EE10_M_disposeEv
	.type	_ZNSt23_Sp_counted_ptr_inplaceI4DoorSaIS0_ELN9__gnu_cxx12_Lock_policyE2EE10_M_disposeEv, @function
_ZNSt23_Sp_counted_ptr_inplaceI4DoorSaIS0_ELN9__gnu_cxx12_Lock_policyE2EE10_M_disposeEv:
.LFB13783:
	.cfi_startproc
	endbr64
	pushq	%rbp
	.cfi_def_cfa_offset 16
	.cfi_offset 6, -16
	leaq	16+_ZTV9Structure(%rip), %rax
	pushq	%rbx
	.cfi_def_cfa_offset 24
	.cfi_offset 3, -24
	movq	%rdi, %rbx
	subq	$8, %rsp
	.cfi_def_cfa_offset 32
	movq	%rax, 16(%rdi)
	movq	168(%rdi), %rdi
	leaq	184(%rbx), %rax
	cmpq	%rax, %rdi
	je	.L246
	movq	184(%rbx), %rax
	leaq	1(%rax), %rsi
	call	_ZdlPvm@PLT
.L246:
	leaq	16+_ZTV6Entity(%rip), %rax
	movq	128(%rbx), %rdi
	movq	%rax, 16(%rbx)
	leaq	144(%rbx), %rax
	cmpq	%rax, %rdi
	je	.L247
	movq	144(%rbx), %rax
	leaq	1(%rax), %rsi
	call	_ZdlPvm@PLT
.L247:
	movq	96(%rbx), %rdi
	leaq	112(%rbx), %rax
	cmpq	%rax, %rdi
	je	.L248
	movq	112(%rbx), %rax
	leaq	1(%rax), %rsi
	call	_ZdlPvm@PLT
.L248:
	movq	48(%rbx), %rbp
	testq	%rbp, %rbp
	je	.L250
	cmpb	$0, __libc_single_threaded(%rip)
	je	.L251
	movl	8(%rbp), %eax
	leal	-1(%rax), %edx
	movl	%edx, 8(%rbp)
.L252:
	cmpl	$1, %eax
	je	.L264
.L250:
	movq	32(%rbx), %rbp
	testq	%rbp, %rbp
	je	.L245
	cmpb	$0, __libc_single_threaded(%rip)
	je	.L258
	movl	8(%rbp), %eax
	leal	-1(%rax), %edx
	movl	%edx, 8(%rbp)
.L259:
	cmpl	$1, %eax
	je	.L265
.L245:
	addq	$8, %rsp
	.cfi_remember_state
	.cfi_def_cfa_offset 24
	popq	%rbx
	.cfi_def_cfa_offset 16
	popq	%rbp
	.cfi_def_cfa_offset 8
	ret
	.p2align 4,,10
	.p2align 3
.L264:
	.cfi_restore_state
	movq	0(%rbp), %rax
	movq	%rbp, %rdi
	call	*16(%rax)
	cmpb	$0, __libc_single_threaded(%rip)
	je	.L254
	movl	12(%rbp), %eax
	leal	-1(%rax), %edx
	movl	%edx, 12(%rbp)
.L255:
	cmpl	$1, %eax
	jne	.L250
	movq	0(%rbp), %rax
	movq	%rbp, %rdi
	call	*24(%rax)
	jmp	.L250
	.p2align 4,,10
	.p2align 3
.L265:
	movq	0(%rbp), %rax
	movq	%rbp, %rdi
	call	*16(%rax)
	cmpb	$0, __libc_single_threaded(%rip)
	je	.L261
	movl	12(%rbp), %eax
	leal	-1(%rax), %edx
	movl	%edx, 12(%rbp)
.L262:
	cmpl	$1, %eax
	jne	.L245
	movq	0(%rbp), %rax
	movq	%rbp, %rdi
	movq	24(%rax), %rax
	addq	$8, %rsp
	.cfi_remember_state
	.cfi_def_cfa_offset 24
	popq	%rbx
	.cfi_def_cfa_offset 16
	popq	%rbp
	.cfi_def_cfa_offset 8
	jmp	*%rax
	.p2align 4,,10
	.p2align 3
.L258:
	.cfi_restore_state
	movl	$-1, %eax
	lock xaddl	%eax, 8(%rbp)
	jmp	.L259
	.p2align 4,,10
	.p2align 3
.L251:
	movl	$-1, %eax
	lock xaddl	%eax, 8(%rbp)
	jmp	.L252
	.p2align 4,,10
	.p2align 3
.L254:
	movl	$-1, %eax
	lock xaddl	%eax, 12(%rbp)
	jmp	.L255
	.p2align 4,,10
	.p2align 3
.L261:
	movl	$-1, %eax
	lock xaddl	%eax, 12(%rbp)
	jmp	.L262
	.cfi_endproc
.LFE13783:
	.size	_ZNSt23_Sp_counted_ptr_inplaceI4DoorSaIS0_ELN9__gnu_cxx12_Lock_policyE2EE10_M_disposeEv, .-_ZNSt23_Sp_counted_ptr_inplaceI4DoorSaIS0_ELN9__gnu_cxx12_Lock_policyE2EE10_M_disposeEv
	.section	.text._ZNSt23_Sp_counted_ptr_inplaceI7LemmingSaIS0_ELN9__gnu_cxx12_Lock_policyE2EE10_M_disposeEv,"axG",@progbits,_ZNSt23_Sp_counted_ptr_inplaceI7LemmingSaIS0_ELN9__gnu_cxx12_Lock_policyE2EE10_M_disposeEv,comdat
	.align 2
	.p2align 4
	.weak	_ZNSt23_Sp_counted_ptr_inplaceI7LemmingSaIS0_ELN9__gnu_cxx12_Lock_policyE2EE10_M_disposeEv
	.type	_ZNSt23_Sp_counted_ptr_inplaceI7LemmingSaIS0_ELN9__gnu_cxx12_Lock_policyE2EE10_M_disposeEv, @function
_ZNSt23_Sp_counted_ptr_inplaceI7LemmingSaIS0_ELN9__gnu_cxx12_Lock_policyE2EE10_M_disposeEv:
.LFB13804:
	.cfi_startproc
	endbr64
	pushq	%rbp
	.cfi_def_cfa_offset 16
	.cfi_offset 6, -16
	leaq	16+_ZTV7Lemming(%rip), %rax
	pushq	%rbx
	.cfi_def_cfa_offset 24
	.cfi_offset 3, -24
	movq	%rdi, %rbx
	subq	$8, %rsp
	.cfi_def_cfa_offset 32
	movq	%rax, 16(%rdi)
	movq	352(%rdi), %rdi
	leaq	368(%rbx), %rax
	cmpq	%rax, %rdi
	je	.L267
	movq	368(%rbx), %rax
	leaq	1(%rax), %rsi
	call	_ZdlPvm@PLT
.L267:
	movq	328(%rbx), %rbp
	testq	%rbp, %rbp
	je	.L269
	cmpb	$0, __libc_single_threaded(%rip)
	je	.L270
	movl	8(%rbp), %eax
	leal	-1(%rax), %edx
	movl	%edx, 8(%rbp)
.L271:
	cmpl	$1, %eax
	je	.L327
.L269:
	movq	312(%rbx), %rbp
	testq	%rbp, %rbp
	je	.L276
	cmpb	$0, __libc_single_threaded(%rip)
	je	.L277
	movl	8(%rbp), %eax
	leal	-1(%rax), %edx
	movl	%edx, 8(%rbp)
.L278:
	cmpl	$1, %eax
	je	.L328
.L276:
	movq	288(%rbx), %rbp
	testq	%rbp, %rbp
	je	.L283
	cmpb	$0, __libc_single_threaded(%rip)
	je	.L284
	movl	8(%rbp), %eax
	leal	-1(%rax), %edx
	movl	%edx, 8(%rbp)
.L285:
	cmpl	$1, %eax
	je	.L329
.L283:
	movq	272(%rbx), %rbp
	testq	%rbp, %rbp
	je	.L290
	cmpb	$0, __libc_single_threaded(%rip)
	je	.L291
	movl	8(%rbp), %eax
	leal	-1(%rax), %edx
	movl	%edx, 8(%rbp)
.L292:
	cmpl	$1, %eax
	je	.L330
.L290:
	movq	248(%rbx), %rbp
	testq	%rbp, %rbp
	je	.L297
	cmpb	$0, __libc_single_threaded(%rip)
	je	.L298
	movl	8(%rbp), %eax
	leal	-1(%rax), %edx
	movl	%edx, 8(%rbp)
.L299:
	cmpl	$1, %eax
	je	.L331
.L297:
	movq	232(%rbx), %rbp
	testq	%rbp, %rbp
	je	.L304
	cmpb	$0, __libc_single_threaded(%rip)
	je	.L305
	movl	8(%rbp), %eax
	leal	-1(%rax), %edx
	movl	%edx, 8(%rbp)
.L306:
	cmpl	$1, %eax
	je	.L332
.L304:
	leaq	16+_ZTV6Entity(%rip), %rax
	movq	128(%rbx), %rdi
	movq	%rax, 16(%rbx)
	leaq	144(%rbx), %rax
	cmpq	%rax, %rdi
	je	.L310
	movq	144(%rbx), %rax
	leaq	1(%rax), %rsi
	call	_ZdlPvm@PLT
.L310:
	movq	96(%rbx), %rdi
	leaq	112(%rbx), %rax
	cmpq	%rax, %rdi
	je	.L311
	movq	112(%rbx), %rax
	leaq	1(%rax), %rsi
	call	_ZdlPvm@PLT
.L311:
	movq	48(%rbx), %rbp
	testq	%rbp, %rbp
	je	.L313
	cmpb	$0, __libc_single_threaded(%rip)
	je	.L314
	movl	8(%rbp), %eax
	leal	-1(%rax), %edx
	movl	%edx, 8(%rbp)
.L315:
	cmpl	$1, %eax
	je	.L333
.L313:
	movq	32(%rbx), %rbp
	testq	%rbp, %rbp
	je	.L266
	cmpb	$0, __libc_single_threaded(%rip)
	je	.L321
	movl	8(%rbp), %eax
	leal	-1(%rax), %edx
	movl	%edx, 8(%rbp)
.L322:
	cmpl	$1, %eax
	je	.L334
.L266:
	addq	$8, %rsp
	.cfi_remember_state
	.cfi_def_cfa_offset 24
	popq	%rbx
	.cfi_def_cfa_offset 16
	popq	%rbp
	.cfi_def_cfa_offset 8
	ret
	.p2align 4,,10
	.p2align 3
.L327:
	.cfi_restore_state
	movq	0(%rbp), %rax
	movq	%rbp, %rdi
	call	*16(%rax)
	cmpb	$0, __libc_single_threaded(%rip)
	je	.L273
	movl	12(%rbp), %eax
	leal	-1(%rax), %edx
	movl	%edx, 12(%rbp)
.L274:
	cmpl	$1, %eax
	jne	.L269
	movq	0(%rbp), %rax
	movq	%rbp, %rdi
	call	*24(%rax)
	jmp	.L269
	.p2align 4,,10
	.p2align 3
.L328:
	movq	0(%rbp), %rax
	movq	%rbp, %rdi
	call	*16(%rax)
	cmpb	$0, __libc_single_threaded(%rip)
	je	.L280
	movl	12(%rbp), %eax
	leal	-1(%rax), %edx
	movl	%edx, 12(%rbp)
.L281:
	cmpl	$1, %eax
	jne	.L276
	movq	0(%rbp), %rax
	movq	%rbp, %rdi
	call	*24(%rax)
	jmp	.L276
	.p2align 4,,10
	.p2align 3
.L329:
	movq	0(%rbp), %rax
	movq	%rbp, %rdi
	call	*16(%rax)
	cmpb	$0, __libc_single_threaded(%rip)
	je	.L287
	movl	12(%rbp), %eax
	leal	-1(%rax), %edx
	movl	%edx, 12(%rbp)
.L288:
	cmpl	$1, %eax
	jne	.L283
	movq	0(%rbp), %rax
	movq	%rbp, %rdi
	call	*24(%rax)
	jmp	.L283
	.p2align 4,,10
	.p2align 3
.L330:
	movq	0(%rbp), %rax
	movq	%rbp, %rdi
	call	*16(%rax)
	cmpb	$0, __libc_single_threaded(%rip)
	je	.L294
	movl	12(%rbp), %eax
	leal	-1(%rax), %edx
	movl	%edx, 12(%rbp)
.L295:
	cmpl	$1, %eax
	jne	.L290
	movq	0(%rbp), %rax
	movq	%rbp, %rdi
	call	*24(%rax)
	jmp	.L290
	.p2align 4,,10
	.p2align 3
.L331:
	movq	0(%rbp), %rax
	movq	%rbp, %rdi
	call	*16(%rax)
	cmpb	$0, __libc_single_threaded(%rip)
	je	.L301
	movl	12(%rbp), %eax
	leal	-1(%rax), %edx
	movl	%edx, 12(%rbp)
.L302:
	cmpl	$1, %eax
	jne	.L297
	movq	0(%rbp), %rax
	movq	%rbp, %rdi
	call	*24(%rax)
	jmp	.L297
	.p2align 4,,10
	.p2align 3
.L333:
	movq	0(%rbp), %rax
	movq	%rbp, %rdi
	call	*16(%rax)
	cmpb	$0, __libc_single_threaded(%rip)
	je	.L317
	movl	12(%rbp), %eax
	leal	-1(%rax), %edx
	movl	%edx, 12(%rbp)
.L318:
	cmpl	$1, %eax
	jne	.L313
	movq	0(%rbp), %rax
	movq	%rbp, %rdi
	call	*24(%rax)
	jmp	.L313
	.p2align 4,,10
	.p2align 3
.L332:
	movq	0(%rbp), %rax
	movq	%rbp, %rdi
	call	*16(%rax)
	cmpb	$0, __libc_single_threaded(%rip)
	je	.L308
	movl	12(%rbp), %eax
	leal	-1(%rax), %edx
	movl	%edx, 12(%rbp)
.L309:
	cmpl	$1, %eax
	jne	.L304
	movq	0(%rbp), %rax
	movq	%rbp, %rdi
	call	*24(%rax)
	jmp	.L304
	.p2align 4,,10
	.p2align 3
.L334:
	movq	0(%rbp), %rax
	movq	%rbp, %rdi
	call	*16(%rax)
	cmpb	$0, __libc_single_threaded(%rip)
	je	.L324
	movl	12(%rbp), %eax
	leal	-1(%rax), %edx
	movl	%edx, 12(%rbp)
.L325:
	cmpl	$1, %eax
	jne	.L266
	movq	0(%rbp), %rax
	movq	%rbp, %rdi
	movq	24(%rax), %rax
	addq	$8, %rsp
	.cfi_remember_state
	.cfi_def_cfa_offset 24
	popq	%rbx
	.cfi_def_cfa_offset 16
	popq	%rbp
	.cfi_def_cfa_offset 8
	jmp	*%rax
	.p2align 4,,10
	.p2align 3
.L305:
	.cfi_restore_state
	movl	$-1, %eax
	lock xaddl	%eax, 8(%rbp)
	jmp	.L306
	.p2align 4,,10
	.p2align 3
.L277:
	movl	$-1, %eax
	lock xaddl	%eax, 8(%rbp)
	jmp	.L278
	.p2align 4,,10
	.p2align 3
.L284:
	movl	$-1, %eax
	lock xaddl	%eax, 8(%rbp)
	jmp	.L285
	.p2align 4,,10
	.p2align 3
.L321:
	movl	$-1, %eax
	lock xaddl	%eax, 8(%rbp)
	jmp	.L322
	.p2align 4,,10
	.p2align 3
.L270:
	movl	$-1, %eax
	lock xaddl	%eax, 8(%rbp)
	jmp	.L271
	.p2align 4,,10
	.p2align 3
.L291:
	movl	$-1, %eax
	lock xaddl	%eax, 8(%rbp)
	jmp	.L292
	.p2align 4,,10
	.p2align 3
.L298:
	movl	$-1, %eax
	lock xaddl	%eax, 8(%rbp)
	jmp	.L299
	.p2align 4,,10
	.p2align 3
.L314:
	movl	$-1, %eax
	lock xaddl	%eax, 8(%rbp)
	jmp	.L315
	.p2align 4,,10
	.p2align 3
.L273:
	movl	$-1, %eax
	lock xaddl	%eax, 12(%rbp)
	jmp	.L274
	.p2align 4,,10
	.p2align 3
.L324:
	movl	$-1, %eax
	lock xaddl	%eax, 12(%rbp)
	jmp	.L325
	.p2align 4,,10
	.p2align 3
.L280:
	movl	$-1, %eax
	lock xaddl	%eax, 12(%rbp)
	jmp	.L281
	.p2align 4,,10
	.p2align 3
.L287:
	movl	$-1, %eax
	lock xaddl	%eax, 12(%rbp)
	jmp	.L288
	.p2align 4,,10
	.p2align 3
.L294:
	movl	$-1, %eax
	lock xaddl	%eax, 12(%rbp)
	jmp	.L295
	.p2align 4,,10
	.p2align 3
.L317:
	movl	$-1, %eax
	lock xaddl	%eax, 12(%rbp)
	jmp	.L318
	.p2align 4,,10
	.p2align 3
.L301:
	movl	$-1, %eax
	lock xaddl	%eax, 12(%rbp)
	jmp	.L302
	.p2align 4,,10
	.p2align 3
.L308:
	movl	$-1, %eax
	lock xaddl	%eax, 12(%rbp)
	jmp	.L309
	.cfi_endproc
.LFE13804:
	.size	_ZNSt23_Sp_counted_ptr_inplaceI7LemmingSaIS0_ELN9__gnu_cxx12_Lock_policyE2EE10_M_disposeEv, .-_ZNSt23_Sp_counted_ptr_inplaceI7LemmingSaIS0_ELN9__gnu_cxx12_Lock_policyE2EE10_M_disposeEv
	.section	.text._ZN7TextureD2Ev,"axG",@progbits,_ZN7TextureD5Ev,comdat
	.align 2
	.p2align 4
	.weak	_ZN7TextureD2Ev
	.type	_ZN7TextureD2Ev, @function
_ZN7TextureD2Ev:
.LFB11982:
	.cfi_startproc
	endbr64
	pushq	%rbp
	.cfi_def_cfa_offset 16
	.cfi_offset 6, -16
	pushq	%rbx
	.cfi_def_cfa_offset 24
	.cfi_offset 3, -24
	movq	%rdi, %rbx
	subq	$8, %rsp
	.cfi_def_cfa_offset 32
	movq	24(%rdi), %rbp
	testq	%rbp, %rbp
	je	.L337
	cmpb	$0, __libc_single_threaded(%rip)
	je	.L338
	movl	8(%rbp), %eax
	leal	-1(%rax), %edx
	movl	%edx, 8(%rbp)
.L339:
	cmpl	$1, %eax
	je	.L351
.L337:
	movq	8(%rbx), %rbp
	testq	%rbp, %rbp
	je	.L335
	cmpb	$0, __libc_single_threaded(%rip)
	je	.L345
	movl	8(%rbp), %eax
	leal	-1(%rax), %edx
	movl	%edx, 8(%rbp)
.L346:
	cmpl	$1, %eax
	je	.L352
.L335:
	addq	$8, %rsp
	.cfi_remember_state
	.cfi_def_cfa_offset 24
	popq	%rbx
	.cfi_def_cfa_offset 16
	popq	%rbp
	.cfi_def_cfa_offset 8
	ret
	.p2align 4,,10
	.p2align 3
.L351:
	.cfi_restore_state
	movq	0(%rbp), %rax
	movq	%rbp, %rdi
	call	*16(%rax)
	cmpb	$0, __libc_single_threaded(%rip)
	je	.L341
	movl	12(%rbp), %eax
	leal	-1(%rax), %edx
	movl	%edx, 12(%rbp)
.L342:
	cmpl	$1, %eax
	jne	.L337
	movq	0(%rbp), %rax
	movq	%rbp, %rdi
	call	*24(%rax)
	jmp	.L337
	.p2align 4,,10
	.p2align 3
.L352:
	movq	0(%rbp), %rax
	movq	%rbp, %rdi
	call	*16(%rax)
	cmpb	$0, __libc_single_threaded(%rip)
	je	.L348
	movl	12(%rbp), %eax
	leal	-1(%rax), %edx
	movl	%edx, 12(%rbp)
.L349:
	cmpl	$1, %eax
	jne	.L335
	movq	0(%rbp), %rax
	movq	%rbp, %rdi
	movq	24(%rax), %rax
	addq	$8, %rsp
	.cfi_remember_state
	.cfi_def_cfa_offset 24
	popq	%rbx
	.cfi_def_cfa_offset 16
	popq	%rbp
	.cfi_def_cfa_offset 8
	jmp	*%rax
	.p2align 4,,10
	.p2align 3
.L345:
	.cfi_restore_state
	movl	$-1, %eax
	lock xaddl	%eax, 8(%rbp)
	jmp	.L346
	.p2align 4,,10
	.p2align 3
.L338:
	movl	$-1, %eax
	lock xaddl	%eax, 8(%rbp)
	jmp	.L339
	.p2align 4,,10
	.p2align 3
.L341:
	movl	$-1, %eax
	lock xaddl	%eax, 12(%rbp)
	jmp	.L342
	.p2align 4,,10
	.p2align 3
.L348:
	movl	$-1, %eax
	lock xaddl	%eax, 12(%rbp)
	jmp	.L349
	.cfi_endproc
.LFE11982:
	.size	_ZN7TextureD2Ev, .-_ZN7TextureD2Ev
	.weak	_ZN7TextureD1Ev
	.set	_ZN7TextureD1Ev,_ZN7TextureD2Ev
	.section	.text._ZN6EntityD2Ev,"axG",@progbits,_ZN6EntityD5Ev,comdat
	.align 2
	.p2align 4
	.weak	_ZN6EntityD2Ev
	.type	_ZN6EntityD2Ev, @function
_ZN6EntityD2Ev:
.LFB11985:
	.cfi_startproc
	endbr64
	pushq	%rbp
	.cfi_def_cfa_offset 16
	.cfi_offset 6, -16
	leaq	16+_ZTV6Entity(%rip), %rax
	pushq	%rbx
	.cfi_def_cfa_offset 24
	.cfi_offset 3, -24
	movq	%rdi, %rbx
	subq	$8, %rsp
	.cfi_def_cfa_offset 32
	movq	%rax, (%rdi)
	movq	112(%rdi), %rdi
	leaq	128(%rbx), %rax
	cmpq	%rax, %rdi
	je	.L354
	movq	128(%rbx), %rax
	leaq	1(%rax), %rsi
	call	_ZdlPvm@PLT
.L354:
	movq	80(%rbx), %rdi
	leaq	96(%rbx), %rax
	cmpq	%rax, %rdi
	je	.L355
	movq	96(%rbx), %rax
	leaq	1(%rax), %rsi
	call	_ZdlPvm@PLT
.L355:
	movq	32(%rbx), %rbp
	testq	%rbp, %rbp
	je	.L357
	cmpb	$0, __libc_single_threaded(%rip)
	je	.L358
	movl	8(%rbp), %eax
	leal	-1(%rax), %edx
	movl	%edx, 8(%rbp)
.L359:
	cmpl	$1, %eax
	je	.L371
.L357:
	movq	16(%rbx), %rbp
	testq	%rbp, %rbp
	je	.L353
	cmpb	$0, __libc_single_threaded(%rip)
	je	.L365
	movl	8(%rbp), %eax
	leal	-1(%rax), %edx
	movl	%edx, 8(%rbp)
.L366:
	cmpl	$1, %eax
	je	.L372
.L353:
	addq	$8, %rsp
	.cfi_remember_state
	.cfi_def_cfa_offset 24
	popq	%rbx
	.cfi_def_cfa_offset 16
	popq	%rbp
	.cfi_def_cfa_offset 8
	ret
	.p2align 4,,10
	.p2align 3
.L371:
	.cfi_restore_state
	movq	0(%rbp), %rax
	movq	%rbp, %rdi
	call	*16(%rax)
	cmpb	$0, __libc_single_threaded(%rip)
	je	.L361
	movl	12(%rbp), %eax
	leal	-1(%rax), %edx
	movl	%edx, 12(%rbp)
.L362:
	cmpl	$1, %eax
	jne	.L357
	movq	0(%rbp), %rax
	movq	%rbp, %rdi
	call	*24(%rax)
	jmp	.L357
	.p2align 4,,10
	.p2align 3
.L372:
	movq	0(%rbp), %rax
	movq	%rbp, %rdi
	call	*16(%rax)
	cmpb	$0, __libc_single_threaded(%rip)
	je	.L368
	movl	12(%rbp), %eax
	leal	-1(%rax), %edx
	movl	%edx, 12(%rbp)
.L369:
	cmpl	$1, %eax
	jne	.L353
	movq	0(%rbp), %rax
	movq	%rbp, %rdi
	movq	24(%rax), %rax
	addq	$8, %rsp
	.cfi_remember_state
	.cfi_def_cfa_offset 24
	popq	%rbx
	.cfi_def_cfa_offset 16
	popq	%rbp
	.cfi_def_cfa_offset 8
	jmp	*%rax
	.p2align 4,,10
	.p2align 3
.L365:
	.cfi_restore_state
	movl	$-1, %eax
	lock xaddl	%eax, 8(%rbp)
	jmp	.L366
	.p2align 4,,10
	.p2align 3
.L358:
	movl	$-1, %eax
	lock xaddl	%eax, 8(%rbp)
	jmp	.L359
	.p2align 4,,10
	.p2align 3
.L361:
	movl	$-1, %eax
	lock xaddl	%eax, 12(%rbp)
	jmp	.L362
	.p2align 4,,10
	.p2align 3
.L368:
	movl	$-1, %eax
	lock xaddl	%eax, 12(%rbp)
	jmp	.L369
	.cfi_endproc
.LFE11985:
	.size	_ZN6EntityD2Ev, .-_ZN6EntityD2Ev
	.weak	_ZN6EntityD1Ev
	.set	_ZN6EntityD1Ev,_ZN6EntityD2Ev
	.section	.text._ZN6EngineD2Ev,"axG",@progbits,_ZN6EngineD5Ev,comdat
	.align 2
	.p2align 4
	.weak	_ZN6EngineD2Ev
	.type	_ZN6EngineD2Ev, @function
_ZN6EngineD2Ev:
.LFB12176:
	.cfi_startproc
	endbr64
	pushq	%r13
	.cfi_def_cfa_offset 16
	.cfi_offset 13, -16
	pushq	%r12
	.cfi_def_cfa_offset 24
	.cfi_offset 12, -24
	pushq	%rbp
	.cfi_def_cfa_offset 32
	.cfi_offset 6, -32
	pushq	%rbx
	.cfi_def_cfa_offset 40
	.cfi_offset 3, -40
	movq	%rdi, %rbx
	subq	$8, %rsp
	.cfi_def_cfa_offset 48
	movq	168(%rdi), %r13
	movq	160(%rdi), %rbp
	cmpq	%rbp, %r13
	jne	.L382
	jmp	.L374
	.p2align 4,,10
	.p2align 3
.L376:
	addq	$16, %rbp
	cmpq	%rbp, %r13
	je	.L429
.L382:
	movq	8(%rbp), %r12
	testq	%r12, %r12
	je	.L376
	cmpb	$0, __libc_single_threaded(%rip)
	je	.L377
	movl	8(%r12), %eax
	leal	-1(%rax), %edx
	movl	%edx, 8(%r12)
.L378:
	cmpl	$1, %eax
	jne	.L376
	movq	(%r12), %rax
	movq	%r12, %rdi
	call	*16(%rax)
	cmpb	$0, __libc_single_threaded(%rip)
	je	.L380
	movl	12(%r12), %eax
	leal	-1(%rax), %edx
	movl	%edx, 12(%r12)
.L381:
	cmpl	$1, %eax
	jne	.L376
	movq	(%r12), %rax
	addq	$16, %rbp
	movq	%r12, %rdi
	call	*24(%rax)
	cmpq	%rbp, %r13
	jne	.L382
	.p2align 4,,10
	.p2align 3
.L429:
	movq	160(%rbx), %rbp
.L374:
	testq	%rbp, %rbp
	je	.L383
	movq	176(%rbx), %rsi
	movq	%rbp, %rdi
	subq	%rbp, %rsi
	call	_ZdlPvm@PLT
.L383:
	movq	48(%rbx), %rbp
	testq	%rbp, %rbp
	jne	.L384
	jmp	.L403
	.p2align 4,,10
	.p2align 3
.L388:
	movq	48(%rbp), %r12
	testq	%r12, %r12
	je	.L395
	cmpb	$0, __libc_single_threaded(%rip)
	je	.L396
	movl	8(%r12), %eax
	leal	-1(%rax), %edx
	movl	%edx, 8(%r12)
.L397:
	cmpl	$1, %eax
	je	.L430
.L395:
	movq	8(%rbp), %rdi
	leaq	24(%rbp), %rax
	cmpq	%rax, %rdi
	je	.L401
	movq	24(%rbp), %rax
	leaq	1(%rax), %rsi
	call	_ZdlPvm@PLT
.L401:
	movl	$88, %esi
	movq	%rbp, %rdi
	call	_ZdlPvm@PLT
	testq	%r13, %r13
	je	.L403
	movq	%r13, %rbp
.L384:
	movq	64(%rbp), %r12
	movq	0(%rbp), %r13
	testq	%r12, %r12
	je	.L388
	cmpb	$0, __libc_single_threaded(%rip)
	je	.L389
	movl	8(%r12), %eax
	leal	-1(%rax), %edx
	movl	%edx, 8(%r12)
.L390:
	cmpl	$1, %eax
	jne	.L388
	movq	(%r12), %rax
	movq	%r12, %rdi
	call	*16(%rax)
	cmpb	$0, __libc_single_threaded(%rip)
	je	.L392
	movl	12(%r12), %eax
	leal	-1(%rax), %edx
	movl	%edx, 12(%r12)
.L393:
	cmpl	$1, %eax
	jne	.L388
	movq	(%r12), %rax
	movq	%r12, %rdi
	call	*24(%rax)
	jmp	.L388
	.p2align 4,,10
	.p2align 3
.L377:
	movl	$-1, %eax
	lock xaddl	%eax, 8(%r12)
	jmp	.L378
	.p2align 4,,10
	.p2align 3
.L430:
	movq	(%r12), %rax
	movq	%r12, %rdi
	call	*16(%rax)
	cmpb	$0, __libc_single_threaded(%rip)
	je	.L399
	movl	12(%r12), %eax
	leal	-1(%rax), %edx
	movl	%edx, 12(%r12)
.L400:
	cmpl	$1, %eax
	jne	.L395
	movq	(%r12), %rax
	movq	%r12, %rdi
	call	*24(%rax)
	jmp	.L395
	.p2align 4,,10
	.p2align 3
.L389:
	movl	$-1, %eax
	lock xaddl	%eax, 8(%r12)
	jmp	.L390
	.p2align 4,,10
	.p2align 3
.L396:
	movl	$-1, %eax
	lock xaddl	%eax, 8(%r12)
	jmp	.L397
	.p2align 4,,10
	.p2align 3
.L403:
	movq	40(%rbx), %rax
	movq	32(%rbx), %rdi
	xorl	%esi, %esi
	leaq	0(,%rax,8), %rdx
	call	memset@PLT
	movq	32(%rbx), %rdi
	leaq	80(%rbx), %rax
	movq	$0, 56(%rbx)
	movq	$0, 48(%rbx)
	movq	40(%rbx), %rsi
	cmpq	%rax, %rdi
	je	.L385
	salq	$3, %rsi
	call	_ZdlPvm@PLT
.L385:
	movq	24(%rbx), %rbp
	testq	%rbp, %rbp
	je	.L405
	cmpb	$0, __libc_single_threaded(%rip)
	je	.L406
	movl	8(%rbp), %eax
	leal	-1(%rax), %edx
	movl	%edx, 8(%rbp)
.L407:
	cmpl	$1, %eax
	je	.L431
.L405:
	movq	8(%rbx), %rbp
	testq	%rbp, %rbp
	je	.L373
	cmpb	$0, __libc_single_threaded(%rip)
	je	.L413
	movl	8(%rbp), %eax
	leal	-1(%rax), %edx
	movl	%edx, 8(%rbp)
.L414:
	cmpl	$1, %eax
	je	.L432
.L373:
	addq	$8, %rsp
	.cfi_remember_state
	.cfi_def_cfa_offset 40
	popq	%rbx
	.cfi_def_cfa_offset 32
	popq	%rbp
	.cfi_def_cfa_offset 24
	popq	%r12
	.cfi_def_cfa_offset 16
	popq	%r13
	.cfi_def_cfa_offset 8
	ret
	.p2align 4,,10
	.p2align 3
.L380:
	.cfi_restore_state
	movl	$-1, %eax
	lock xaddl	%eax, 12(%r12)
	jmp	.L381
	.p2align 4,,10
	.p2align 3
.L399:
	movl	$-1, %eax
	lock xaddl	%eax, 12(%r12)
	jmp	.L400
	.p2align 4,,10
	.p2align 3
.L392:
	movl	$-1, %eax
	lock xaddl	%eax, 12(%r12)
	jmp	.L393
	.p2align 4,,10
	.p2align 3
.L431:
	movq	0(%rbp), %rax
	movq	%rbp, %rdi
	call	*16(%rax)
	cmpb	$0, __libc_single_threaded(%rip)
	je	.L409
	movl	12(%rbp), %eax
	leal	-1(%rax), %edx
	movl	%edx, 12(%rbp)
.L410:
	cmpl	$1, %eax
	jne	.L405
	movq	0(%rbp), %rax
	movq	%rbp, %rdi
	call	*24(%rax)
	jmp	.L405
	.p2align 4,,10
	.p2align 3
.L432:
	movq	0(%rbp), %rax
	movq	%rbp, %rdi
	call	*16(%rax)
	cmpb	$0, __libc_single_threaded(%rip)
	je	.L416
	movl	12(%rbp), %eax
	leal	-1(%rax), %edx
	movl	%edx, 12(%rbp)
.L417:
	cmpl	$1, %eax
	jne	.L373
	movq	0(%rbp), %rax
	movq	%rbp, %rdi
	movq	24(%rax), %rax
	addq	$8, %rsp
	.cfi_remember_state
	.cfi_def_cfa_offset 40
	popq	%rbx
	.cfi_def_cfa_offset 32
	popq	%rbp
	.cfi_def_cfa_offset 24
	popq	%r12
	.cfi_def_cfa_offset 16
	popq	%r13
	.cfi_def_cfa_offset 8
	jmp	*%rax
	.p2align 4,,10
	.p2align 3
.L413:
	.cfi_restore_state
	movl	$-1, %eax
	lock xaddl	%eax, 8(%rbp)
	jmp	.L414
	.p2align 4,,10
	.p2align 3
.L406:
	movl	$-1, %eax
	lock xaddl	%eax, 8(%rbp)
	jmp	.L407
.L409:
	movl	$-1, %eax
	lock xaddl	%eax, 12(%rbp)
	jmp	.L410
.L416:
	movl	$-1, %eax
	lock xaddl	%eax, 12(%rbp)
	jmp	.L417
	.cfi_endproc
.LFE12176:
	.size	_ZN6EngineD2Ev, .-_ZN6EngineD2Ev
	.weak	_ZN6EngineD1Ev
	.set	_ZN6EngineD1Ev,_ZN6EngineD2Ev
	.section	.text._ZNSt6vectorISt10shared_ptrI6EntityESaIS2_EED2Ev,"axG",@progbits,_ZNSt6vectorISt10shared_ptrI6EntityESaIS2_EED5Ev,comdat
	.align 2
	.p2align 4
	.weak	_ZNSt6vectorISt10shared_ptrI6EntityESaIS2_EED2Ev
	.type	_ZNSt6vectorISt10shared_ptrI6EntityESaIS2_EED2Ev, @function
_ZNSt6vectorISt10shared_ptrI6EntityESaIS2_EED2Ev:
.LFB12617:
	.cfi_startproc
	endbr64
	pushq	%r13
	.cfi_def_cfa_offset 16
	.cfi_offset 13, -16
	movq	%rdi, %r13
	pushq	%r12
	.cfi_def_cfa_offset 24
	.cfi_offset 12, -24
	pushq	%rbp
	.cfi_def_cfa_offset 32
	.cfi_offset 6, -32
	pushq	%rbx
	.cfi_def_cfa_offset 40
	.cfi_offset 3, -40
	subq	$8, %rsp
	.cfi_def_cfa_offset 48
	movq	8(%rdi), %rbx
	movq	(%rdi), %rbp
	cmpq	%rbp, %rbx
	jne	.L442
	jmp	.L434
	.p2align 4,,10
	.p2align 3
.L436:
	addq	$16, %rbp
	cmpq	%rbp, %rbx
	je	.L446
.L442:
	movq	8(%rbp), %r12
	testq	%r12, %r12
	je	.L436
	cmpb	$0, __libc_single_threaded(%rip)
	je	.L437
	movl	8(%r12), %eax
	leal	-1(%rax), %edx
	movl	%edx, 8(%r12)
.L438:
	cmpl	$1, %eax
	jne	.L436
	movq	(%r12), %rax
	movq	%r12, %rdi
	call	*16(%rax)
	cmpb	$0, __libc_single_threaded(%rip)
	je	.L440
	movl	12(%r12), %eax
	leal	-1(%rax), %edx
	movl	%edx, 12(%r12)
.L441:
	cmpl	$1, %eax
	jne	.L436
	movq	(%r12), %rax
	addq	$16, %rbp
	movq	%r12, %rdi
	call	*24(%rax)
	cmpq	%rbp, %rbx
	jne	.L442
	.p2align 4,,10
	.p2align 3
.L446:
	movq	0(%r13), %rbp
.L434:
	testq	%rbp, %rbp
	je	.L433
	movq	16(%r13), %rsi
	addq	$8, %rsp
	.cfi_remember_state
	.cfi_def_cfa_offset 40
	movq	%rbp, %rdi
	popq	%rbx
	.cfi_def_cfa_offset 32
	subq	%rbp, %rsi
	popq	%rbp
	.cfi_def_cfa_offset 24
	popq	%r12
	.cfi_def_cfa_offset 16
	popq	%r13
	.cfi_def_cfa_offset 8
	jmp	_ZdlPvm@PLT
	.p2align 4,,10
	.p2align 3
.L437:
	.cfi_restore_state
	movl	$-1, %eax
	lock xaddl	%eax, 8(%r12)
	jmp	.L438
	.p2align 4,,10
	.p2align 3
.L440:
	movl	$-1, %eax
	lock xaddl	%eax, 12(%r12)
	jmp	.L441
	.p2align 4,,10
	.p2align 3
.L433:
	addq	$8, %rsp
	.cfi_def_cfa_offset 40
	popq	%rbx
	.cfi_def_cfa_offset 32
	popq	%rbp
	.cfi_def_cfa_offset 24
	popq	%r12
	.cfi_def_cfa_offset 16
	popq	%r13
	.cfi_def_cfa_offset 8
	ret
	.cfi_endproc
.LFE12617:
	.size	_ZNSt6vectorISt10shared_ptrI6EntityESaIS2_EED2Ev, .-_ZNSt6vectorISt10shared_ptrI6EntityESaIS2_EED2Ev
	.weak	_ZNSt6vectorISt10shared_ptrI6EntityESaIS2_EED1Ev
	.set	_ZNSt6vectorISt10shared_ptrI6EntityESaIS2_EED1Ev,_ZNSt6vectorISt10shared_ptrI6EntityESaIS2_EED2Ev
	.section	.text._ZN13Lemmings_gameC2Ev,"axG",@progbits,_ZN13Lemmings_gameC5Ev,comdat
	.align 2
	.p2align 4
	.weak	_ZN13Lemmings_gameC2Ev
	.type	_ZN13Lemmings_gameC2Ev, @function
_ZN13Lemmings_gameC2Ev:
.LFB12125:
	.cfi_startproc
	endbr64
	leaq	48(%rdi), %rax
	movq	$0, 8(%rdi)
	movq	%rax, 32(%rdi)
	movabsq	$8315736636049417548, %rax
	movq	%rax, 48(%rdi)
	leaq	16+_ZTV13Lemmings_game(%rip), %rax
	movq	%rax, (%rdi)
	movq	.LC14(%rip), %rax
	movq	$0, 16(%rdi)
	movq	$0, 24(%rdi)
	movq	$8, 40(%rdi)
	movb	$0, 56(%rdi)
	movq	%rax, 64(%rdi)
	movl	$0x00000000, 72(%rdi)
	ret
	.cfi_endproc
.LFE12125:
	.size	_ZN13Lemmings_gameC2Ev, .-_ZN13Lemmings_gameC2Ev
	.weak	_ZN13Lemmings_gameC1Ev
	.set	_ZN13Lemmings_gameC1Ev,_ZN13Lemmings_gameC2Ev
	.section	.rodata.str1.1
.LC15:
	.string	"Error: "
	.section	.text.unlikely,"ax",@progbits
.LCOLDB16:
	.section	.text.startup,"ax",@progbits
.LHOTB16:
	.p2align 4
	.globl	main
	.type	main, @function
main:
.LFB12168:
	.cfi_startproc
	.cfi_personality 0x9b,DW.ref.__gxx_personality_v0
	.cfi_lsda 0x1b,.LLSDA12168
	endbr64
	pushq	%r12
	.cfi_def_cfa_offset 16
	.cfi_offset 12, -16
	movl	$80, %edi
	pushq	%rbp
	.cfi_def_cfa_offset 24
	.cfi_offset 6, -24
	pushq	%rbx
	.cfi_def_cfa_offset 32
	.cfi_offset 3, -32
	subq	$208, %rsp
	.cfi_def_cfa_offset 240
	movq	%fs:40, %rax
	movq	%rax, 200(%rsp)
	xorl	%eax, %eax
.LEHB3:
	call	_Znwm@PLT
	movq	%rax, %rbp
	movq	%rax, %rdi
	movq	%rsp, %r12
	call	_ZN13Lemmings_gameC1Ev
	movq	%rbp, %rsi
	movq	%r12, %rdi
	call	_ZN6EngineC1EP4Game@PLT
.LEHE3:
	movq	%r12, %rdi
.LEHB4:
	call	_ZN6Engine5startEv@PLT
.LEHE4:
	movq	%r12, %rdi
	call	_ZN6EngineD1Ev
.L452:
	movq	200(%rsp), %rax
	subq	%fs:40, %rax
	jne	.L460
	addq	$208, %rsp
	.cfi_remember_state
	.cfi_def_cfa_offset 32
	xorl	%eax, %eax
	popq	%rbx
	.cfi_def_cfa_offset 24
	popq	%rbp
	.cfi_def_cfa_offset 16
	popq	%r12
	.cfi_def_cfa_offset 8
	ret
.L460:
	.cfi_restore_state
	call	__stack_chk_fail@PLT
.L456:
	endbr64
	movq	%rax, %rbp
	movq	%rdx, %rbx
	jmp	.L449
.L455:
	endbr64
	movq	%rax, %rdi
	movq	%rdx, %rax
	jmp	.L450
	.section	.gcc_except_table,"a",@progbits
	.align 4
.LLSDA12168:
	.byte	0xff
	.byte	0x9b
	.uleb128 .LLSDATT12168-.LLSDATTD12168
.LLSDATTD12168:
	.byte	0x1
	.uleb128 .LLSDACSE12168-.LLSDACSB12168
.LLSDACSB12168:
	.uleb128 .LEHB3-.LFB12168
	.uleb128 .LEHE3-.LEHB3
	.uleb128 .L455-.LFB12168
	.uleb128 0x1
	.uleb128 .LEHB4-.LFB12168
	.uleb128 .LEHE4-.LEHB4
	.uleb128 .L456-.LFB12168
	.uleb128 0x3
.LLSDACSE12168:
	.byte	0x1
	.byte	0
	.byte	0
	.byte	0x7d
	.align 4
	.long	DW.ref._ZTISt9exception-.
.LLSDATT12168:
	.section	.text.startup
	.cfi_endproc
	.section	.text.unlikely
	.cfi_startproc
	.cfi_personality 0x9b,DW.ref.__gxx_personality_v0
	.cfi_lsda 0x1b,.LLSDAC12168
	.type	main.cold, @function
main.cold:
.LFSB12168:
.L449:
	.cfi_def_cfa_offset 240
	.cfi_offset 3, -32
	.cfi_offset 6, -24
	.cfi_offset 12, -16
	movq	%r12, %rdi
	call	_ZN6EngineD1Ev
	movq	%rbp, %rdi
	movq	%rbx, %rax
.L450:
	subq	$1, %rax
	jne	.L461
	call	__cxa_begin_catch@PLT
	leaq	_ZSt4cout(%rip), %r12
	movl	$7, %edx
	leaq	.LC15(%rip), %rsi
	movq	%r12, %rdi
	movq	%rax, %rbp
.LEHB5:
	call	_ZSt16__ostream_insertIcSt11char_traitsIcEERSt13basic_ostreamIT_T0_ES6_PKS3_l@PLT
	movq	0(%rbp), %rax
	movq	%rbp, %rdi
	call	*16(%rax)
	movq	%r12, %rdi
	movq	%rax, %rsi
	call	_ZStlsISt11char_traitsIcEERSt13basic_ostreamIcT_ES5_PKc@PLT
	movq	%rax, %rdi
	movq	%rsp, %rsi
	movl	$1, %edx
	movb	$10, (%rsp)
	call	_ZSt16__ostream_insertIcSt11char_traitsIcEERSt13basic_ostreamIT_T0_ES6_PKS3_l@PLT
.LEHE5:
	call	__cxa_end_catch@PLT
	jmp	.L452
.L461:
.LEHB6:
	call	_Unwind_Resume@PLT
.L457:
	endbr64
	movq	%rax, %rbp
	call	__cxa_end_catch@PLT
	movq	%rbp, %rdi
	call	_Unwind_Resume@PLT
.LEHE6:
	.cfi_endproc
.LFE12168:
	.section	.gcc_except_table
	.align 4
.LLSDAC12168:
	.byte	0xff
	.byte	0x9b
	.uleb128 .LLSDATTC12168-.LLSDATTDC12168
.LLSDATTDC12168:
	.byte	0x1
	.uleb128 .LLSDACSEC12168-.LLSDACSBC12168
.LLSDACSBC12168:
	.uleb128 .LEHB5-.LCOLDB16
	.uleb128 .LEHE5-.LEHB5
	.uleb128 .L457-.LCOLDB16
	.uleb128 0
	.uleb128 .LEHB6-.LCOLDB16
	.uleb128 .LEHE6-.LEHB6
	.uleb128 0
	.uleb128 0
.LLSDACSEC12168:
	.byte	0x1
	.byte	0
	.byte	0
	.byte	0x7d
	.align 4
	.long	DW.ref._ZTISt9exception-.
.LLSDATTC12168:
	.section	.text.unlikely
	.section	.text.startup
	.size	main, .-main
	.section	.text.unlikely
	.size	main.cold, .-main.cold
.LCOLDE16:
	.section	.text.startup
.LHOTE16:
	.section	.text._ZNSt16_Sp_counted_baseILN9__gnu_cxx12_Lock_policyE2EE10_M_releaseEv,"axG",@progbits,_ZNSt16_Sp_counted_baseILN9__gnu_cxx12_Lock_policyE2EE10_M_releaseEv,comdat
	.align 2
	.p2align 4
	.weak	_ZNSt16_Sp_counted_baseILN9__gnu_cxx12_Lock_policyE2EE10_M_releaseEv
	.type	_ZNSt16_Sp_counted_baseILN9__gnu_cxx12_Lock_policyE2EE10_M_releaseEv, @function
_ZNSt16_Sp_counted_baseILN9__gnu_cxx12_Lock_policyE2EE10_M_releaseEv:
.LFB12868:
	.cfi_startproc
	endbr64
	cmpb	$0, __libc_single_threaded(%rip)
	pushq	%rbp
	.cfi_def_cfa_offset 16
	.cfi_offset 6, -16
	movq	%rdi, %rbp
	je	.L463
	movl	8(%rdi), %eax
	leal	-1(%rax), %edx
	movl	%edx, 8(%rdi)
.L464:
	cmpl	$1, %eax
	je	.L471
.L462:
	popq	%rbp
	.cfi_remember_state
	.cfi_def_cfa_offset 8
	ret
	.p2align 4,,10
	.p2align 3
.L471:
	.cfi_restore_state
	movq	0(%rbp), %rax
	movq	%rbp, %rdi
	call	*16(%rax)
	cmpb	$0, __libc_single_threaded(%rip)
	je	.L467
	movl	12(%rbp), %eax
	leal	-1(%rax), %edx
	movl	%edx, 12(%rbp)
.L468:
	cmpl	$1, %eax
	jne	.L462
	movq	0(%rbp), %rax
	movq	%rbp, %rdi
	popq	%rbp
	.cfi_remember_state
	.cfi_def_cfa_offset 8
	movq	24(%rax), %rax
	jmp	*%rax
	.p2align 4,,10
	.p2align 3
.L463:
	.cfi_restore_state
	movl	$-1, %eax
	lock xaddl	%eax, 8(%rdi)
	jmp	.L464
	.p2align 4,,10
	.p2align 3
.L467:
	movl	$-1, %eax
	lock xaddl	%eax, 12(%rbp)
	jmp	.L468
	.cfi_endproc
.LFE12868:
	.size	_ZNSt16_Sp_counted_baseILN9__gnu_cxx12_Lock_policyE2EE10_M_releaseEv, .-_ZNSt16_Sp_counted_baseILN9__gnu_cxx12_Lock_policyE2EE10_M_releaseEv
	.section	.text.unlikely
	.align 2
.LCOLDB19:
	.text
.LHOTB19:
	.align 2
	.p2align 4
	.type	_ZN10Rigid_body8distanceER6Engine3RaySt10shared_ptrI6EntityERfS6_S6_.isra.0, @function
_ZN10Rigid_body8distanceER6Engine3RaySt10shared_ptrI6EntityERfS6_S6_.isra.0:
.LFB13896:
	.cfi_startproc
	.cfi_personality 0x9b,DW.ref.__gxx_personality_v0
	.cfi_lsda 0x1b,.LLSDA13896
	pushq	%r15
	.cfi_def_cfa_offset 16
	.cfi_offset 15, -16
	pushq	%r14
	.cfi_def_cfa_offset 24
	.cfi_offset 14, -24
	movq	%rdi, %r14
	pushq	%r13
	.cfi_def_cfa_offset 32
	.cfi_offset 13, -32
	movq	%r8, %r13
	pushq	%r12
	.cfi_def_cfa_offset 40
	.cfi_offset 12, -40
	movq	%rcx, %r12
	pushq	%rbp
	.cfi_def_cfa_offset 48
	.cfi_offset 6, -48
	movq	%rsi, %rbp
	pushq	%rbx
	.cfi_def_cfa_offset 56
	.cfi_offset 3, -56
	movq	%rdx, %rbx
	subq	$72, %rsp
	.cfi_def_cfa_offset 128
	movdqu	(%rdx), %xmm3
	movq	%r9, 8(%rsp)
	movq	%fs:40, %rax
	movq	%rax, 56(%rsp)
	movq	8(%rdx), %rax
	movaps	%xmm3, 32(%rsp)
	testq	%rax, %rax
	je	.L473
	cmpb	$0, __libc_single_threaded(%rip)
	je	.L474
	addl	$1, 8(%rax)
.L473:
	leaq	32(%rsp), %r15
	movq	%r13, %r8
	movq	%r12, %rcx
	movq	%rbp, %rsi
	movq	%r15, %rdx
	movq	%r14, %rdi
.LEHB7:
	call	_ZN6Engine19intesect_ray_entityER3RaySt10shared_ptrI6EntityERfS5_@PLT
.LEHE7:
	movq	40(%rsp), %rdi
	movl	%eax, %r8d
	testq	%rdi, %rdi
	je	.L476
	cmpb	$0, __libc_single_threaded(%rip)
	je	.L477
	movl	8(%rdi), %eax
	leal	-1(%rax), %edx
	movl	%edx, 8(%rdi)
.L478:
	cmpl	$1, %eax
	je	.L573
.L476:
	testb	%r8b, %r8b
	je	.L482
	pxor	%xmm4, %xmm4
	comiss	0(%r13), %xmm4
	movss	%xmm4, 16(%rsp)
	jnb	.L482
	movq	0(%rbp), %rax
	movq	(%rbx), %rdi
	movq	%r15, %rsi
	movb	%r8b, 31(%rsp)
	movq	%rax, 32(%rsp)
.LEHB8:
	call	_ZNK6Entity8containsE6Point2IfE@PLT
.LEHE8:
	testb	%al, %al
	jne	.L523
	movss	(%r12), %xmm0
	movss	16(%rsp), %xmm6
	movzbl	31(%rsp), %r8d
	comiss	%xmm0, %xmm6
	ja	.L527
	movq	8(%rsp), %rax
	movss	%xmm0, (%rax)
.L522:
	movdqu	(%rbx), %xmm6
	movq	8(%rbx), %rax
	movaps	%xmm6, 32(%rsp)
	testq	%rax, %rax
	je	.L485
	cmpb	$0, __libc_single_threaded(%rip)
	je	.L486
	addl	$1, 8(%rax)
.L485:
	movss	0(%r13), %xmm1
	movq	%r15, %rcx
	pxor	%xmm0, %xmm0
	movq	%r13, %rdx
	movq	%rbp, %rsi
	movq	%r14, %rdi
.LEHB9:
	call	_ZNK6Engine19ray_march_alpha_endER3RayRfffSt10shared_ptrI6EntityE@PLT
.LEHE9:
	movq	40(%rsp), %r13
	testq	%r13, %r13
	je	.L488
	cmpb	$0, __libc_single_threaded(%rip)
	je	.L489
	movl	8(%r13), %eax
	leal	-1(%rax), %edx
	movl	%edx, 8(%r13)
.L490:
	cmpl	$1, %eax
	jne	.L488
	movq	0(%r13), %rax
	movq	%r13, %rdi
	call	*16(%rax)
	cmpb	$0, __libc_single_threaded(%rip)
	je	.L492
	movl	12(%r13), %eax
	leal	-1(%rax), %edx
	movl	%edx, 12(%r13)
.L493:
	cmpl	$1, %eax
	jne	.L488
	movq	0(%r13), %rax
	movq	%r13, %rdi
	call	*24(%rax)
	.p2align 4,,10
	.p2align 3
.L488:
	movss	(%r12), %xmm1
	movss	16(%rsp), %xmm2
	movdqu	(%rbx), %xmm0
	comiss	%xmm1, %xmm2
	movhlps	%xmm0, %xmm7
	movq	%xmm7, %rax
	ja	.L574
	movaps	%xmm0, 32(%rsp)
	testq	%rax, %rax
	je	.L505
	cmpb	$0, __libc_single_threaded(%rip)
	je	.L506
	addl	$1, 8(%rax)
.L505:
	movq	%r15, %rcx
	pxor	%xmm0, %xmm0
	movq	%r12, %rdx
	movq	%rbp, %rsi
	movq	%r14, %rdi
.LEHB10:
	call	_ZNK6Engine19ray_march_alpha_endER3RayRfffSt10shared_ptrI6EntityE@PLT
.LEHE10:
	movq	40(%rsp), %rbp
	testq	%rbp, %rbp
	je	.L508
	cmpb	$0, __libc_single_threaded(%rip)
	je	.L509
	movl	8(%rbp), %eax
	leal	-1(%rax), %edx
	movl	%edx, 8(%rbp)
.L510:
	cmpl	$1, %eax
	je	.L575
.L508:
	movl	$1, %r8d
	jmp	.L472
	.p2align 4,,10
	.p2align 3
.L482:
	movq	0(%rbp), %rax
	movq	(%rbx), %rdi
	movq	%r15, %rsi
	movq	%rax, 32(%rsp)
.LEHB11:
	call	_ZNK6Entity8containsE6Point2IfE@PLT
.LEHE11:
	movl	%eax, %r8d
	testb	%al, %al
	je	.L576
	movq	8(%rsp), %rax
	xorl	%r8d, %r8d
	movl	$0x00000000, (%rax)
.L472:
	movq	56(%rsp), %rax
	subq	%fs:40, %rax
	jne	.L577
	addq	$72, %rsp
	.cfi_remember_state
	.cfi_def_cfa_offset 56
	movl	%r8d, %eax
	popq	%rbx
	.cfi_def_cfa_offset 48
	popq	%rbp
	.cfi_def_cfa_offset 40
	popq	%r12
	.cfi_def_cfa_offset 32
	popq	%r13
	.cfi_def_cfa_offset 24
	popq	%r14
	.cfi_def_cfa_offset 16
	popq	%r15
	.cfi_def_cfa_offset 8
	ret
	.p2align 4,,10
	.p2align 3
.L576:
	.cfi_restore_state
	movss	(%r12), %xmm0
	pxor	%xmm5, %xmm5
	movss	%xmm5, 16(%rsp)
	comiss	%xmm0, %xmm5
	ja	.L527
	movq	8(%rsp), %rax
	movss	%xmm0, (%rax)
	jmp	.L472
	.p2align 4,,10
	.p2align 3
.L474:
	lock addl	$1, 8(%rax)
	jmp	.L473
	.p2align 4,,10
	.p2align 3
.L527:
	movss	0(%r13), %xmm0
	movq	8(%rsp), %rax
	movss	%xmm0, (%rax)
	testb	%r8b, %r8b
	je	.L472
	jmp	.L522
	.p2align 4,,10
	.p2align 3
.L573:
	movq	(%rdi), %rax
	movb	%r8b, 31(%rsp)
	movq	%rdi, 16(%rsp)
	call	*16(%rax)
	cmpb	$0, __libc_single_threaded(%rip)
	movq	16(%rsp), %rdi
	movzbl	31(%rsp), %r8d
	je	.L480
	movl	12(%rdi), %eax
	leal	-1(%rax), %edx
	movl	%edx, 12(%rdi)
.L481:
	cmpl	$1, %eax
	jne	.L476
	movq	(%rdi), %rax
	movb	%r8b, 16(%rsp)
	call	*24(%rax)
	movzbl	16(%rsp), %r8d
	jmp	.L476
	.p2align 4,,10
	.p2align 3
.L477:
	movl	$-1, %eax
	lock xaddl	%eax, 8(%rdi)
	jmp	.L478
	.p2align 4,,10
	.p2align 3
.L523:
	movq	8(%rsp), %rax
	movl	$0x00000000, (%rax)
	jmp	.L522
	.p2align 4,,10
	.p2align 3
.L574:
	movq	12(%rbp), %xmm2
	movss	20(%rbp), %xmm1
	movaps	%xmm0, 32(%rsp)
	movq	.LC18(%rip), %xmm7
	xorps	.LC17(%rip), %xmm1
	xorps	%xmm7, %xmm2
	movss	%xmm1, 20(%rbp)
	movlps	%xmm2, 12(%rbp)
	movss	(%r12), %xmm1
	xorps	.LC17(%rip), %xmm1
	movss	%xmm1, (%r12)
	testq	%rax, %rax
	je	.L496
	cmpb	$0, __libc_single_threaded(%rip)
	je	.L497
	addl	$1, 8(%rax)
.L496:
	movq	%r15, %rcx
	pxor	%xmm0, %xmm0
	movq	%r12, %rdx
	movq	%rbp, %rsi
	movq	%r14, %rdi
.LEHB12:
	call	_ZNK6Engine19ray_march_alpha_endER3RayRfffSt10shared_ptrI6EntityE@PLT
.LEHE12:
	movq	40(%rsp), %rbp
	testq	%rbp, %rbp
	je	.L499
	cmpb	$0, __libc_single_threaded(%rip)
	je	.L500
	movl	8(%rbp), %eax
	leal	-1(%rax), %edx
	movl	%edx, 8(%rbp)
.L501:
	cmpl	$1, %eax
	jne	.L499
	movq	0(%rbp), %rax
	movq	%rbp, %rdi
	call	*16(%rax)
	cmpb	$0, __libc_single_threaded(%rip)
	je	.L503
	movl	12(%rbp), %eax
	leal	-1(%rax), %edx
	movl	%edx, 12(%rbp)
.L504:
	cmpl	$1, %eax
	jne	.L499
	movq	0(%rbp), %rax
	movq	%rbp, %rdi
	call	*24(%rax)
	.p2align 4,,10
	.p2align 3
.L499:
	movss	(%r12), %xmm0
	xorps	.LC17(%rip), %xmm0
	movl	$1, %r8d
	movss	%xmm0, (%r12)
	jmp	.L472
	.p2align 4,,10
	.p2align 3
.L486:
	lock addl	$1, 8(%rax)
	jmp	.L485
	.p2align 4,,10
	.p2align 3
.L480:
	movl	$-1, %eax
	lock xaddl	%eax, 12(%rdi)
	jmp	.L481
	.p2align 4,,10
	.p2align 3
.L489:
	movl	$-1, %eax
	lock xaddl	%eax, 8(%r13)
	jmp	.L490
	.p2align 4,,10
	.p2align 3
.L500:
	movl	$-1, %eax
	lock xaddl	%eax, 8(%rbp)
	jmp	.L501
	.p2align 4,,10
	.p2align 3
.L492:
	movl	$-1, %eax
	lock xaddl	%eax, 12(%r13)
	jmp	.L493
	.p2align 4,,10
	.p2align 3
.L506:
	lock addl	$1, 8(%rax)
	movss	(%r12), %xmm1
	jmp	.L505
	.p2align 4,,10
	.p2align 3
.L575:
	movq	0(%rbp), %rax
	movq	%rbp, %rdi
	call	*16(%rax)
	cmpb	$0, __libc_single_threaded(%rip)
	je	.L512
	movl	12(%rbp), %eax
	leal	-1(%rax), %edx
	movl	%edx, 12(%rbp)
.L513:
	cmpl	$1, %eax
	jne	.L508
	movq	0(%rbp), %rax
	movq	%rbp, %rdi
	call	*24(%rax)
	jmp	.L508
	.p2align 4,,10
	.p2align 3
.L509:
	movl	$-1, %eax
	lock xaddl	%eax, 8(%rbp)
	jmp	.L510
	.p2align 4,,10
	.p2align 3
.L497:
	lock addl	$1, 8(%rax)
	movss	(%r12), %xmm1
	jmp	.L496
	.p2align 4,,10
	.p2align 3
.L512:
	movl	$-1, %eax
	lock xaddl	%eax, 12(%rbp)
	jmp	.L513
.L503:
	movl	$-1, %eax
	lock xaddl	%eax, 12(%rbp)
	jmp	.L504
.L577:
	call	__stack_chk_fail@PLT
.L532:
	endbr64
	movq	%rax, %rbp
	jmp	.L518
.L531:
	endbr64
	movq	%rax, %rbp
	jmp	.L520
.L534:
	endbr64
	movq	%rax, %rbp
	jmp	.L514
.L533:
	endbr64
	movq	%rax, %rbp
	jmp	.L516
	.section	.gcc_except_table
.LLSDA13896:
	.byte	0xff
	.byte	0xff
	.byte	0x1
	.uleb128 .LLSDACSE13896-.LLSDACSB13896
.LLSDACSB13896:
	.uleb128 .LEHB7-.LFB13896
	.uleb128 .LEHE7-.LEHB7
	.uleb128 .L534-.LFB13896
	.uleb128 0
	.uleb128 .LEHB8-.LFB13896
	.uleb128 .LEHE8-.LEHB8
	.uleb128 0
	.uleb128 0
	.uleb128 .LEHB9-.LFB13896
	.uleb128 .LEHE9-.LEHB9
	.uleb128 .L533-.LFB13896
	.uleb128 0
	.uleb128 .LEHB10-.LFB13896
	.uleb128 .LEHE10-.LEHB10
	.uleb128 .L531-.LFB13896
	.uleb128 0
	.uleb128 .LEHB11-.LFB13896
	.uleb128 .LEHE11-.LEHB11
	.uleb128 0
	.uleb128 0
	.uleb128 .LEHB12-.LFB13896
	.uleb128 .LEHE12-.LEHB12
	.uleb128 .L532-.LFB13896
	.uleb128 0
.LLSDACSE13896:
	.text
	.cfi_endproc
	.section	.text.unlikely
	.cfi_startproc
	.cfi_personality 0x9b,DW.ref.__gxx_personality_v0
	.cfi_lsda 0x1b,.LLSDAC13896
	.type	_ZN10Rigid_body8distanceER6Engine3RaySt10shared_ptrI6EntityERfS6_S6_.isra.0.cold, @function
_ZN10Rigid_body8distanceER6Engine3RaySt10shared_ptrI6EntityERfS6_S6_.isra.0.cold:
.LFSB13896:
.L518:
	.cfi_def_cfa_offset 128
	.cfi_offset 3, -56
	.cfi_offset 6, -48
	.cfi_offset 12, -40
	.cfi_offset 13, -32
	.cfi_offset 14, -24
	.cfi_offset 15, -16
	movq	40(%rsp), %rdi
	testq	%rdi, %rdi
	je	.L519
	call	_ZNSt16_Sp_counted_baseILN9__gnu_cxx12_Lock_policyE2EE10_M_releaseEv
.L519:
	movq	%rbp, %rdi
.LEHB13:
	call	_Unwind_Resume@PLT
.L520:
	movq	40(%rsp), %rdi
	testq	%rdi, %rdi
	je	.L521
	call	_ZNSt16_Sp_counted_baseILN9__gnu_cxx12_Lock_policyE2EE10_M_releaseEv
.L521:
	movq	%rbp, %rdi
	call	_Unwind_Resume@PLT
.L514:
	movq	40(%rsp), %rdi
	testq	%rdi, %rdi
	je	.L515
	call	_ZNSt16_Sp_counted_baseILN9__gnu_cxx12_Lock_policyE2EE10_M_releaseEv
.L515:
	movq	%rbp, %rdi
	call	_Unwind_Resume@PLT
.L516:
	movq	40(%rsp), %rdi
	testq	%rdi, %rdi
	je	.L517
	call	_ZNSt16_Sp_counted_baseILN9__gnu_cxx12_Lock_policyE2EE10_M_releaseEv
.L517:
	movq	%rbp, %rdi
	call	_Unwind_Resume@PLT
.LEHE13:
	.cfi_endproc
.LFE13896:
	.section	.gcc_except_table
.LLSDAC13896:
	.byte	0xff
	.byte	0xff
	.byte	0x1
	.uleb128 .LLSDACSEC13896-.LLSDACSBC13896
.LLSDACSBC13896:
	.uleb128 .LEHB13-.LCOLDB19
	.uleb128 .LEHE13-.LEHB13
	.uleb128 0
	.uleb128 0
.LLSDACSEC13896:
	.section	.text.unlikely
	.text
	.size	_ZN10Rigid_body8distanceER6Engine3RaySt10shared_ptrI6EntityERfS6_S6_.isra.0, .-_ZN10Rigid_body8distanceER6Engine3RaySt10shared_ptrI6EntityERfS6_S6_.isra.0
	.section	.text.unlikely
	.size	_ZN10Rigid_body8distanceER6Engine3RaySt10shared_ptrI6EntityERfS6_S6_.isra.0.cold, .-_ZN10Rigid_body8distanceER6Engine3RaySt10shared_ptrI6EntityERfS6_S6_.isra.0.cold
.LCOLDE19:
	.text
.LHOTE19:
	.section	.rodata._ZN10Rigid_body12on_collisionER6EngineSt10shared_ptrI6EntityE.str1.1,"aMS",@progbits,1
.LC20:
	.string	"Rigid_body"
	.section	.text._ZN10Rigid_body12on_collisionER6EngineSt10shared_ptrI6EntityE,"axG",@progbits,_ZN10Rigid_body12on_collisionER6EngineSt10shared_ptrI6EntityE,comdat
	.align 2
	.p2align 4
	.weak	_ZN10Rigid_body12on_collisionER6EngineSt10shared_ptrI6EntityE
	.type	_ZN10Rigid_body12on_collisionER6EngineSt10shared_ptrI6EntityE, @function
_ZN10Rigid_body12on_collisionER6EngineSt10shared_ptrI6EntityE:
.LFB12033:
	.cfi_startproc
	.cfi_personality 0x9b,DW.ref.__gxx_personality_v0
	.cfi_lsda 0x1b,.LLSDA12033
	endbr64
	pushq	%r15
	.cfi_def_cfa_offset 16
	.cfi_offset 15, -16
	pxor	%xmm3, %xmm3
	pushq	%r14
	.cfi_def_cfa_offset 24
	.cfi_offset 14, -24
	pushq	%r13
	.cfi_def_cfa_offset 32
	.cfi_offset 13, -32
	pushq	%r12
	.cfi_def_cfa_offset 40
	.cfi_offset 12, -40
	pushq	%rbp
	.cfi_def_cfa_offset 48
	.cfi_offset 6, -48
	pushq	%rbx
	.cfi_def_cfa_offset 56
	.cfi_offset 3, -56
	subq	$216, %rsp
	.cfi_def_cfa_offset 272
	movss	144(%rdi), %xmm0
	movss	148(%rdi), %xmm1
	movq	%fs:40, %rax
	movq	%rax, 200(%rsp)
	xorl	%eax, %eax
	mulss	%xmm0, %xmm0
	mulss	%xmm1, %xmm1
	addss	%xmm1, %xmm0
	comiss	%xmm3, %xmm0
	jne	.L806
.L578:
	movq	200(%rsp), %rax
	subq	%fs:40, %rax
	jne	.L807
	addq	$216, %rsp
	.cfi_remember_state
	.cfi_def_cfa_offset 56
	popq	%rbx
	.cfi_def_cfa_offset 48
	popq	%rbp
	.cfi_def_cfa_offset 40
	popq	%r12
	.cfi_def_cfa_offset 32
	popq	%r13
	.cfi_def_cfa_offset 24
	popq	%r14
	.cfi_def_cfa_offset 16
	popq	%r15
	.cfi_def_cfa_offset 8
	ret
	.p2align 4,,10
	.p2align 3
.L806:
	.cfi_restore_state
	movq	%rsi, %r15
	movq	(%rdx), %rsi
	movq	%rdi, %rbx
	movq	%rdx, %rbp
	leaq	160(%rsp), %rdi
.LEHB14:
	call	_ZNK6Entity9get_classB5cxx11Ev@PLT
.LEHE14:
	movq	168(%rsp), %r12
	movq	160(%rsp), %r13
	cmpq	$10, %r12
	ja	.L808
	testq	%r12, %r12
	jne	.L809
.L584:
	leaq	176(%rsp), %rax
	cmpq	%rax, %r13
	je	.L578
	movq	176(%rsp), %rax
	movq	%r13, %rdi
	leaq	1(%rax), %rsi
	call	_ZdlPvm@PLT
	jmp	.L578
	.p2align 4,,10
	.p2align 3
.L809:
	movq	%r12, %rdx
	leaq	.LC20(%rip), %rsi
	movq	%r13, %rdi
	call	memcmp@PLT
	testl	%eax, %eax
	jne	.L584
	subq	$10, %r12
	jmp	.L715
	.p2align 4,,10
	.p2align 3
.L808:
	movabsq	$8026082370797398354, %rax
	cmpq	%rax, 0(%r13)
	jne	.L584
	cmpw	$31076, 8(%r13)
	jne	.L584
	subq	$10, %r12
	cmpq	$2147483647, %r12
	jg	.L584
	cmpq	$-2147483648, %r12
	jl	.L584
	.p2align 4,,10
	.p2align 3
.L715:
	testl	%r12d, %r12d
	jne	.L584
	leaq	176(%rsp), %rax
	cmpq	%rax, %r13
	jne	.L810
.L589:
	movss	144(%rbx), %xmm6
	movss	148(%rbx), %xmm7
	movq	8(%rbp), %r12
	movq	0(%rbp), %r14
	movss	%xmm6, 56(%rsp)
	movss	%xmm7, 44(%rsp)
	testq	%r12, %r12
	je	.L591
	cmpb	$0, __libc_single_threaded(%rip)
	je	.L592
	addl	$1, 8(%r12)
.L591:
	movq	168(%rbx), %rax
	leaq	112(%rsp), %r13
	movq	%rbx, %rsi
	movq	%r13, %rdx
	movq	%rax, 112(%rsp)
	leaq	88(%rsp), %rax
	movq	%rax, %rdi
	movq	%rax, 24(%rsp)
.LEHB15:
	call	_ZNK6Entity14local_to_worldE6Point2IfE@PLT
.LEHE15:
	movq	%r14, %xmm0
	movq	%r12, %xmm6
	movq	88(%rsp), %rax
	punpcklqdq	%xmm6, %xmm0
	movaps	%xmm0, 96(%rsp)
	testq	%r12, %r12
	je	.L593
	cmpb	$0, __libc_single_threaded(%rip)
	je	.L594
	addl	$1, 8(%r12)
.L593:
	movq	%rax, 112(%rsp)
	leaq	80(%rsp), %r14
	movq	%r13, %rsi
	movq	%r15, %rdi
	movaps	.LC21(%rip), %xmm0
	leaq	96(%rsp), %rax
	leaq	84(%rsp), %r9
	movq	%r14, %r8
	leaq	76(%rsp), %rcx
	movq	%rax, %rdx
	movq	%r9, 16(%rsp)
	movups	%xmm0, 120(%rsp)
	movaps	.LC22(%rip), %xmm0
	movb	$0, 152(%rsp)
	movq	%rcx, 8(%rsp)
	movq	%rax, 32(%rsp)
	movups	%xmm0, 136(%rsp)
.LEHB16:
	call	_ZN10Rigid_body8distanceER6Engine3RaySt10shared_ptrI6EntityERfS6_S6_.isra.0
.LEHE16:
	movq	104(%rsp), %rdi
	testq	%rdi, %rdi
	je	.L596
	cmpb	$0, __libc_single_threaded(%rip)
	je	.L597
	movl	8(%rdi), %edx
	leal	-1(%rdx), %ecx
	movl	%ecx, 8(%rdi)
.L598:
	cmpl	$1, %edx
	je	.L811
.L596:
	testb	%al, %al
	je	.L603
	movsd	.LC23(%rip), %xmm1
	pxor	%xmm0, %xmm0
	cvtss2sd	84(%rsp), %xmm0
	comisd	%xmm0, %xmm1
	jbe	.L603
	testq	%r12, %r12
	je	.L710
.L711:
	cmpb	$0, __libc_single_threaded(%rip)
	je	.L608
	movl	8(%r12), %edx
	leal	-1(%rdx), %ecx
	movl	%ecx, 8(%r12)
.L609:
	cmpl	$1, %edx
	je	.L812
.L611:
	testb	%al, %al
	je	.L615
.L710:
	movss	64(%rbx), %xmm0
	subss	76(%rsp), %xmm0
	movl	$0x00000000, 44(%rsp)
	movss	%xmm0, 64(%rbx)
.L615:
	movq	0(%rbp), %rax
	movq	8(%rbp), %r12
	movq	%rax, 48(%rsp)
	testq	%r12, %r12
	je	.L616
	cmpb	$0, __libc_single_threaded(%rip)
	je	.L617
	addl	$1, 8(%r12)
.L616:
	movq	160(%rbx), %rax
	movq	24(%rsp), %rdi
	movq	%r13, %rdx
	movq	%rbx, %rsi
	movq	%rax, 112(%rsp)
.LEHB17:
	call	_ZNK6Entity14local_to_worldE6Point2IfE@PLT
.LEHE17:
	movq	48(%rsp), %xmm0
	movq	%r12, %xmm7
	movq	88(%rsp), %rax
	punpcklqdq	%xmm7, %xmm0
	movaps	%xmm0, 96(%rsp)
	testq	%r12, %r12
	je	.L618
	cmpb	$0, __libc_single_threaded(%rip)
	je	.L619
	addl	$1, 8(%r12)
.L618:
	movaps	.LC24(%rip), %xmm0
	movq	%r14, %r8
	movq	%r13, %rsi
	movq	%r15, %rdi
	movq	16(%rsp), %r9
	movq	8(%rsp), %rcx
	movq	%rax, 112(%rsp)
	movups	%xmm0, 120(%rsp)
	movq	32(%rsp), %rdx
	movaps	.LC25(%rip), %xmm0
	movb	$0, 152(%rsp)
	movups	%xmm0, 136(%rsp)
.LEHB18:
	call	_ZN10Rigid_body8distanceER6Engine3RaySt10shared_ptrI6EntityERfS6_S6_.isra.0
.LEHE18:
	movq	104(%rsp), %rdi
	testq	%rdi, %rdi
	je	.L621
	cmpb	$0, __libc_single_threaded(%rip)
	je	.L622
	movl	8(%rdi), %edx
	leal	-1(%rdx), %ecx
	movl	%ecx, 8(%rdi)
.L623:
	cmpl	$1, %edx
	je	.L813
.L621:
	testb	%al, %al
	je	.L628
	movsd	.LC23(%rip), %xmm1
	pxor	%xmm0, %xmm0
	cvtss2sd	84(%rsp), %xmm0
	comisd	%xmm0, %xmm1
	jbe	.L628
	testq	%r12, %r12
	je	.L706
.L707:
	cmpb	$0, __libc_single_threaded(%rip)
	je	.L633
	movl	8(%r12), %edx
	leal	-1(%rdx), %ecx
	movl	%ecx, 8(%r12)
.L634:
	cmpl	$1, %edx
	je	.L814
.L636:
	testb	%al, %al
	je	.L640
.L706:
	movss	64(%rbx), %xmm0
	addss	76(%rsp), %xmm0
	movl	$0x00000000, 44(%rsp)
	movss	%xmm0, 64(%rbx)
.L640:
	movq	0(%rbp), %rax
	movq	8(%rbp), %r12
	movq	%rax, 48(%rsp)
	testq	%r12, %r12
	je	.L641
	cmpb	$0, __libc_single_threaded(%rip)
	je	.L642
	addl	$1, 8(%r12)
.L641:
	movq	176(%rbx), %rax
	movq	24(%rsp), %rdi
	movq	%r13, %rdx
	movq	%rbx, %rsi
	movq	%rax, 112(%rsp)
.LEHB19:
	call	_ZNK6Entity14local_to_worldE6Point2IfE@PLT
.LEHE19:
	movq	48(%rsp), %xmm0
	movq	%r12, %xmm6
	movq	88(%rsp), %rax
	punpcklqdq	%xmm6, %xmm0
	movaps	%xmm0, 96(%rsp)
	testq	%r12, %r12
	je	.L643
	cmpb	$0, __libc_single_threaded(%rip)
	je	.L644
	addl	$1, 8(%r12)
.L643:
	movaps	.LC26(%rip), %xmm0
	movq	%r14, %r8
	movq	%r13, %rsi
	movq	%r15, %rdi
	movq	16(%rsp), %r9
	movq	8(%rsp), %rcx
	movq	%rax, 112(%rsp)
	movups	%xmm0, 120(%rsp)
	movq	32(%rsp), %rdx
	movaps	.LC27(%rip), %xmm0
	movb	$0, 152(%rsp)
	movups	%xmm0, 136(%rsp)
.LEHB20:
	call	_ZN10Rigid_body8distanceER6Engine3RaySt10shared_ptrI6EntityERfS6_S6_.isra.0
.LEHE20:
	movq	104(%rsp), %rdi
	testq	%rdi, %rdi
	je	.L646
	cmpb	$0, __libc_single_threaded(%rip)
	je	.L647
	movl	8(%rdi), %edx
	leal	-1(%rdx), %ecx
	movl	%ecx, 8(%rdi)
.L648:
	cmpl	$1, %edx
	je	.L815
.L646:
	testb	%al, %al
	je	.L653
	movsd	.LC23(%rip), %xmm1
	pxor	%xmm0, %xmm0
	cvtss2sd	84(%rsp), %xmm0
	comisd	%xmm0, %xmm1
	jbe	.L653
	testq	%r12, %r12
	je	.L704
.L702:
	cmpb	$0, __libc_single_threaded(%rip)
	je	.L658
	movl	8(%r12), %edx
	leal	-1(%rdx), %ecx
	movl	%ecx, 8(%r12)
.L659:
	cmpl	$1, %edx
	je	.L816
.L661:
	testb	%al, %al
	je	.L665
.L704:
	movss	60(%rbx), %xmm0
	subss	76(%rsp), %xmm0
	movl	$0x00000000, 56(%rsp)
	movss	%xmm0, 60(%rbx)
.L665:
	movq	0(%rbp), %r12
	movq	8(%rbp), %rbp
	testq	%rbp, %rbp
	je	.L666
	cmpb	$0, __libc_single_threaded(%rip)
	je	.L667
	addl	$1, 8(%rbp)
.L666:
	movq	184(%rbx), %rax
	movq	24(%rsp), %rdi
	movq	%r13, %rdx
	movq	%rbx, %rsi
	movq	%rax, 112(%rsp)
.LEHB21:
	call	_ZNK6Entity14local_to_worldE6Point2IfE@PLT
.LEHE21:
	movq	%r12, %xmm0
	movq	%rbp, %xmm7
	movq	88(%rsp), %rax
	punpcklqdq	%xmm7, %xmm0
	movaps	%xmm0, 96(%rsp)
	testq	%rbp, %rbp
	je	.L668
	cmpb	$0, __libc_single_threaded(%rip)
	je	.L669
	addl	$1, 8(%rbp)
.L668:
	movaps	.LC28(%rip), %xmm0
	movq	%r14, %r8
	movq	%r13, %rsi
	movq	%r15, %rdi
	movq	16(%rsp), %r9
	movq	8(%rsp), %rcx
	movq	%rax, 112(%rsp)
	movups	%xmm0, 120(%rsp)
	movq	32(%rsp), %rdx
	movaps	.LC29(%rip), %xmm0
	movb	$0, 152(%rsp)
	movups	%xmm0, 136(%rsp)
.LEHB22:
	call	_ZN10Rigid_body8distanceER6Engine3RaySt10shared_ptrI6EntityERfS6_S6_.isra.0
.LEHE22:
	movq	104(%rsp), %r13
	movl	%eax, %r12d
	testq	%r13, %r13
	je	.L671
	cmpb	$0, __libc_single_threaded(%rip)
	je	.L672
	movl	8(%r13), %eax
	leal	-1(%rax), %edx
	movl	%edx, 8(%r13)
.L673:
	cmpl	$1, %eax
	je	.L817
.L671:
	testb	%r12b, %r12b
	je	.L678
	movsd	.LC23(%rip), %xmm1
	pxor	%xmm0, %xmm0
	cvtss2sd	84(%rsp), %xmm0
	comisd	%xmm0, %xmm1
	jbe	.L678
	testq	%rbp, %rbp
	je	.L698
.L699:
	cmpb	$0, __libc_single_threaded(%rip)
	je	.L683
	movl	8(%rbp), %eax
	leal	-1(%rax), %edx
	movl	%edx, 8(%rbp)
.L684:
	cmpl	$1, %eax
	je	.L818
.L686:
	testb	%r12b, %r12b
	je	.L690
.L698:
	movss	60(%rbx), %xmm0
	addss	76(%rsp), %xmm0
	movl	$0x00000000, 56(%rsp)
	movss	%xmm0, 60(%rbx)
.L690:
	movss	56(%rsp), %xmm5
	pxor	%xmm3, %xmm3
	movss	156(%rbx), %xmm2
	movss	44(%rsp), %xmm4
	comiss	%xmm3, %xmm2
	movaps	%xmm5, %xmm1
	movaps	%xmm2, %xmm0
	unpcklps	%xmm4, %xmm1
	shufps	$0xe0, %xmm0, %xmm0
	movlps	%xmm1, 144(%rbx)
	mulps	%xmm0, %xmm1
	jbe	.L578
	movaps	%xmm5, %xmm0
	movaps	%xmm4, %xmm2
	mulss	%xmm5, %xmm0
	mulss	%xmm4, %xmm2
	addss	%xmm2, %xmm0
	comiss	152(%rbx), %xmm0
	jbe	.L578
	movaps	%xmm0, %xmm2
	rsqrtss	%xmm2, %xmm2
	mulss	%xmm2, %xmm0
	mulss	%xmm2, %xmm0
	mulss	.LC7(%rip), %xmm2
	addss	.LC6(%rip), %xmm0
	mulss	%xmm2, %xmm0
	shufps	$0xe0, %xmm0, %xmm0
	mulps	%xmm1, %xmm0
	movlps	%xmm0, 144(%rbx)
	jmp	.L578
	.p2align 4,,10
	.p2align 3
.L678:
	xorl	%r12d, %r12d
	testq	%rbp, %rbp
	jne	.L699
	jmp	.L690
	.p2align 4,,10
	.p2align 3
.L603:
	xorl	%eax, %eax
	testq	%r12, %r12
	jne	.L711
	jmp	.L615
	.p2align 4,,10
	.p2align 3
.L628:
	xorl	%eax, %eax
	testq	%r12, %r12
	jne	.L707
	jmp	.L640
	.p2align 4,,10
	.p2align 3
.L653:
	xorl	%eax, %eax
	testq	%r12, %r12
	jne	.L702
	jmp	.L665
	.p2align 4,,10
	.p2align 3
.L644:
	lock addl	$1, 8(%r12)
	jmp	.L643
	.p2align 4,,10
	.p2align 3
.L642:
	lock addl	$1, 8(%r12)
	jmp	.L641
	.p2align 4,,10
	.p2align 3
.L667:
	lock addl	$1, 8(%rbp)
	jmp	.L666
	.p2align 4,,10
	.p2align 3
.L669:
	lock addl	$1, 8(%rbp)
	jmp	.L668
	.p2align 4,,10
	.p2align 3
.L617:
	lock addl	$1, 8(%r12)
	jmp	.L616
	.p2align 4,,10
	.p2align 3
.L619:
	lock addl	$1, 8(%r12)
	jmp	.L618
	.p2align 4,,10
	.p2align 3
.L592:
	lock addl	$1, 8(%r12)
	jmp	.L591
	.p2align 4,,10
	.p2align 3
.L594:
	lock addl	$1, 8(%r12)
	jmp	.L593
	.p2align 4,,10
	.p2align 3
.L818:
	movq	0(%rbp), %rax
	movq	%rbp, %rdi
	call	*16(%rax)
	cmpb	$0, __libc_single_threaded(%rip)
	je	.L687
	movl	12(%rbp), %eax
	leal	-1(%rax), %edx
	movl	%edx, 12(%rbp)
.L688:
	cmpl	$1, %eax
	jne	.L686
	movq	0(%rbp), %rax
	movq	%rbp, %rdi
	call	*24(%rax)
	jmp	.L686
	.p2align 4,,10
	.p2align 3
.L817:
	movq	0(%r13), %rax
	movq	%r13, %rdi
	call	*16(%rax)
	cmpb	$0, __libc_single_threaded(%rip)
	je	.L675
	movl	12(%r13), %eax
	leal	-1(%rax), %edx
	movl	%edx, 12(%r13)
.L676:
	cmpl	$1, %eax
	jne	.L671
	movq	0(%r13), %rax
	movq	%r13, %rdi
	call	*24(%rax)
	jmp	.L671
	.p2align 4,,10
	.p2align 3
.L814:
	movq	(%r12), %rdx
	movb	%al, 48(%rsp)
	movq	%r12, %rdi
	call	*16(%rdx)
	cmpb	$0, __libc_single_threaded(%rip)
	movzbl	48(%rsp), %eax
	je	.L637
	movl	12(%r12), %edx
	leal	-1(%rdx), %ecx
	movl	%ecx, 12(%r12)
.L638:
	cmpl	$1, %edx
	jne	.L636
	movq	(%r12), %rdx
	movb	%al, 48(%rsp)
	movq	%r12, %rdi
	call	*24(%rdx)
	movzbl	48(%rsp), %eax
	jmp	.L636
	.p2align 4,,10
	.p2align 3
.L811:
	movq	(%rdi), %rdx
	movb	%al, 63(%rsp)
	movq	%rdi, 48(%rsp)
	call	*16(%rdx)
	cmpb	$0, __libc_single_threaded(%rip)
	movq	48(%rsp), %rdi
	movzbl	63(%rsp), %eax
	je	.L600
	movl	12(%rdi), %edx
	leal	-1(%rdx), %ecx
	movl	%ecx, 12(%rdi)
.L601:
	cmpl	$1, %edx
	jne	.L596
	movq	(%rdi), %rdx
	movb	%al, 48(%rsp)
	call	*24(%rdx)
	movzbl	48(%rsp), %eax
	jmp	.L596
	.p2align 4,,10
	.p2align 3
.L815:
	movq	(%rdi), %rdx
	movb	%al, 63(%rsp)
	movq	%rdi, 48(%rsp)
	call	*16(%rdx)
	cmpb	$0, __libc_single_threaded(%rip)
	movq	48(%rsp), %rdi
	movzbl	63(%rsp), %eax
	je	.L650
	movl	12(%rdi), %edx
	leal	-1(%rdx), %ecx
	movl	%ecx, 12(%rdi)
.L651:
	cmpl	$1, %edx
	jne	.L646
	movq	(%rdi), %rdx
	movb	%al, 48(%rsp)
	call	*24(%rdx)
	movzbl	48(%rsp), %eax
	jmp	.L646
	.p2align 4,,10
	.p2align 3
.L816:
	movq	(%r12), %rdx
	movb	%al, 48(%rsp)
	movq	%r12, %rdi
	call	*16(%rdx)
	cmpb	$0, __libc_single_threaded(%rip)
	movzbl	48(%rsp), %eax
	je	.L662
	movl	12(%r12), %edx
	leal	-1(%rdx), %ecx
	movl	%ecx, 12(%r12)
.L663:
	cmpl	$1, %edx
	jne	.L661
	movq	(%r12), %rdx
	movb	%al, 48(%rsp)
	movq	%r12, %rdi
	call	*24(%rdx)
	movzbl	48(%rsp), %eax
	jmp	.L661
	.p2align 4,,10
	.p2align 3
.L812:
	movq	(%r12), %rdx
	movb	%al, 48(%rsp)
	movq	%r12, %rdi
	call	*16(%rdx)
	cmpb	$0, __libc_single_threaded(%rip)
	movzbl	48(%rsp), %eax
	je	.L612
	movl	12(%r12), %edx
	leal	-1(%rdx), %ecx
	movl	%ecx, 12(%r12)
.L613:
	cmpl	$1, %edx
	jne	.L611
	movq	(%r12), %rdx
	movb	%al, 48(%rsp)
	movq	%r12, %rdi
	call	*24(%rdx)
	movzbl	48(%rsp), %eax
	jmp	.L611
	.p2align 4,,10
	.p2align 3
.L813:
	movq	(%rdi), %rdx
	movb	%al, 63(%rsp)
	movq	%rdi, 48(%rsp)
	call	*16(%rdx)
	cmpb	$0, __libc_single_threaded(%rip)
	movq	48(%rsp), %rdi
	movzbl	63(%rsp), %eax
	je	.L625
	movl	12(%rdi), %edx
	leal	-1(%rdx), %ecx
	movl	%ecx, 12(%rdi)
.L626:
	cmpl	$1, %edx
	jne	.L621
	movq	(%rdi), %rdx
	movb	%al, 48(%rsp)
	call	*24(%rdx)
	movzbl	48(%rsp), %eax
	jmp	.L621
	.p2align 4,,10
	.p2align 3
.L683:
	movl	$-1, %eax
	lock xaddl	%eax, 8(%rbp)
	jmp	.L684
	.p2align 4,,10
	.p2align 3
.L672:
	movl	$-1, %eax
	lock xaddl	%eax, 8(%r13)
	jmp	.L673
	.p2align 4,,10
	.p2align 3
.L633:
	movl	$-1, %edx
	lock xaddl	%edx, 8(%r12)
	jmp	.L634
	.p2align 4,,10
	.p2align 3
.L597:
	movl	$-1, %edx
	lock xaddl	%edx, 8(%rdi)
	jmp	.L598
	.p2align 4,,10
	.p2align 3
.L658:
	movl	$-1, %edx
	lock xaddl	%edx, 8(%r12)
	jmp	.L659
	.p2align 4,,10
	.p2align 3
.L608:
	movl	$-1, %edx
	lock xaddl	%edx, 8(%r12)
	jmp	.L609
	.p2align 4,,10
	.p2align 3
.L647:
	movl	$-1, %edx
	lock xaddl	%edx, 8(%rdi)
	jmp	.L648
	.p2align 4,,10
	.p2align 3
.L622:
	movl	$-1, %edx
	lock xaddl	%edx, 8(%rdi)
	jmp	.L623
	.p2align 4,,10
	.p2align 3
.L600:
	movl	$-1, %edx
	lock xaddl	%edx, 12(%rdi)
	jmp	.L601
	.p2align 4,,10
	.p2align 3
.L612:
	movl	$-1, %edx
	lock xaddl	%edx, 12(%r12)
	jmp	.L613
	.p2align 4,,10
	.p2align 3
.L625:
	movl	$-1, %edx
	lock xaddl	%edx, 12(%rdi)
	jmp	.L626
	.p2align 4,,10
	.p2align 3
.L687:
	movl	$-1, %eax
	lock xaddl	%eax, 12(%rbp)
	jmp	.L688
	.p2align 4,,10
	.p2align 3
.L650:
	movl	$-1, %edx
	lock xaddl	%edx, 12(%rdi)
	jmp	.L651
	.p2align 4,,10
	.p2align 3
.L662:
	movl	$-1, %edx
	lock xaddl	%edx, 12(%r12)
	jmp	.L663
	.p2align 4,,10
	.p2align 3
.L675:
	movl	$-1, %eax
	lock xaddl	%eax, 12(%r13)
	jmp	.L676
	.p2align 4,,10
	.p2align 3
.L637:
	movl	$-1, %edx
	lock xaddl	%edx, 12(%r12)
	jmp	.L638
	.p2align 4,,10
	.p2align 3
.L810:
	movq	176(%rsp), %rax
	movq	%r13, %rdi
	leaq	1(%rax), %rsi
	call	_ZdlPvm@PLT
	jmp	.L589
.L807:
	call	__stack_chk_fail@PLT
.L722:
	endbr64
.L801:
	movq	%rax, %rbp
	jmp	.L656
.L726:
	endbr64
.L805:
	movq	%rax, %rbp
.L654:
	movq	104(%rsp), %rdi
	testq	%rdi, %rdi
	je	.L656
	call	_ZNSt16_Sp_counted_baseILN9__gnu_cxx12_Lock_policyE2EE10_M_releaseEv
.L656:
	testq	%r12, %r12
	je	.L696
	movq	%r12, %rdi
	call	_ZNSt16_Sp_counted_baseILN9__gnu_cxx12_Lock_policyE2EE10_M_releaseEv
.L696:
	movq	%rbp, %rdi
.LEHB23:
	call	_Unwind_Resume@PLT
.L727:
	endbr64
	jmp	.L805
.L723:
	endbr64
	jmp	.L801
.L724:
	endbr64
	jmp	.L801
.L728:
	endbr64
	jmp	.L805
.L729:
	endbr64
	movq	%rax, %r12
	jmp	.L679
.L725:
	endbr64
	movq	%rax, %r12
	jmp	.L681
.L679:
	movq	104(%rsp), %rdi
	testq	%rdi, %rdi
	je	.L681
	call	_ZNSt16_Sp_counted_baseILN9__gnu_cxx12_Lock_policyE2EE10_M_releaseEv
.L681:
	testq	%rbp, %rbp
	je	.L697
	movq	%rbp, %rdi
	call	_ZNSt16_Sp_counted_baseILN9__gnu_cxx12_Lock_policyE2EE10_M_releaseEv
.L697:
	movq	%r12, %rdi
	call	_Unwind_Resume@PLT
.LEHE23:
	.cfi_endproc
.LFE12033:
	.section	.gcc_except_table
.LLSDA12033:
	.byte	0xff
	.byte	0xff
	.byte	0x1
	.uleb128 .LLSDACSE12033-.LLSDACSB12033
.LLSDACSB12033:
	.uleb128 .LEHB14-.LFB12033
	.uleb128 .LEHE14-.LEHB14
	.uleb128 0
	.uleb128 0
	.uleb128 .LEHB15-.LFB12033
	.uleb128 .LEHE15-.LEHB15
	.uleb128 .L722-.LFB12033
	.uleb128 0
	.uleb128 .LEHB16-.LFB12033
	.uleb128 .LEHE16-.LEHB16
	.uleb128 .L726-.LFB12033
	.uleb128 0
	.uleb128 .LEHB17-.LFB12033
	.uleb128 .LEHE17-.LEHB17
	.uleb128 .L723-.LFB12033
	.uleb128 0
	.uleb128 .LEHB18-.LFB12033
	.uleb128 .LEHE18-.LEHB18
	.uleb128 .L727-.LFB12033
	.uleb128 0
	.uleb128 .LEHB19-.LFB12033
	.uleb128 .LEHE19-.LEHB19
	.uleb128 .L724-.LFB12033
	.uleb128 0
	.uleb128 .LEHB20-.LFB12033
	.uleb128 .LEHE20-.LEHB20
	.uleb128 .L728-.LFB12033
	.uleb128 0
	.uleb128 .LEHB21-.LFB12033
	.uleb128 .LEHE21-.LEHB21
	.uleb128 .L725-.LFB12033
	.uleb128 0
	.uleb128 .LEHB22-.LFB12033
	.uleb128 .LEHE22-.LEHB22
	.uleb128 .L729-.LFB12033
	.uleb128 0
	.uleb128 .LEHB23-.LFB12033
	.uleb128 .LEHE23-.LEHB23
	.uleb128 0
	.uleb128 0
.LLSDACSE12033:
	.section	.text._ZN10Rigid_body12on_collisionER6EngineSt10shared_ptrI6EntityE,"axG",@progbits,_ZN10Rigid_body12on_collisionER6EngineSt10shared_ptrI6EntityE,comdat
	.size	_ZN10Rigid_body12on_collisionER6EngineSt10shared_ptrI6EntityE, .-_ZN10Rigid_body12on_collisionER6EngineSt10shared_ptrI6EntityE
	.section	.text._ZN7LemmingC2E6Point3IfE7Vector2IfER6Engine,"axG",@progbits,_ZN7LemmingC5E6Point3IfE7Vector2IfER6Engine,comdat
	.align 2
	.p2align 4
	.weak	_ZN7LemmingC2E6Point3IfE7Vector2IfER6Engine
	.type	_ZN7LemmingC2E6Point3IfE7Vector2IfER6Engine, @function
_ZN7LemmingC2E6Point3IfE7Vector2IfER6Engine:
.LFB12078:
	.cfi_startproc
	.cfi_personality 0x9b,DW.ref.__gxx_personality_v0
	.cfi_lsda 0x1b,.LLSDA12078
	endbr64
	pushq	%rbp
	.cfi_def_cfa_offset 16
	.cfi_offset 6, -16
	movq	%rsp, %rbp
	.cfi_def_cfa_register 6
	pushq	%r15
	pushq	%r14
	pushq	%r13
	.cfi_offset 15, -24
	.cfi_offset 14, -32
	.cfi_offset 13, -40
	movq	%rdx, %r13
	pushq	%r12
	.cfi_offset 12, -48
	movq	%rcx, %r12
	movl	$28265, %ecx
	pushq	%rbx
	.cfi_offset 3, -56
	movq	%rsi, %rbx
	movl	$28265, %esi
	subq	$312, %rsp
	movq	%rdi, -296(%rbp)
	movl	$33, %edi
	movq	%fs:40, %rax
	movq	%rax, -56(%rbp)
	xorl	%eax, %eax
	leaq	-80(%rbp), %rax
	movl	$1835885900, -80(%rbp)
	movq	%rax, -304(%rbp)
	movq	%rax, -96(%rbp)
	leaq	-112(%rbp), %rax
	movq	%rax, -320(%rbp)
	movq	%rax, -128(%rbp)
	leaq	-144(%rbp), %rax
	movw	%cx, -76(%rbp)
	movb	$103, -74(%rbp)
	movq	$7, -88(%rbp)
	movb	$0, -73(%rbp)
	movl	$1835885900, -112(%rbp)
	movw	%si, -108(%rbp)
	movb	$103, -106(%rbp)
	movq	$7, -120(%rbp)
	movb	$0, -105(%rbp)
	movq	%rax, -312(%rbp)
	movq	%rax, -160(%rbp)
.LEHB24:
	call	_Znwm@PLT
.LEHE24:
	movdqa	.LC43(%rip), %xmm0
	movb	$0, 32(%rax)
	movq	%r12, %rsi
	leaq	-256(%rbp), %r14
	leaq	-160(%rbp), %rdx
	movq	%r14, %rdi
	movq	%rax, -160(%rbp)
	movups	%xmm0, (%rax)
	movdqa	.LC44(%rip), %xmm0
	movq	$32, -144(%rbp)
	movups	%xmm0, 16(%rax)
	movq	$32, -152(%rbp)
.LEHB25:
	call	_ZN6Engine12load_textureERKNSt7__cxx1112basic_stringIcSt11char_traitsIcESaIcEEE@PLT
.LEHE25:
	movq	0(%r13), %rax
	movq	(%rbx), %rdx
	movq	%r14, %rsi
	leaq	-208(%rbp), %r15
	movss	8(%rbx), %xmm1
	movq	-128(%rbp), %rbx
	movq	%r15, %rdi
	movq	-88(%rbp), %r12
	movq	-96(%rbp), %r13
	movq	%rax, -344(%rbp)
	movq	%rbx, -336(%rbp)
	movq	-120(%rbp), %rbx
	movq	%rdx, -352(%rbp)
	movss	%xmm1, -324(%rbp)
.LEHB26:
	call	_ZN7TextureC1ERKS_@PLT
.LEHE26:
	movq	-352(%rbp), %rdx
	pushq	%r13
	movq	%rbx, %r8
	movq	%r15, %rcx
	pushq	%r12
	movq	-344(%rbp), %rax
	leaq	-272(%rbp), %rsi
	movss	-324(%rbp), %xmm1
	movq	-336(%rbp), %r9
	movq	%rdx, -272(%rbp)
	leaq	-280(%rbp), %rdx
	movq	-296(%rbp), %rdi
	movq	%rax, -280(%rbp)
	movss	%xmm1, -264(%rbp)
.LEHB27:
	.cfi_escape 0x2e,0x10
	call	_ZN6EntityC2E6Point3IfE7Vector2IfE7TextureSt17basic_string_viewIcSt11char_traitsIcEES8_@PLT
.LEHE27:
	movq	-184(%rbp), %r12
	popq	%rax
	popq	%rdx
	testq	%r12, %r12
	je	.L821
	cmpb	$0, __libc_single_threaded(%rip)
	je	.L822
	movl	8(%r12), %eax
	leal	-1(%rax), %edx
	movl	%edx, 8(%r12)
.L823:
	cmpl	$1, %eax
	je	.L913
.L821:
	movq	-200(%rbp), %r12
	testq	%r12, %r12
	je	.L828
	cmpb	$0, __libc_single_threaded(%rip)
	je	.L829
	movl	8(%r12), %eax
	leal	-1(%rax), %edx
	movl	%edx, 8(%r12)
.L830:
	cmpl	$1, %eax
	je	.L914
.L828:
	movq	-296(%rbp), %rax
	movaps	.LC30(%rip), %xmm0
	leaq	16+_ZTV10Rigid_body(%rip), %r12
	movq	-232(%rbp), %r13
	movups	%xmm0, 144(%rax)
	movaps	.LC31(%rip), %xmm0
	movq	%r12, (%rax)
	movups	%xmm0, 160(%rax)
	movaps	.LC32(%rip), %xmm0
	movl	$0x00000000, 196(%rax)
	movb	$0, 192(%rax)
	movups	%xmm0, 176(%rax)
	testq	%r13, %r13
	je	.L835
	cmpb	$0, __libc_single_threaded(%rip)
	je	.L838
	movl	8(%r13), %eax
	leal	-1(%rax), %edx
	movl	%edx, 8(%r13)
.L839:
	cmpl	$1, %eax
	je	.L915
.L835:
	movq	-248(%rbp), %r13
	testq	%r13, %r13
	je	.L844
	cmpb	$0, __libc_single_threaded(%rip)
	je	.L845
	movl	8(%r13), %eax
	leal	-1(%rax), %edx
	movl	%edx, 8(%r13)
.L846:
	cmpl	$1, %eax
	je	.L916
.L844:
	movq	-160(%rbp), %rdi
	cmpq	-312(%rbp), %rdi
	je	.L850
	movq	-144(%rbp), %rax
	leaq	1(%rax), %rsi
	call	_ZdlPvm@PLT
.L850:
	movq	-128(%rbp), %rdi
	cmpq	-320(%rbp), %rdi
	je	.L851
	movq	-112(%rbp), %rax
	leaq	1(%rax), %rsi
	call	_ZdlPvm@PLT
.L851:
	movq	-96(%rbp), %rdi
	cmpq	-304(%rbp), %rdi
	je	.L852
	movq	-80(%rbp), %rax
	leaq	1(%rax), %rsi
	call	_ZdlPvm@PLT
.L852:
	movq	-296(%rbp), %r15
	leaq	16+_ZTV7Lemming(%rip), %rax
	pxor	%xmm0, %xmm0
	movl	$32, %edi
	movq	%rax, (%r15)
	leaq	208(%r15), %rax
	movb	$0, 200(%r15)
	movups	%xmm0, 208(%r15)
	movq	%rax, -304(%rbp)
.LEHB28:
	.cfi_escape 0x2e,0
	call	_Znwm@PLT
.LEHE28:
	movq	.LC1(%rip), %rbx
	movq	SDL_DestroyTexture@GOTPCREL(%rip), %r13
	leaq	16+_ZTVSt19_Sp_counted_deleterIDnPFvP11SDL_TextureESaIvELN9__gnu_cxx12_Lock_policyE2EE(%rip), %r14
	movq	$0, 24(%rax)
	movq	%r14, (%rax)
	movl	$32, %edi
	movq	%rbx, 8(%rax)
	movq	%r13, 16(%rax)
	movq	%rax, 216(%r15)
	movq	$0, 224(%r15)
	movq	$0, 232(%r15)
	movq	%r15, -296(%rbp)
.LEHB29:
	call	_Znwm@PLT
.LEHE29:
	movq	-296(%rbp), %rsi
	movq	SDL_FreeSurface@GOTPCREL(%rip), %rdi
	movq	%rbx, 8(%rax)
	leaq	16+_ZTVSt19_Sp_counted_deleterIDnPFvP11SDL_SurfaceESaIvELN9__gnu_cxx12_Lock_policyE2EE(%rip), %r15
	movq	%r15, (%rax)
	pxor	%xmm0, %xmm0
	movq	%rdi, 16(%rax)
	leaq	248(%rsi), %rdi
	movq	$0, 24(%rax)
	movq	%rax, 232(%rsi)
	movq	$0, 240(%rsi)
	movq	%rdi, -312(%rbp)
	movl	$32, %edi
	movups	%xmm0, 248(%rsi)
.LEHB30:
	call	_Znwm@PLT
.LEHE30:
	movq	-296(%rbp), %rdx
	movq	%rbx, 8(%rax)
	movl	$32, %edi
	movq	%r14, (%rax)
	movq	%r13, 16(%rax)
	movq	$0, 24(%rax)
	movq	%rax, 256(%rdx)
	movq	$0, 264(%rdx)
	movq	$0, 272(%rdx)
.LEHB31:
	call	_Znwm@PLT
.LEHE31:
	movq	-296(%rbp), %rsi
	movq	SDL_FreeSurface@GOTPCREL(%rip), %rdi
	movq	%rbx, 8(%rax)
	pxor	%xmm0, %xmm0
	movq	%r15, (%rax)
	movq	%rdi, 16(%rax)
	movl	$32, %edi
	movq	$0, 24(%rax)
	movq	%rax, 272(%rsi)
	movq	$0, 280(%rsi)
	movups	%xmm0, 288(%rsi)
.LEHB32:
	call	_Znwm@PLT
.LEHE32:
	movq	-296(%rbp), %rsi
	movq	%rbx, 8(%rax)
	movl	$32, %edi
	movq	%r14, (%rax)
	movq	%r13, 16(%rax)
	movq	$0, 24(%rax)
	movq	%rax, 296(%rsi)
	movq	$0, 304(%rsi)
	movq	$0, 312(%rsi)
.LEHB33:
	call	_Znwm@PLT
.LEHE33:
	movq	-296(%rbp), %rcx
	movdqa	.LC33(%rip), %xmm0
	movq	%rbx, 8(%rax)
	movq	SDL_FreeSurface@GOTPCREL(%rip), %rbx
	movq	%r15, (%rax)
	movups	%xmm0, 372(%rcx)
	movdqa	.LC34(%rip), %xmm0
	movq	%rbx, 16(%rax)
	movups	%xmm0, 388(%rcx)
	movdqa	.LC35(%rip), %xmm0
	movq	$0, 24(%rax)
	movups	%xmm0, 404(%rcx)
	movdqa	.LC36(%rip), %xmm0
	movq	%rax, 312(%rcx)
	leaq	352(%rcx), %rax
	movups	%xmm0, 420(%rcx)
	movdqa	.LC37(%rip), %xmm0
	movq	%rax, 336(%rcx)
	movups	%xmm0, 436(%rcx)
	movdqa	.LC38(%rip), %xmm0
	movq	$0, 320(%rcx)
	movups	%xmm0, 452(%rcx)
	movdqa	.LC39(%rip), %xmm0
	movl	$0x00000000, 328(%rcx)
	movups	%xmm0, 468(%rcx)
	movaps	.LC40(%rip), %xmm0
	movq	$0, 344(%rcx)
	movups	%xmm0, 488(%rcx)
	movaps	.LC41(%rip), %xmm0
	movb	$0, 352(%rcx)
	movb	$1, 369(%rcx)
	movl	$16, 484(%rcx)
	movups	%xmm0, 504(%rcx)
	movups	%xmm0, 520(%rcx)
	movq	.LC42(%rip), %rax
	movq	$0, 544(%rcx)
	movq	%rax, 536(%rcx)
	movl	$1, 552(%rcx)
	movq	-56(%rbp), %rax
	subq	%fs:40, %rax
	jne	.L917
	leaq	-40(%rbp), %rsp
	popq	%rbx
	popq	%r12
	popq	%r13
	popq	%r14
	popq	%r15
	popq	%rbp
	.cfi_remember_state
	.cfi_def_cfa 7, 8
	ret
	.p2align 4,,10
	.p2align 3
.L913:
	.cfi_restore_state
	movq	(%r12), %rax
	movq	%r12, %rdi
	call	*16(%rax)
	cmpb	$0, __libc_single_threaded(%rip)
	je	.L825
	movl	12(%r12), %eax
	leal	-1(%rax), %edx
	movl	%edx, 12(%r12)
.L826:
	cmpl	$1, %eax
	jne	.L821
	movq	(%r12), %rax
	movq	%r12, %rdi
	call	*24(%rax)
	jmp	.L821
	.p2align 4,,10
	.p2align 3
.L914:
	movq	(%r12), %rax
	movq	%r12, %rdi
	call	*16(%rax)
	cmpb	$0, __libc_single_threaded(%rip)
	je	.L832
	movl	12(%r12), %eax
	leal	-1(%rax), %edx
	movl	%edx, 12(%r12)
.L833:
	cmpl	$1, %eax
	jne	.L828
	movq	(%r12), %rax
	movq	%r12, %rdi
	call	*24(%rax)
	jmp	.L828
	.p2align 4,,10
	.p2align 3
.L915:
	movq	0(%r13), %rax
	movq	%r13, %rdi
	call	*16(%rax)
	cmpb	$0, __libc_single_threaded(%rip)
	je	.L841
	movl	12(%r13), %eax
	leal	-1(%rax), %edx
	movl	%edx, 12(%r13)
.L842:
	cmpl	$1, %eax
	jne	.L835
	movq	0(%r13), %rax
	movq	%r13, %rdi
	call	*24(%rax)
	jmp	.L835
	.p2align 4,,10
	.p2align 3
.L916:
	movq	0(%r13), %rax
	movq	%r13, %rdi
	call	*16(%rax)
	cmpb	$0, __libc_single_threaded(%rip)
	je	.L848
	movl	12(%r13), %eax
	leal	-1(%rax), %edx
	movl	%edx, 12(%r13)
.L849:
	cmpl	$1, %eax
	jne	.L844
	movq	0(%r13), %rax
	movq	%r13, %rdi
	call	*24(%rax)
	jmp	.L844
	.p2align 4,,10
	.p2align 3
.L822:
	movl	$-1, %eax
	lock xaddl	%eax, 8(%r12)
	jmp	.L823
	.p2align 4,,10
	.p2align 3
.L845:
	movl	$-1, %eax
	lock xaddl	%eax, 8(%r13)
	jmp	.L846
	.p2align 4,,10
	.p2align 3
.L829:
	movl	$-1, %eax
	lock xaddl	%eax, 8(%r12)
	jmp	.L830
	.p2align 4,,10
	.p2align 3
.L838:
	movl	$-1, %eax
	lock xaddl	%eax, 8(%r13)
	jmp	.L839
	.p2align 4,,10
	.p2align 3
.L841:
	movl	$-1, %eax
	lock xaddl	%eax, 12(%r13)
	jmp	.L842
	.p2align 4,,10
	.p2align 3
.L832:
	movl	$-1, %eax
	lock xaddl	%eax, 12(%r12)
	jmp	.L833
	.p2align 4,,10
	.p2align 3
.L825:
	movl	$-1, %eax
	lock xaddl	%eax, 12(%r12)
	jmp	.L826
	.p2align 4,,10
	.p2align 3
.L848:
	movl	$-1, %eax
	lock xaddl	%eax, 12(%r13)
	jmp	.L849
.L917:
	call	__stack_chk_fail@PLT
.L882:
	endbr64
	movq	%rax, %rbx
	jmp	.L878
.L897:
	endbr64
	movq	%rax, %rdi
	jmp	.L873
.L836:
	movq	%r15, %rdi
	call	_ZN7TextureD1Ev
.L837:
	movq	%r14, %rdi
	call	_ZN7TextureD1Ev
.L876:
	movq	-160(%rbp), %rdi
	cmpq	-312(%rbp), %rdi
	je	.L878
	movq	-144(%rbp), %rax
	leaq	1(%rax), %rsi
	call	_ZdlPvm@PLT
.L878:
	movq	-128(%rbp), %rdi
	cmpq	-320(%rbp), %rdi
	je	.L879
	movq	-112(%rbp), %rax
	leaq	1(%rax), %rsi
	call	_ZdlPvm@PLT
.L879:
	movq	-96(%rbp), %rdi
	cmpq	-304(%rbp), %rdi
	je	.L880
	movq	-80(%rbp), %rax
	leaq	1(%rax), %rsi
	call	_ZdlPvm@PLT
.L880:
	movq	%rbx, %rdi
.LEHB34:
	call	_Unwind_Resume@PLT
.LEHE34:
.L873:
	call	__cxa_begin_catch@PLT
	xorl	%edi, %edi
.LEHB35:
	call	SDL_FreeSurface@PLT
	call	__cxa_rethrow@PLT
.LEHE35:
.L896:
	endbr64
	movq	%rax, %r13
.L874:
	call	__cxa_end_catch@PLT
	movq	-296(%rbp), %rax
	movq	296(%rax), %rdi
	testq	%rdi, %rdi
	je	.L872
	call	_ZNSt16_Sp_counted_baseILN9__gnu_cxx12_Lock_policyE2EE10_M_releaseEv
	jmp	.L872
.L895:
	endbr64
	movq	%rax, %rdi
	jmp	.L870
.L893:
	endbr64
	movq	%rax, %rdi
	jmp	.L866
.L870:
	call	__cxa_begin_catch@PLT
	xorl	%edi, %edi
.LEHB36:
	call	SDL_DestroyTexture@PLT
	call	__cxa_rethrow@PLT
.LEHE36:
.L866:
	call	__cxa_begin_catch@PLT
	xorl	%edi, %edi
.LEHB37:
	call	SDL_FreeSurface@PLT
	call	__cxa_rethrow@PLT
.LEHE37:
.L894:
	endbr64
	movq	%rax, %r13
	jmp	.L871
.L892:
	endbr64
	movq	%rax, %r13
	jmp	.L867
.L871:
	call	__cxa_end_catch@PLT
.L872:
	movq	-312(%rbp), %rdi
	call	_ZN7TextureD1Ev
.L864:
	movq	-304(%rbp), %rdi
	call	_ZN7TextureD1Ev
.L856:
	movq	-296(%rbp), %rax
	movq	%r12, (%rax)
	movq	%rax, %rdi
	call	_ZN6EntityD2Ev
	movq	%r13, %rdi
.LEHB38:
	call	_Unwind_Resume@PLT
.LEHE38:
.L867:
	call	__cxa_end_catch@PLT
	movq	-296(%rbp), %rax
	movq	256(%rax), %rdi
	testq	%rdi, %rdi
	je	.L864
	call	_ZNSt16_Sp_counted_baseILN9__gnu_cxx12_Lock_policyE2EE10_M_releaseEv
	jmp	.L864
.L884:
	endbr64
	movq	%rax, %rbx
	jmp	.L837
.L887:
	endbr64
	movq	%rax, %rdi
.L854:
	call	__cxa_begin_catch@PLT
	xorl	%edi, %edi
.LEHB39:
	call	SDL_DestroyTexture@PLT
	call	__cxa_rethrow@PLT
.LEHE39:
.L886:
	endbr64
	movq	%rax, %r13
	jmp	.L855
.L883:
	endbr64
	movq	%rax, %rbx
	jmp	.L876
.L891:
	endbr64
	movq	%rax, %rdi
	jmp	.L862
.L889:
	endbr64
	movq	%rax, %rdi
	jmp	.L858
.L862:
	call	__cxa_begin_catch@PLT
	xorl	%edi, %edi
.LEHB40:
	call	SDL_DestroyTexture@PLT
	call	__cxa_rethrow@PLT
.LEHE40:
.L858:
	call	__cxa_begin_catch@PLT
	xorl	%edi, %edi
.LEHB41:
	call	SDL_FreeSurface@PLT
	call	__cxa_rethrow@PLT
.LEHE41:
.L890:
	endbr64
	movq	%rax, %r13
	jmp	.L863
.L888:
	endbr64
	movq	%rax, %r13
	jmp	.L859
.L863:
	call	__cxa_end_catch@PLT
	jmp	.L864
.L859:
	call	__cxa_end_catch@PLT
	movq	-296(%rbp), %rax
	movq	216(%rax), %rdi
	testq	%rdi, %rdi
	je	.L856
	call	_ZNSt16_Sp_counted_baseILN9__gnu_cxx12_Lock_policyE2EE10_M_releaseEv
	jmp	.L856
.L885:
	endbr64
	movq	%rax, %rbx
	jmp	.L836
.L855:
	call	__cxa_end_catch@PLT
	jmp	.L856
	.cfi_endproc
.LFE12078:
	.section	.gcc_except_table
	.align 4
.LLSDA12078:
	.byte	0xff
	.byte	0x9b
	.uleb128 .LLSDATT12078-.LLSDATTD12078
.LLSDATTD12078:
	.byte	0x1
	.uleb128 .LLSDACSE12078-.LLSDACSB12078
.LLSDACSB12078:
	.uleb128 .LEHB24-.LFB12078
	.uleb128 .LEHE24-.LEHB24
	.uleb128 .L882-.LFB12078
	.uleb128 0
	.uleb128 .LEHB25-.LFB12078
	.uleb128 .LEHE25-.LEHB25
	.uleb128 .L883-.LFB12078
	.uleb128 0
	.uleb128 .LEHB26-.LFB12078
	.uleb128 .LEHE26-.LEHB26
	.uleb128 .L884-.LFB12078
	.uleb128 0
	.uleb128 .LEHB27-.LFB12078
	.uleb128 .LEHE27-.LEHB27
	.uleb128 .L885-.LFB12078
	.uleb128 0
	.uleb128 .LEHB28-.LFB12078
	.uleb128 .LEHE28-.LEHB28
	.uleb128 .L887-.LFB12078
	.uleb128 0x1
	.uleb128 .LEHB29-.LFB12078
	.uleb128 .LEHE29-.LEHB29
	.uleb128 .L889-.LFB12078
	.uleb128 0x1
	.uleb128 .LEHB30-.LFB12078
	.uleb128 .LEHE30-.LEHB30
	.uleb128 .L891-.LFB12078
	.uleb128 0x1
	.uleb128 .LEHB31-.LFB12078
	.uleb128 .LEHE31-.LEHB31
	.uleb128 .L893-.LFB12078
	.uleb128 0x1
	.uleb128 .LEHB32-.LFB12078
	.uleb128 .LEHE32-.LEHB32
	.uleb128 .L895-.LFB12078
	.uleb128 0x1
	.uleb128 .LEHB33-.LFB12078
	.uleb128 .LEHE33-.LEHB33
	.uleb128 .L897-.LFB12078
	.uleb128 0x1
	.uleb128 .LEHB34-.LFB12078
	.uleb128 .LEHE34-.LEHB34
	.uleb128 0
	.uleb128 0
	.uleb128 .LEHB35-.LFB12078
	.uleb128 .LEHE35-.LEHB35
	.uleb128 .L896-.LFB12078
	.uleb128 0
	.uleb128 .LEHB36-.LFB12078
	.uleb128 .LEHE36-.LEHB36
	.uleb128 .L894-.LFB12078
	.uleb128 0
	.uleb128 .LEHB37-.LFB12078
	.uleb128 .LEHE37-.LEHB37
	.uleb128 .L892-.LFB12078
	.uleb128 0
	.uleb128 .LEHB38-.LFB12078
	.uleb128 .LEHE38-.LEHB38
	.uleb128 0
	.uleb128 0
	.uleb128 .LEHB39-.LFB12078
	.uleb128 .LEHE39-.LEHB39
	.uleb128 .L886-.LFB12078
	.uleb128 0
	.uleb128 .LEHB40-.LFB12078
	.uleb128 .LEHE40-.LEHB40
	.uleb128 .L890-.LFB12078
	.uleb128 0
	.uleb128 .LEHB41-.LFB12078
	.uleb128 .LEHE41-.LEHB41
	.uleb128 .L888-.LFB12078
	.uleb128 0
.LLSDACSE12078:
	.byte	0x1
	.byte	0
	.align 4
	.long	0

.LLSDATT12078:
	.section	.text._ZN7LemmingC2E6Point3IfE7Vector2IfER6Engine,"axG",@progbits,_ZN7LemmingC5E6Point3IfE7Vector2IfER6Engine,comdat
	.size	_ZN7LemmingC2E6Point3IfE7Vector2IfER6Engine, .-_ZN7LemmingC2E6Point3IfE7Vector2IfER6Engine
	.weak	_ZN7LemmingC1E6Point3IfE7Vector2IfER6Engine
	.set	_ZN7LemmingC1E6Point3IfE7Vector2IfER6Engine,_ZN7LemmingC2E6Point3IfE7Vector2IfER6Engine
	.section	.text._ZN13Lemmings_game13on_loop_startER6Engine,"axG",@progbits,_ZN13Lemmings_game13on_loop_startER6Engine,comdat
	.align 2
	.p2align 4
	.weak	_ZN13Lemmings_game13on_loop_startER6Engine
	.type	_ZN13Lemmings_game13on_loop_startER6Engine, @function
_ZN13Lemmings_game13on_loop_startER6Engine:
.LFB12166:
	.cfi_startproc
	.cfi_personality 0x9b,DW.ref.__gxx_personality_v0
	.cfi_lsda 0x1b,.LLSDA12166
	endbr64
	pushq	%r14
	.cfi_def_cfa_offset 16
	.cfi_offset 14, -16
	pushq	%r13
	.cfi_def_cfa_offset 24
	.cfi_offset 13, -24
	pushq	%r12
	.cfi_def_cfa_offset 32
	.cfi_offset 12, -32
	movq	%rsi, %r12
	pushq	%rbp
	.cfi_def_cfa_offset 40
	.cfi_offset 6, -40
	pushq	%rbx
	.cfi_def_cfa_offset 48
	.cfi_offset 3, -48
	movq	%rdi, %rbx
	movq	%rsi, %rdi
	subq	$64, %rsp
	.cfi_def_cfa_offset 112
	movq	%fs:40, %rax
	movq	%rax, 56(%rsp)
	xorl	%eax, %eax
.LEHB42:
	call	_ZN6Engine14get_delta_timeEv@PLT
	movapd	%xmm0, %xmm1
	pxor	%xmm0, %xmm0
	cvtss2sd	72(%rbx), %xmm0
	addsd	%xmm1, %xmm0
	cvtsd2ss	%xmm0, %xmm0
	comiss	.LC45(%rip), %xmm0
	movss	%xmm0, 72(%rbx)
	jb	.L918
	movl	68(%rbx), %eax
	cmpl	%eax, 64(%rbx)
	jl	.L956
.L918:
	movq	56(%rsp), %rax
	subq	%fs:40, %rax
	jne	.L955
	addq	$64, %rsp
	.cfi_remember_state
	.cfi_def_cfa_offset 48
	popq	%rbx
	.cfi_def_cfa_offset 40
	popq	%rbp
	.cfi_def_cfa_offset 32
	popq	%r12
	.cfi_def_cfa_offset 24
	popq	%r13
	.cfi_def_cfa_offset 16
	popq	%r14
	.cfi_def_cfa_offset 8
	ret
	.p2align 4,,10
	.p2align 3
.L956:
	.cfi_restore_state
	movl	$576, %edi
	leaq	32(%rsp), %r14
	call	_Znwm@PLT
.LEHE42:
	leaq	24(%rsp), %rdx
	movq	%r12, %rcx
	movq	%r14, %rsi
	movq	%rax, %rbp
	leaq	8(%rax), %r13
	movq	.LC1(%rip), %rax
	movl	$0x00000000, 40(%rsp)
	leaq	16(%rbp), %rdi
	movq	%rbp, %xmm3
	movq	%rax, 8(%rbp)
	leaq	16+_ZTVSt23_Sp_counted_ptr_inplaceI7LemmingSaIS0_ELN9__gnu_cxx12_Lock_policyE2EE(%rip), %rax
	movq	%rdi, %xmm2
	movq	%rax, 0(%rbp)
	movq	.LC46(%rip), %rax
	punpcklqdq	%xmm3, %xmm2
	movaps	%xmm2, (%rsp)
	movq	%rax, 32(%rsp)
	movq	.LC47(%rip), %rax
	movq	%rax, 24(%rsp)
.LEHB43:
	call	_ZN7LemmingC1E6Point3IfE7Vector2IfER6Engine
.LEHE43:
	movdqa	(%rsp), %xmm2
	cmpb	$0, __libc_single_threaded(%rip)
	movaps	%xmm2, 32(%rsp)
	je	.L957
	addl	$1, 8(%rbp)
.L924:
	movq	%r14, %rsi
	movq	%rbx, %rdi
.LEHB44:
	call	_ZN4Game13create_entityESt10shared_ptrI6EntityE@PLT
.LEHE44:
	movq	40(%rsp), %r12
	movzbl	__libc_single_threaded(%rip), %eax
	testq	%r12, %r12
	je	.L930
	testb	%al, %al
	je	.L926
	movl	8(%r12), %eax
	leal	-1(%rax), %edx
	movl	%edx, 8(%r12)
.L927:
	cmpl	$1, %eax
	je	.L958
.L930:
	addl	$1, 64(%rbx)
	cmpb	$0, __libc_single_threaded(%rip)
	movl	$0x00000000, 72(%rbx)
	je	.L959
	movl	8(%rbp), %eax
	leal	-1(%rax), %edx
	movl	%edx, 8(%rbp)
.L931:
	cmpl	$1, %eax
	jne	.L918
	movq	0(%rbp), %rax
	movq	%rbp, %rdi
	call	*16(%rax)
	cmpb	$0, __libc_single_threaded(%rip)
	je	.L934
	movl	12(%rbp), %eax
	leal	-1(%rax), %edx
	movl	%edx, 12(%rbp)
.L935:
	cmpl	$1, %eax
	jne	.L918
	movq	56(%rsp), %rax
	subq	%fs:40, %rax
	jne	.L955
	movq	0(%rbp), %rax
	movq	%rbp, %rdi
	movq	24(%rax), %rax
	addq	$64, %rsp
	.cfi_remember_state
	.cfi_def_cfa_offset 48
	popq	%rbx
	.cfi_def_cfa_offset 40
	popq	%rbp
	.cfi_def_cfa_offset 32
	popq	%r12
	.cfi_def_cfa_offset 24
	popq	%r13
	.cfi_def_cfa_offset 16
	popq	%r14
	.cfi_def_cfa_offset 8
	jmp	*%rax
	.p2align 4,,10
	.p2align 3
.L957:
	.cfi_restore_state
	lock addl	$1, 8(%rbp)
	jmp	.L924
	.p2align 4,,10
	.p2align 3
.L958:
	movq	(%r12), %rax
	movq	%r12, %rdi
	call	*16(%rax)
	cmpb	$0, __libc_single_threaded(%rip)
	je	.L928
	movl	12(%r12), %eax
	leal	-1(%rax), %edx
	movl	%edx, 12(%r12)
.L929:
	cmpl	$1, %eax
	jne	.L930
	movq	(%r12), %rax
	movq	%r12, %rdi
	call	*24(%rax)
	jmp	.L930
	.p2align 4,,10
	.p2align 3
.L959:
	movl	$-1, %eax
	lock xaddl	%eax, 0(%r13)
	jmp	.L931
	.p2align 4,,10
	.p2align 3
.L926:
	movl	$-1, %eax
	lock xaddl	%eax, 8(%r12)
	jmp	.L927
	.p2align 4,,10
	.p2align 3
.L928:
	movl	$-1, %eax
	lock xaddl	%eax, 12(%r12)
	jmp	.L929
	.p2align 4,,10
	.p2align 3
.L934:
	movl	$-1, %eax
	lock xaddl	%eax, 12(%rbp)
	jmp	.L935
.L955:
	call	__stack_chk_fail@PLT
.L943:
	endbr64
	movq	%rax, %r12
	jmp	.L938
.L944:
	endbr64
	movq	%rax, %r12
	jmp	.L923
.L938:
	movq	40(%rsp), %rdi
	testq	%rdi, %rdi
	je	.L939
	call	_ZNSt16_Sp_counted_baseILN9__gnu_cxx12_Lock_policyE2EE10_M_releaseEv
.L939:
	movq	%rbp, %rdi
	call	_ZNSt16_Sp_counted_baseILN9__gnu_cxx12_Lock_policyE2EE10_M_releaseEv
	movq	%r12, %rdi
.LEHB45:
	call	_Unwind_Resume@PLT
.L923:
	movq	%rbp, %rdi
	movl	$576, %esi
	call	_ZdlPvm@PLT
	movq	%r12, %rdi
	call	_Unwind_Resume@PLT
.LEHE45:
	.cfi_endproc
.LFE12166:
	.section	.gcc_except_table
.LLSDA12166:
	.byte	0xff
	.byte	0xff
	.byte	0x1
	.uleb128 .LLSDACSE12166-.LLSDACSB12166
.LLSDACSB12166:
	.uleb128 .LEHB42-.LFB12166
	.uleb128 .LEHE42-.LEHB42
	.uleb128 0
	.uleb128 0
	.uleb128 .LEHB43-.LFB12166
	.uleb128 .LEHE43-.LEHB43
	.uleb128 .L944-.LFB12166
	.uleb128 0
	.uleb128 .LEHB44-.LFB12166
	.uleb128 .LEHE44-.LEHB44
	.uleb128 .L943-.LFB12166
	.uleb128 0
	.uleb128 .LEHB45-.LFB12166
	.uleb128 .LEHE45-.LEHB45
	.uleb128 0
	.uleb128 0
.LLSDACSE12166:
	.section	.text._ZN13Lemmings_game13on_loop_startER6Engine,"axG",@progbits,_ZN13Lemmings_game13on_loop_startER6Engine,comdat
	.size	_ZN13Lemmings_game13on_loop_startER6Engine, .-_ZN13Lemmings_game13on_loop_startER6Engine
	.section	.rodata._ZN7Lemming12on_collisionER6EngineSt10shared_ptrI6EntityE.str1.1,"aMS",@progbits,1
.LC48:
	.string	"MAP"
.LC50:
	.string	"Gate"
.LC51:
	.string	"Liquid"
	.section	.text._ZN7Lemming12on_collisionER6EngineSt10shared_ptrI6EntityE,"axG",@progbits,_ZN7Lemming12on_collisionER6EngineSt10shared_ptrI6EntityE,comdat
	.align 2
	.p2align 4
	.weak	_ZN7Lemming12on_collisionER6EngineSt10shared_ptrI6EntityE
	.type	_ZN7Lemming12on_collisionER6EngineSt10shared_ptrI6EntityE, @function
_ZN7Lemming12on_collisionER6EngineSt10shared_ptrI6EntityE:
.LFB12086:
	.cfi_startproc
	.cfi_personality 0x9b,DW.ref.__gxx_personality_v0
	.cfi_lsda 0x1b,.LLSDA12086
	endbr64
	pushq	%r15
	.cfi_def_cfa_offset 16
	.cfi_offset 15, -16
	pushq	%r14
	.cfi_def_cfa_offset 24
	.cfi_offset 14, -24
	pushq	%r13
	.cfi_def_cfa_offset 32
	.cfi_offset 13, -32
	pushq	%r12
	.cfi_def_cfa_offset 40
	.cfi_offset 12, -40
	movq	%rsi, %r12
	pushq	%rbp
	.cfi_def_cfa_offset 48
	.cfi_offset 6, -48
	movq	%rdi, %rbp
	pushq	%rbx
	.cfi_def_cfa_offset 56
	.cfi_offset 3, -56
	movq	%rdx, %rbx
	subq	$216, %rsp
	.cfi_def_cfa_offset 272
	movss	144(%rdi), %xmm5
	movq	(%rdx), %rsi
	movq	%fs:40, %rax
	movq	%rax, 200(%rsp)
	xorl	%eax, %eax
	movss	148(%rdi), %xmm6
	leaq	128(%rsp), %rdi
	movss	%xmm5, 24(%rsp)
	movss	%xmm6, 4(%rsp)
.LEHB46:
	call	_ZNK6Entity15get_entity_nameB5cxx11Ev@PLT
.LEHE46:
	movq	136(%rsp), %r13
	movq	128(%rsp), %r14
	cmpq	$3, %r13
	ja	.L1155
	testq	%r13, %r13
	jne	.L1156
.L965:
	leaq	160(%rsp), %r14
	movq	(%rbx), %rsi
	movq	%r14, %rdi
.LEHB47:
	call	_ZNK6Entity15get_entity_nameB5cxx11Ev@PLT
.LEHE47:
	movq	168(%rsp), %r13
	movq	160(%rsp), %rdi
	cmpq	$7, %r13
	ja	.L1157
	movq	$-7, %rax
	testq	%r13, %r13
	jne	.L1158
.L973:
	testl	%eax, %eax
	sete	%r15b
.L972:
	leaq	176(%rsp), %r13
	cmpq	%r13, %rdi
	je	.L977
	movq	176(%rsp), %rax
	leaq	1(%rax), %rsi
	call	_ZdlPvm@PLT
.L977:
	movq	128(%rsp), %rdi
	leaq	144(%rsp), %rax
	cmpq	%rax, %rdi
	je	.L978
	movq	144(%rsp), %rax
	leaq	1(%rax), %rsi
	call	_ZdlPvm@PLT
.L978:
	testb	%r15b, %r15b
	jne	.L976
	leaq	80(%rsp), %r15
	jmp	.L979
	.p2align 4,,10
	.p2align 3
.L1155:
	cmpw	$16717, (%r14)
	jne	.L965
	cmpb	$80, 2(%r14)
	jne	.L965
	subq	$3, %r13
	cmpq	$2147483647, %r13
	jg	.L965
	cmpq	$-2147483648, %r13
	jl	.L965
	jmp	.L1084
	.p2align 4,,10
	.p2align 3
.L1156:
	movq	%r13, %rdx
	leaq	.LC48(%rip), %rsi
	movq	%r14, %rdi
	call	memcmp@PLT
	testl	%eax, %eax
	jne	.L965
	subq	$3, %r13
.L1084:
	testl	%r13d, %r13d
	jne	.L965
	leaq	144(%rsp), %rax
	cmpq	%rax, %r14
	je	.L1151
	movq	144(%rsp), %rax
	movq	%r14, %rdi
	leaq	1(%rax), %rsi
	call	_ZdlPvm@PLT
.L1151:
	leaq	160(%rsp), %r14
	leaq	176(%rsp), %r13
.L976:
	movq	(%rbx), %rsi
	movq	%r14, %rdi
.LEHB48:
	call	_ZNK6Entity15get_entity_nameB5cxx11Ev@PLT
.LEHE48:
	movq	168(%rsp), %r15
	movq	160(%rsp), %rdi
	cmpq	$7, %r15
	ja	.L1159
	testq	%r15, %r15
	jne	.L1160
	cmpq	%r13, %rdi
	je	.L986
	movq	176(%rsp), %rax
	leaq	1(%rax), %rsi
	call	_ZdlPvm@PLT
.L986:
	movq	(%rbx), %rax
	movq	%rax, 16(%rsp)
	movq	8(%rbx), %rax
	movq	%rax, 8(%rsp)
	testq	%rax, %rax
	je	.L1003
	cmpb	$0, __libc_single_threaded(%rip)
	je	.L1004
	addl	$1, 8(%rax)
.L1003:
	movq	160(%rbp), %rax
	leaq	80(%rsp), %r15
	leaq	56(%rsp), %rdi
	movq	%rbp, %rsi
	movq	%r15, %rdx
	movq	%rax, 80(%rsp)
.LEHB49:
	call	_ZNK6Entity14local_to_worldE6Point2IfE@PLT
.LEHE49:
	movq	8(%rsp), %rcx
	movq	16(%rsp), %xmm0
	movq	56(%rsp), %rax
	movq	%rcx, %xmm6
	punpcklqdq	%xmm6, %xmm0
	movaps	%xmm0, 64(%rsp)
	testq	%rcx, %rcx
	je	.L1005
	cmpb	$0, __libc_single_threaded(%rip)
	je	.L1006
	addl	$1, 8(%rcx)
.L1005:
	leaq	48(%rsp), %rcx
	leaq	64(%rsp), %rdx
	movq	%r15, %rsi
	movq	%r12, %rdi
	leaq	44(%rsp), %r9
	leaq	52(%rsp), %r8
	movq	%rax, 80(%rsp)
	movaps	.LC24(%rip), %xmm0
	movb	$0, 120(%rsp)
	movups	%xmm0, 88(%rsp)
	movaps	.LC25(%rip), %xmm0
	movups	%xmm0, 104(%rsp)
.LEHB50:
	call	_ZN10Rigid_body8distanceER6Engine3RaySt10shared_ptrI6EntityERfS6_S6_.isra.0
.LEHE50:
	movq	72(%rsp), %rdi
	testq	%rdi, %rdi
	je	.L1008
	cmpb	$0, __libc_single_threaded(%rip)
	je	.L1009
	movl	8(%rdi), %edx
	leal	-1(%rdx), %ecx
	movl	%ecx, 8(%rdi)
.L1010:
	cmpl	$1, %edx
	je	.L1161
.L1008:
	testb	%al, %al
	je	.L1015
	movsd	.LC49(%rip), %xmm1
	pxor	%xmm0, %xmm0
	cvtss2sd	44(%rsp), %xmm0
	comisd	%xmm0, %xmm1
	jbe	.L1015
	cmpq	$0, 8(%rsp)
	je	.L1027
.L1069:
	cmpb	$0, __libc_single_threaded(%rip)
	je	.L1020
	movq	8(%rsp), %rsi
	movl	8(%rsi), %edx
	leal	-1(%rdx), %ecx
	movl	%ecx, 8(%rsi)
.L1021:
	cmpl	$1, %edx
	je	.L1162
.L1023:
	testb	%al, %al
	je	.L979
.L1027:
	movl	548(%rbp), %eax
	movb	$1, 200(%rbp)
	andl	$-5, %eax
	cmpl	$2, %eax
	jne	.L979
	movl	$1, 548(%rbp)
	.p2align 4,,10
	.p2align 3
.L979:
	movq	(%rbx), %rsi
	movq	%r14, %rdi
.LEHB51:
	call	_ZNK6Entity15get_entity_nameB5cxx11Ev@PLT
	movq	168(%rsp), %rcx
	cmpq	$4, %rcx
	ja	.L1163
	movq	160(%rsp), %rdi
	testq	%rcx, %rcx
	jne	.L1164
	pxor	%xmm5, %xmm5
	movss	%xmm5, 8(%rsp)
	cmpq	%r13, %rdi
	je	.L1036
	movq	176(%rsp), %rax
	leaq	1(%rax), %rsi
	call	_ZdlPvm@PLT
.L1036:
	movq	(%rbx), %rsi
	movq	%r14, %rdi
	call	_ZNK6Entity15get_entity_nameB5cxx11Ev@PLT
.LEHE51:
	movq	168(%rsp), %r14
	movq	160(%rsp), %rdi
	cmpq	$6, %r14
	ja	.L1165
	testq	%r14, %r14
	jne	.L1166
	cmpq	%r13, %rdi
	je	.L1043
	movq	176(%rsp), %rax
	leaq	1(%rax), %rsi
	call	_ZdlPvm@PLT
.L1043:
	movss	24(%rsp), %xmm4
	movss	4(%rsp), %xmm3
	movss	156(%rbp), %xmm1
	comiss	8(%rsp), %xmm1
	movaps	%xmm4, %xmm0
	unpcklps	%xmm3, %xmm0
	movlps	%xmm0, 144(%rbp)
	jbe	.L1044
	movaps	%xmm3, %xmm2
	movaps	%xmm4, %xmm0
	mulss	%xmm3, %xmm2
	mulss	%xmm4, %xmm0
	addss	%xmm2, %xmm0
	comiss	152(%rbp), %xmm0
	ja	.L1167
.L1044:
	movdqu	(%rbx), %xmm6
	movaps	%xmm6, 80(%rsp)
	movq	88(%rsp), %rax
	testq	%rax, %rax
	je	.L1047
	cmpb	$0, __libc_single_threaded(%rip)
	je	.L1048
	addl	$1, 8(%rax)
.L1047:
	movq	%r15, %rdx
	movq	%r12, %rsi
	movq	%rbp, %rdi
.LEHB52:
	call	_ZN10Rigid_body12on_collisionER6EngineSt10shared_ptrI6EntityE
.LEHE52:
	movq	88(%rsp), %rbp
	testq	%rbp, %rbp
	je	.L960
	cmpb	$0, __libc_single_threaded(%rip)
	je	.L1051
	movl	8(%rbp), %eax
	leal	-1(%rax), %edx
	movl	%edx, 8(%rbp)
.L1052:
	cmpl	$1, %eax
	je	.L1168
.L960:
	movq	200(%rsp), %rax
	subq	%fs:40, %rax
	jne	.L1154
	addq	$216, %rsp
	.cfi_remember_state
	.cfi_def_cfa_offset 56
	popq	%rbx
	.cfi_def_cfa_offset 48
	popq	%rbp
	.cfi_def_cfa_offset 40
	popq	%r12
	.cfi_def_cfa_offset 32
	popq	%r13
	.cfi_def_cfa_offset 24
	popq	%r14
	.cfi_def_cfa_offset 16
	popq	%r15
	.cfi_def_cfa_offset 8
	ret
	.p2align 4,,10
	.p2align 3
.L1158:
	.cfi_restore_state
	movq	%r13, %rdx
	leaq	.LC13(%rip), %rsi
	movq	%rdi, 8(%rsp)
	call	memcmp@PLT
	movq	8(%rsp), %rdi
	testl	%eax, %eax
	je	.L1083
.L1150:
	xorl	%r15d, %r15d
	jmp	.L972
	.p2align 4,,10
	.p2align 3
.L1165:
	movl	$6, %edx
	leaq	.LC51(%rip), %rsi
	movq	%rdi, 16(%rsp)
	call	memcmp@PLT
	movq	16(%rsp), %rdi
	testl	%eax, %eax
	jne	.L1039
	subq	$6, %r14
	movl	$2147483647, %eax
	cmpq	$2147483647, %r14
	jle	.L1169
.L1039:
	cmpq	%r13, %rdi
	je	.L1043
.L1065:
	movl	%eax, 16(%rsp)
	movq	176(%rsp), %rax
	leaq	1(%rax), %rsi
	call	_ZdlPvm@PLT
	movl	16(%rsp), %eax
.L1042:
	testl	%eax, %eax
	jne	.L1043
	movl	$12, 548(%rbp)
	movss	8(%rsp), %xmm1
	movss	%xmm1, 4(%rsp)
	movss	%xmm1, 24(%rsp)
	jmp	.L1043
	.p2align 4,,10
	.p2align 3
.L1163:
	movq	160(%rsp), %rdi
	movl	$4, %edx
	movq	%rcx, 16(%rsp)
	leaq	.LC50(%rip), %rsi
	movq	%rdi, 8(%rsp)
	call	memcmp@PLT
	movq	8(%rsp), %rdi
	movq	16(%rsp), %rcx
	testl	%eax, %eax
	jne	.L1032
	subq	$4, %rcx
	movl	$2147483647, %eax
	cmpq	$2147483647, %rcx
	jle	.L1170
.L1032:
	cmpq	%r13, %rdi
	je	.L1152
.L1067:
	movl	%eax, 8(%rsp)
	movq	176(%rsp), %rax
	leaq	1(%rax), %rsi
	call	_ZdlPvm@PLT
	movl	8(%rsp), %eax
.L1035:
	testl	%eax, %eax
	jne	.L1152
	movl	$11, 548(%rbp)
	pxor	%xmm7, %xmm7
	movss	%xmm7, 4(%rsp)
	movss	%xmm7, 8(%rsp)
	movss	%xmm7, 24(%rsp)
	jmp	.L1036
	.p2align 4,,10
	.p2align 3
.L1015:
	xorl	%eax, %eax
	cmpq	$0, 8(%rsp)
	jne	.L1069
	jmp	.L979
	.p2align 4,,10
	.p2align 3
.L1159:
	movl	$7, %edx
	leaq	.LC13(%rip), %rsi
	movq	%rdi, 8(%rsp)
	call	memcmp@PLT
	movq	8(%rsp), %rdi
	testl	%eax, %eax
	jne	.L982
	subq	$7, %r15
	movl	$2147483647, %eax
	cmpq	$2147483647, %r15
	jle	.L1171
.L982:
	cmpq	%r13, %rdi
	je	.L986
.L1072:
	movl	%eax, 8(%rsp)
	movq	176(%rsp), %rax
	leaq	1(%rax), %rsi
	call	_ZdlPvm@PLT
	movl	8(%rsp), %eax
.L985:
	movq	(%rbx), %rdi
	testl	%eax, %eax
	jne	.L986
	testq	%rdi, %rdi
	je	.L986
	xorl	%ecx, %ecx
	leaq	_ZTI7Lemming(%rip), %rdx
	leaq	_ZTI6Entity(%rip), %rsi
	call	__dynamic_cast@PLT
	testq	%rax, %rax
	je	.L986
	movq	8(%rbx), %r15
	testq	%r15, %r15
	je	.L988
	cmpb	$0, __libc_single_threaded(%rip)
	je	.L989
	addl	$1, 8(%r15)
.L990:
	cmpl	$3, 548(%rax)
	jne	.L1086
	cmpb	$0, __libc_single_threaded(%rip)
	je	.L1172
	movl	8(%r15), %eax
	leal	-1(%rax), %edx
	movl	%edx, 8(%r15)
.L1000:
	cmpl	$1, %eax
	jne	.L986
	movq	(%r15), %rax
	movq	%r15, %rdi
	call	*16(%rax)
	cmpb	$0, __libc_single_threaded(%rip)
	je	.L1001
	movl	12(%r15), %eax
	leal	-1(%rax), %edx
	movl	%edx, 12(%r15)
.L1002:
	cmpl	$1, %eax
	jne	.L986
	movq	(%r15), %rax
	movq	%r15, %rdi
	call	*24(%rax)
	jmp	.L986
	.p2align 4,,10
	.p2align 3
.L1152:
	pxor	%xmm6, %xmm6
	movss	%xmm6, 8(%rsp)
	jmp	.L1036
	.p2align 4,,10
	.p2align 3
.L1048:
	lock addl	$1, 8(%rax)
	jmp	.L1047
	.p2align 4,,10
	.p2align 3
.L1166:
	movq	%r14, %rdx
	leaq	.LC51(%rip), %rsi
	movq	%rdi, 16(%rsp)
	call	memcmp@PLT
	movq	16(%rsp), %rdi
	testl	%eax, %eax
	jne	.L1039
	subq	$6, %r14
.L1075:
	movl	%r14d, %eax
	cmpq	%r13, %rdi
	jne	.L1065
	jmp	.L1042
	.p2align 4,,10
	.p2align 3
.L1164:
	movq	%rcx, %rdx
	leaq	.LC50(%rip), %rsi
	movq	%rcx, 16(%rsp)
	movq	%rdi, 8(%rsp)
	call	memcmp@PLT
	movq	8(%rsp), %rdi
	movq	16(%rsp), %rcx
	testl	%eax, %eax
	jne	.L1032
	subq	$4, %rcx
.L1078:
	movl	%ecx, %eax
	cmpq	%r13, %rdi
	jne	.L1067
	jmp	.L1035
	.p2align 4,,10
	.p2align 3
.L1167:
	movaps	%xmm0, %xmm2
	rsqrtss	%xmm2, %xmm2
	mulss	%xmm2, %xmm0
	mulss	%xmm2, %xmm0
	mulss	.LC7(%rip), %xmm2
	addss	.LC6(%rip), %xmm0
	mulss	%xmm2, %xmm0
	movaps	%xmm4, %xmm2
	mulss	%xmm1, %xmm2
	mulss	%xmm3, %xmm1
	shufps	$0xe0, %xmm0, %xmm0
	unpcklps	%xmm1, %xmm2
	mulps	%xmm2, %xmm0
	movlps	%xmm0, 144(%rbp)
	jmp	.L1044
	.p2align 4,,10
	.p2align 3
.L1168:
	movq	0(%rbp), %rax
	movq	%rbp, %rdi
	call	*16(%rax)
	cmpb	$0, __libc_single_threaded(%rip)
	je	.L1054
	movl	12(%rbp), %eax
	leal	-1(%rax), %edx
	movl	%edx, 12(%rbp)
.L1055:
	cmpl	$1, %eax
	jne	.L960
	movq	200(%rsp), %rax
	subq	%fs:40, %rax
	jne	.L1154
	movq	0(%rbp), %rax
	movq	%rbp, %rdi
	movq	24(%rax), %rax
.L1153:
	addq	$216, %rsp
	.cfi_remember_state
	.cfi_def_cfa_offset 56
	popq	%rbx
	.cfi_def_cfa_offset 48
	popq	%rbp
	.cfi_def_cfa_offset 40
	popq	%r12
	.cfi_def_cfa_offset 32
	popq	%r13
	.cfi_def_cfa_offset 24
	popq	%r14
	.cfi_def_cfa_offset 16
	popq	%r15
	.cfi_def_cfa_offset 8
	jmp	*%rax
	.p2align 4,,10
	.p2align 3
.L1051:
	.cfi_restore_state
	movl	$-1, %eax
	lock xaddl	%eax, 8(%rbp)
	jmp	.L1052
	.p2align 4,,10
	.p2align 3
.L1157:
	cmpl	$1835885900, (%rdi)
	jne	.L1150
	cmpw	$28265, 4(%rdi)
	jne	.L1150
	cmpb	$103, 6(%rdi)
	jne	.L1150
	leaq	-7(%r13), %rax
	xorl	%r15d, %r15d
	cmpq	$2147483647, %rax
	jg	.L972
	cmpq	$-2147483648, %rax
	jl	.L972
	jmp	.L973
	.p2align 4,,10
	.p2align 3
.L1160:
	movq	%r15, %rdx
	leaq	.LC13(%rip), %rsi
	movq	%rdi, 8(%rsp)
	call	memcmp@PLT
	movq	8(%rsp), %rdi
	testl	%eax, %eax
	jne	.L982
	subq	$7, %r15
.L1081:
	movl	%r15d, %eax
	cmpq	%r13, %rdi
	jne	.L1072
	jmp	.L985
	.p2align 4,,10
	.p2align 3
.L1004:
	lock addl	$1, 8(%rax)
	jmp	.L1003
	.p2align 4,,10
	.p2align 3
.L1006:
	lock addl	$1, 8(%rcx)
	jmp	.L1005
	.p2align 4,,10
	.p2align 3
.L1161:
	movq	(%rdi), %rdx
	movb	%al, 31(%rsp)
	movq	%rdi, 16(%rsp)
	call	*16(%rdx)
	cmpb	$0, __libc_single_threaded(%rip)
	movq	16(%rsp), %rdi
	movzbl	31(%rsp), %eax
	je	.L1012
	movl	12(%rdi), %edx
	leal	-1(%rdx), %ecx
	movl	%ecx, 12(%rdi)
.L1013:
	cmpl	$1, %edx
	jne	.L1008
	movq	(%rdi), %rdx
	movb	%al, 16(%rsp)
	call	*24(%rdx)
	movzbl	16(%rsp), %eax
	jmp	.L1008
	.p2align 4,,10
	.p2align 3
.L1162:
	movq	8(%rsp), %rsi
	movb	%al, 16(%rsp)
	movq	(%rsi), %rdx
	movq	%rsi, %rdi
	call	*16(%rdx)
	cmpb	$0, __libc_single_threaded(%rip)
	movzbl	16(%rsp), %eax
	je	.L1024
	movq	8(%rsp), %rsi
	movl	12(%rsi), %edx
	leal	-1(%rdx), %ecx
	movl	%ecx, 12(%rsi)
.L1025:
	cmpl	$1, %edx
	jne	.L1023
	movq	8(%rsp), %rdi
	movb	%al, 16(%rsp)
	movq	(%rdi), %rdx
	call	*24(%rdx)
	movzbl	16(%rsp), %eax
	jmp	.L1023
	.p2align 4,,10
	.p2align 3
.L1020:
	movq	8(%rsp), %rcx
	movl	$-1, %edx
	lock xaddl	%edx, 8(%rcx)
	jmp	.L1021
	.p2align 4,,10
	.p2align 3
.L1009:
	movl	$-1, %edx
	lock xaddl	%edx, 8(%rdi)
	jmp	.L1010
	.p2align 4,,10
	.p2align 3
.L1054:
	movl	$-1, %eax
	lock xaddl	%eax, 12(%rbp)
	jmp	.L1055
	.p2align 4,,10
	.p2align 3
.L989:
	lock addl	$1, 8(%r15)
	jmp	.L990
	.p2align 4,,10
	.p2align 3
.L1083:
	leaq	-7(%r13), %rax
	jmp	.L973
	.p2align 4,,10
	.p2align 3
.L1086:
	cmpb	$0, __libc_single_threaded(%rip)
	je	.L993
	movl	8(%r15), %eax
	leal	-1(%rax), %edx
	movl	%edx, 8(%r15)
.L994:
	cmpl	$1, %eax
	jne	.L960
	movq	(%r15), %rax
	movq	%r15, %rdi
	call	*16(%rax)
	cmpb	$0, __libc_single_threaded(%rip)
	je	.L996
	movl	12(%r15), %eax
	leal	-1(%rax), %edx
	movl	%edx, 12(%r15)
.L997:
	cmpl	$1, %eax
	jne	.L960
	movq	200(%rsp), %rax
	subq	%fs:40, %rax
	jne	.L1154
	movq	(%r15), %rax
	movq	%r15, %rdi
	movq	24(%rax), %rax
	jmp	.L1153
	.p2align 4,,10
	.p2align 3
.L1172:
	movl	$-1, %eax
	lock xaddl	%eax, 8(%r15)
	jmp	.L1000
	.p2align 4,,10
	.p2align 3
.L988:
	cmpl	$3, 548(%rax)
	je	.L986
	jmp	.L960
	.p2align 4,,10
	.p2align 3
.L1024:
	movq	8(%rsp), %rcx
	movl	$-1, %edx
	lock xaddl	%edx, 12(%rcx)
	jmp	.L1025
	.p2align 4,,10
	.p2align 3
.L1012:
	movl	$-1, %edx
	lock xaddl	%edx, 12(%rdi)
	jmp	.L1013
	.p2align 4,,10
	.p2align 3
.L993:
	movl	$-1, %eax
	lock xaddl	%eax, 8(%r15)
	jmp	.L994
.L1001:
	movl	$-1, %eax
	lock xaddl	%eax, 12(%r15)
	jmp	.L1002
.L1170:
	cmpq	$-2147483648, %rcx
	jge	.L1078
	movl	$-2147483648, %eax
	jmp	.L1032
.L1169:
	cmpq	$-2147483648, %r14
	jge	.L1075
	movl	$-2147483648, %eax
	jmp	.L1039
.L996:
	movl	$-1, %eax
	lock xaddl	%eax, 12(%r15)
	jmp	.L997
.L1171:
	cmpq	$-2147483648, %r15
	jge	.L1081
	movl	$-2147483648, %eax
	jmp	.L982
.L1154:
	call	__stack_chk_fail@PLT
.L1103:
	endbr64
	movq	%rax, %rbp
	jmp	.L1063
.L1105:
	endbr64
	movq	%rax, %rbp
	jmp	.L1057
.L1104:
	endbr64
	movq	%rax, %rbp
	jmp	.L1016
.L1101:
	endbr64
	movq	%rax, %rbp
	jmp	.L1060
.L1102:
	endbr64
	movq	%rax, %rbp
	jmp	.L1018
.L1063:
	movq	88(%rsp), %rdi
	testq	%rdi, %rdi
	je	.L1064
	call	_ZNSt16_Sp_counted_baseILN9__gnu_cxx12_Lock_policyE2EE10_M_releaseEv
	jmp	.L1064
.L1057:
	movq	128(%rsp), %rdi
	leaq	144(%rsp), %rax
	cmpq	%rax, %rdi
	je	.L1064
	movq	144(%rsp), %rax
	leaq	1(%rax), %rsi
	call	_ZdlPvm@PLT
.L1064:
	movq	%rbp, %rdi
.LEHB53:
	call	_Unwind_Resume@PLT
.LEHE53:
.L1060:
	jmp	.L1064
.L1016:
	movq	72(%rsp), %rdi
	testq	%rdi, %rdi
	je	.L1018
	call	_ZNSt16_Sp_counted_baseILN9__gnu_cxx12_Lock_policyE2EE10_M_releaseEv
.L1018:
	cmpq	$0, 8(%rsp)
	je	.L1064
	movq	8(%rsp), %rdi
	call	_ZNSt16_Sp_counted_baseILN9__gnu_cxx12_Lock_policyE2EE10_M_releaseEv
	jmp	.L1064
	.cfi_endproc
.LFE12086:
	.section	.gcc_except_table
.LLSDA12086:
	.byte	0xff
	.byte	0xff
	.byte	0x1
	.uleb128 .LLSDACSE12086-.LLSDACSB12086
.LLSDACSB12086:
	.uleb128 .LEHB46-.LFB12086
	.uleb128 .LEHE46-.LEHB46
	.uleb128 .L1101-.LFB12086
	.uleb128 0
	.uleb128 .LEHB47-.LFB12086
	.uleb128 .LEHE47-.LEHB47
	.uleb128 .L1105-.LFB12086
	.uleb128 0
	.uleb128 .LEHB48-.LFB12086
	.uleb128 .LEHE48-.LEHB48
	.uleb128 0
	.uleb128 0
	.uleb128 .LEHB49-.LFB12086
	.uleb128 .LEHE49-.LEHB49
	.uleb128 .L1102-.LFB12086
	.uleb128 0
	.uleb128 .LEHB50-.LFB12086
	.uleb128 .LEHE50-.LEHB50
	.uleb128 .L1104-.LFB12086
	.uleb128 0
	.uleb128 .LEHB51-.LFB12086
	.uleb128 .LEHE51-.LEHB51
	.uleb128 0
	.uleb128 0
	.uleb128 .LEHB52-.LFB12086
	.uleb128 .LEHE52-.LEHB52
	.uleb128 .L1103-.LFB12086
	.uleb128 0
	.uleb128 .LEHB53-.LFB12086
	.uleb128 .LEHE53-.LEHB53
	.uleb128 0
	.uleb128 0
.LLSDACSE12086:
	.section	.text._ZN7Lemming12on_collisionER6EngineSt10shared_ptrI6EntityE,"axG",@progbits,_ZN7Lemming12on_collisionER6EngineSt10shared_ptrI6EntityE,comdat
	.size	_ZN7Lemming12on_collisionER6EngineSt10shared_ptrI6EntityE, .-_ZN7Lemming12on_collisionER6EngineSt10shared_ptrI6EntityE
	.section	.text._ZNSt7__cxx1112basic_stringIcSt11char_traitsIcESaIcEE9_M_mutateEmmPKcm,"axG",@progbits,_ZNSt7__cxx1112basic_stringIcSt11char_traitsIcESaIcEE9_M_mutateEmmPKcm,comdat
	.align 2
	.p2align 4
	.weak	_ZNSt7__cxx1112basic_stringIcSt11char_traitsIcESaIcEE9_M_mutateEmmPKcm
	.type	_ZNSt7__cxx1112basic_stringIcSt11char_traitsIcESaIcEE9_M_mutateEmmPKcm, @function
_ZNSt7__cxx1112basic_stringIcSt11char_traitsIcESaIcEE9_M_mutateEmmPKcm:
.LFB13118:
	.cfi_startproc
	endbr64
	pushq	%r15
	.cfi_def_cfa_offset 16
	.cfi_offset 15, -16
	pushq	%r14
	.cfi_def_cfa_offset 24
	.cfi_offset 14, -24
	movq	%r8, %r14
	pushq	%r13
	.cfi_def_cfa_offset 32
	.cfi_offset 13, -32
	pushq	%r12
	.cfi_def_cfa_offset 40
	.cfi_offset 12, -40
	movq	%rsi, %r12
	addq	%rdx, %rsi
	pushq	%rbp
	.cfi_def_cfa_offset 48
	.cfi_offset 6, -48
	movq	%r8, %rbp
	pushq	%rbx
	.cfi_def_cfa_offset 56
	.cfi_offset 3, -56
	movq	%rdi, %rbx
	subq	%rdx, %rbp
	leaq	16(%rbx), %r13
	subq	$40, %rsp
	.cfi_def_cfa_offset 96
	movq	8(%rdi), %rax
	movq	%rsi, 24(%rsp)
	movq	%rax, %rdi
	addq	%rax, %rbp
	subq	%rsi, %rdi
	movq	%rdi, 8(%rsp)
	cmpq	(%rbx), %r13
	je	.L1186
	movq	16(%rbx), %rax
.L1174:
	testq	%rbp, %rbp
	js	.L1200
	cmpq	%rax, %rbp
	jbe	.L1176
	addq	%rax, %rax
	cmpq	%rax, %rbp
	jnb	.L1176
	testq	%rax, %rax
	js	.L1177
	movq	%rax, %rbp
	.p2align 4,,10
	.p2align 3
.L1176:
	movq	%rbp, %rdi
	addq	$1, %rdi
	js	.L1177
	movq	%rcx, 16(%rsp)
	call	_Znwm@PLT
	testq	%r12, %r12
	movq	16(%rsp), %rcx
	movq	%rax, %r15
	je	.L1179
	movq	(%rbx), %rsi
	cmpq	$1, %r12
	je	.L1201
	movq	%r12, %rdx
	movq	%rax, %rdi
	movq	%rcx, 16(%rsp)
	call	memcpy@PLT
	movq	16(%rsp), %rcx
.L1179:
	testq	%rcx, %rcx
	je	.L1181
	testq	%r14, %r14
	je	.L1181
	leaq	(%r15,%r12), %rdi
	cmpq	$1, %r14
	je	.L1202
	movq	%r14, %rdx
	movq	%rcx, %rsi
	call	memcpy@PLT
.L1181:
	movq	8(%rsp), %rax
	movq	(%rbx), %r9
	testq	%rax, %rax
	je	.L1183
.L1204:
	movq	24(%rsp), %rsi
	leaq	(%r12,%r14), %r8
	leaq	(%r15,%r8), %rdi
	addq	%r9, %rsi
	cmpq	$1, %rax
	je	.L1203
	movq	%rax, %rdx
	movq	%r9, 16(%rsp)
	call	memcpy@PLT
	movq	16(%rsp), %r9
.L1183:
	cmpq	%r9, %r13
	je	.L1185
.L1205:
	movq	16(%rbx), %rax
	movq	%r9, %rdi
	leaq	1(%rax), %rsi
	call	_ZdlPvm@PLT
.L1185:
	movq	%r15, (%rbx)
	movq	%rbp, 16(%rbx)
	addq	$40, %rsp
	.cfi_remember_state
	.cfi_def_cfa_offset 56
	popq	%rbx
	.cfi_def_cfa_offset 48
	popq	%rbp
	.cfi_def_cfa_offset 40
	popq	%r12
	.cfi_def_cfa_offset 32
	popq	%r13
	.cfi_def_cfa_offset 24
	popq	%r14
	.cfi_def_cfa_offset 16
	popq	%r15
	.cfi_def_cfa_offset 8
	ret
	.p2align 4,,10
	.p2align 3
.L1177:
	.cfi_restore_state
	call	_ZSt17__throw_bad_allocv@PLT
	.p2align 4,,10
	.p2align 3
.L1186:
	movl	$15, %eax
	jmp	.L1174
	.p2align 4,,10
	.p2align 3
.L1201:
	movzbl	(%rsi), %eax
	movb	%al, (%r15)
	jmp	.L1179
	.p2align 4,,10
	.p2align 3
.L1202:
	movzbl	(%rcx), %eax
	movq	(%rbx), %r9
	movb	%al, (%rdi)
	movq	8(%rsp), %rax
	testq	%rax, %rax
	je	.L1183
	jmp	.L1204
	.p2align 4,,10
	.p2align 3
.L1203:
	movzbl	(%rsi), %eax
	movb	%al, (%rdi)
	cmpq	%r9, %r13
	jne	.L1205
	jmp	.L1185
.L1200:
	leaq	.LC4(%rip), %rdi
	call	_ZSt20__throw_length_errorPKc@PLT
	.cfi_endproc
.LFE13118:
	.size	_ZNSt7__cxx1112basic_stringIcSt11char_traitsIcESaIcEE9_M_mutateEmmPKcm, .-_ZNSt7__cxx1112basic_stringIcSt11char_traitsIcESaIcEE9_M_mutateEmmPKcm
	.section	.rodata._ZN13Lemmings_game15on_game_startupER6Engine.str1.1,"aMS",@progbits,1
.LC58:
	.string	"Entity"
.LC59:
	.string	"basic_string::append"
.LC60:
	.string	"_0_0.png"
	.section	.text._ZN13Lemmings_game15on_game_startupER6Engine,"axG",@progbits,_ZN13Lemmings_game15on_game_startupER6Engine,comdat
	.align 2
	.p2align 4
	.weak	_ZN13Lemmings_game15on_game_startupER6Engine
	.type	_ZN13Lemmings_game15on_game_startupER6Engine, @function
_ZN13Lemmings_game15on_game_startupER6Engine:
.LFB12141:
	.cfi_startproc
	.cfi_personality 0x9b,DW.ref.__gxx_personality_v0
	.cfi_lsda 0x1b,.LLSDA12141
	endbr64
	pushq	%rbp
	.cfi_def_cfa_offset 16
	.cfi_offset 6, -16
	movq	%rsp, %rbp
	.cfi_def_cfa_register 6
	pushq	%r15
	pushq	%r14
	.cfi_offset 15, -24
	.cfi_offset 14, -32
	leaq	-96(%rbp), %r15
	movq	%rsi, %r14
	pushq	%r13
	pushq	%r12
	pushq	%rbx
	.cfi_offset 13, -40
	.cfi_offset 12, -48
	.cfi_offset 3, -56
	leaq	-80(%rbp), %rbx
	subq	$536, %rsp
	movq	%rdi, -448(%rbp)
	movl	$34, %edi
	movq	%rsi, -440(%rbp)
	movq	%fs:40, %rax
	movq	%rax, -56(%rbp)
	xorl	%eax, %eax
	movq	%r15, -400(%rbp)
	movq	%rbx, -96(%rbp)
.LEHB54:
	call	_Znwm@PLT
.LEHE54:
	movdqa	.LC68(%rip), %xmm0
	movq	%r15, %rdx
	movq	%r14, %rsi
	movb	$103, 32(%rax)
	movups	%xmm0, (%rax)
	movdqa	.LC69(%rip), %xmm0
	movb	$0, 33(%rax)
	movq	%rax, -96(%rbp)
	movups	%xmm0, 16(%rax)
	leaq	-304(%rbp), %rax
	movq	%rax, %rdi
	movq	$33, -80(%rbp)
	movq	$33, -88(%rbp)
	movq	%rax, -352(%rbp)
.LEHB55:
	call	_ZN6Engine12load_textureERKNSt7__cxx1112basic_stringIcSt11char_traitsIcESaIcEEE@PLT
.LEHE55:
	movq	-96(%rbp), %rdi
	cmpq	%rbx, %rdi
	je	.L1207
	movq	-80(%rbp), %rax
	leaq	1(%rax), %rsi
	call	_ZdlPvm@PLT
.L1207:
	movl	$216, %edi
.LEHB56:
	call	_Znwm@PLT
.LEHE56:
	movq	.LC1(%rip), %rdx
	leaq	-256(%rbp), %r12
	movq	-352(%rbp), %rsi
	movq	%rax, -408(%rbp)
	movq	%r12, %rdi
	addq	$16, %rax
	movq	%r12, -368(%rbp)
	movq	%rdx, -8(%rax)
	leaq	16+_ZTVSt23_Sp_counted_ptr_inplaceI10Rigid_bodySaIS0_ELN9__gnu_cxx12_Lock_policyE2EE(%rip), %rdx
	movq	%rdx, -16(%rax)
	movq	%rax, -416(%rbp)
.LEHB57:
	call	_ZN7TextureC1ERKS_@PLT
.LEHE57:
	leaq	-112(%rbp), %rax
	movl	$16717, %r15d
	leaq	-208(%rbp), %r13
	movabsq	$8026082370797398354, %rdx
	movq	%rax, -128(%rbp)
	movq	%r12, %rsi
	movq	%r13, %rdi
	movl	$10, %r14d
	movq	%rax, -344(%rbp)
	movl	$31076, %eax
	movw	%r15w, -112(%rbp)
	movb	$80, -110(%rbp)
	movq	$3, -120(%rbp)
	movb	$0, -109(%rbp)
	movq	%rbx, -96(%rbp)
	movq	%rdx, -80(%rbp)
	movw	%ax, -72(%rbp)
	movq	$10, -88(%rbp)
	movb	$0, -70(%rbp)
.LEHB58:
	call	_ZN7TextureC1ERKS_@PLT
.LEHE58:
	movq	.LC52(%rip), %rax
	pushq	%rbx
	leaq	-320(%rbp), %rdx
	leaq	-328(%rbp), %r12
	pushq	%r14
	movq	-344(%rbp), %r9
	movq	%rdx, %rsi
	movq	%r13, %rcx
	movq	%rax, -328(%rbp)
	movq	-416(%rbp), %rdi
	movl	$3, %r8d
	movq	.LC53(%rip), %rax
	movq	%rdx, -384(%rbp)
	movq	%r12, %rdx
	movl	$0x3f800000, -312(%rbp)
	movq	%rax, -320(%rbp)
.LEHB59:
	.cfi_escape 0x2e,0x10
	call	_ZN6EntityC2E6Point3IfE7Vector2IfE7TextureSt17basic_string_viewIcSt11char_traitsIcEES8_@PLT
.LEHE59:
	movq	-184(%rbp), %rcx
	popq	%r11
	popq	%r14
	movq	%rcx, %r15
	testq	%rcx, %rcx
	je	.L1209
	cmpb	$0, __libc_single_threaded(%rip)
	je	.L1210
	movl	8(%rcx), %eax
	leal	-1(%rax), %edx
	movl	%edx, 8(%rcx)
.L1211:
	cmpl	$1, %eax
	je	.L1600
.L1209:
	movq	-200(%rbp), %rcx
	movq	%rcx, %r15
	testq	%rcx, %rcx
	je	.L1216
	cmpb	$0, __libc_single_threaded(%rip)
	je	.L1217
	movl	8(%rcx), %eax
	leal	-1(%rax), %edx
	movl	%edx, 8(%rcx)
.L1218:
	cmpl	$1, %eax
	je	.L1601
.L1216:
	movq	-408(%rbp), %rax
	movaps	.LC30(%rip), %xmm1
	leaq	16+_ZTV10Rigid_body(%rip), %rdx
	movaps	.LC31(%rip), %xmm2
	movaps	.LC32(%rip), %xmm3
	movq	-96(%rbp), %rdi
	movq	%rdx, 16(%rax)
	movl	$0x00000000, 212(%rax)
	movb	$0, 208(%rax)
	movups	%xmm1, 160(%rax)
	movups	%xmm2, 176(%rax)
	movups	%xmm3, 192(%rax)
	cmpq	%rbx, %rdi
	je	.L1223
	movq	-80(%rbp), %rax
	leaq	1(%rax), %rsi
	call	_ZdlPvm@PLT
.L1223:
	movq	-128(%rbp), %rdi
	cmpq	-344(%rbp), %rdi
	je	.L1226
	movq	-112(%rbp), %rax
	leaq	1(%rax), %rsi
	call	_ZdlPvm@PLT
.L1226:
	movq	-232(%rbp), %rcx
	movq	%rcx, %r15
	testq	%rcx, %rcx
	je	.L1228
	cmpb	$0, __libc_single_threaded(%rip)
	je	.L1229
	movl	8(%rcx), %eax
	leal	-1(%rax), %edx
	movl	%edx, 8(%rcx)
.L1230:
	cmpl	$1, %eax
	je	.L1602
.L1228:
	movq	-248(%rbp), %rdi
	testq	%rdi, %rdi
	je	.L1234
	call	_ZNSt16_Sp_counted_baseILN9__gnu_cxx12_Lock_policyE2EE10_M_releaseEv
.L1234:
	movl	$216, %edi
.LEHB60:
	.cfi_escape 0x2e,0
	call	_Znwm@PLT
.LEHE60:
	movq	.LC1(%rip), %rdx
	movq	-352(%rbp), %rsi
	movq	%rax, -456(%rbp)
	addq	$16, %rax
	movq	-368(%rbp), %rdi
	movq	%rdx, -8(%rax)
	leaq	16+_ZTVSt23_Sp_counted_ptr_inplaceI10Rigid_bodySaIS0_ELN9__gnu_cxx12_Lock_policyE2EE(%rip), %rdx
	movq	%rdx, -16(%rax)
	movq	%rax, -432(%rbp)
.LEHB61:
	call	_ZN7TextureC1ERKS_@PLT
.LEHE61:
	movq	-344(%rbp), %rax
	movl	$16717, %r9d
	movq	-368(%rbp), %rsi
	movabsq	$8026082370797398354, %rdx
	movl	$31076, %r10d
	movq	%r13, %rdi
	movb	$80, -110(%rbp)
	movl	$10, %r14d
	movq	%rax, -128(%rbp)
	movw	%r9w, -112(%rbp)
	movq	$3, -120(%rbp)
	movb	$0, -109(%rbp)
	movq	%rbx, -96(%rbp)
	movq	%rdx, -80(%rbp)
	movw	%r10w, -72(%rbp)
	movq	$10, -88(%rbp)
	movb	$0, -70(%rbp)
.LEHB62:
	call	_ZN7TextureC1ERKS_@PLT
.LEHE62:
	movq	.LC54(%rip), %rdx
	pushq	%rbx
	movl	$3, %r8d
	movq	%r13, %rcx
	movq	.LC55(%rip), %rax
	movq	-344(%rbp), %r9
	pushq	%r14
	movq	-384(%rbp), %rsi
	movq	-432(%rbp), %rdi
	movq	%rdx, -328(%rbp)
	movq	%r12, %rdx
	movq	%rax, -320(%rbp)
	movl	$0x3f800000, -312(%rbp)
.LEHB63:
	.cfi_escape 0x2e,0x10
	call	_ZN6EntityC2E6Point3IfE7Vector2IfE7TextureSt17basic_string_viewIcSt11char_traitsIcEES8_@PLT
.LEHE63:
	movq	-184(%rbp), %rcx
	popq	%rdi
	popq	%r8
	movq	%rcx, %r15
	testq	%rcx, %rcx
	je	.L1241
	cmpb	$0, __libc_single_threaded(%rip)
	je	.L1242
	movl	8(%rcx), %eax
	leal	-1(%rax), %edx
	movl	%edx, 8(%rcx)
.L1243:
	cmpl	$1, %eax
	je	.L1603
.L1241:
	movq	-200(%rbp), %rdi
	testq	%rdi, %rdi
	je	.L1247
	call	_ZNSt16_Sp_counted_baseILN9__gnu_cxx12_Lock_policyE2EE10_M_releaseEv
.L1247:
	movq	-456(%rbp), %rax
	movq	-96(%rbp), %rdi
	leaq	16+_ZTV10Rigid_body(%rip), %rdx
	movaps	.LC30(%rip), %xmm7
	movaps	.LC32(%rip), %xmm4
	movq	%rdx, 16(%rax)
	movups	%xmm7, 160(%rax)
	movaps	.LC31(%rip), %xmm7
	movl	$0x00000000, 212(%rax)
	movb	$0, 208(%rax)
	movups	%xmm7, 176(%rax)
	movups	%xmm4, 192(%rax)
	cmpq	%rbx, %rdi
	je	.L1249
	movq	-80(%rbp), %rax
	leaq	1(%rax), %rsi
	call	_ZdlPvm@PLT
.L1249:
	movq	-128(%rbp), %rdi
	cmpq	-344(%rbp), %rdi
	je	.L1252
	movq	-112(%rbp), %rax
	leaq	1(%rax), %rsi
	call	_ZdlPvm@PLT
.L1252:
	movq	-232(%rbp), %rdi
	testq	%rdi, %rdi
	je	.L1253
	call	_ZNSt16_Sp_counted_baseILN9__gnu_cxx12_Lock_policyE2EE10_M_releaseEv
.L1253:
	movq	-248(%rbp), %rcx
	movq	%rcx, %r14
	testq	%rcx, %rcx
	je	.L1255
	cmpb	$0, __libc_single_threaded(%rip)
	je	.L1256
	movl	8(%rcx), %eax
	leal	-1(%rax), %edx
	movl	%edx, 8(%rcx)
.L1257:
	cmpl	$1, %eax
	je	.L1604
.L1255:
	movl	$216, %edi
.LEHB64:
	.cfi_escape 0x2e,0
	call	_Znwm@PLT
.LEHE64:
	movq	.LC1(%rip), %rdx
	movq	-352(%rbp), %rsi
	movq	%rax, -464(%rbp)
	addq	$16, %rax
	movq	-368(%rbp), %rdi
	movq	%rdx, -8(%rax)
	leaq	16+_ZTVSt23_Sp_counted_ptr_inplaceI10Rigid_bodySaIS0_ELN9__gnu_cxx12_Lock_policyE2EE(%rip), %rdx
	movq	%rdx, -16(%rax)
	movq	%rax, -432(%rbp)
.LEHB65:
	call	_ZN7TextureC1ERKS_@PLT
.LEHE65:
	movl	$31076, %esi
	movl	$16717, %ecx
	movq	-344(%rbp), %rax
	movabsq	$8026082370797398354, %rdx
	movw	%si, -72(%rbp)
	movq	-368(%rbp), %rsi
	movq	%r13, %rdi
	movl	$10, %r14d
	movq	%rax, -128(%rbp)
	movw	%cx, -112(%rbp)
	movb	$80, -110(%rbp)
	movq	$3, -120(%rbp)
	movb	$0, -109(%rbp)
	movq	%rbx, -96(%rbp)
	movq	%rdx, -80(%rbp)
	movq	$10, -88(%rbp)
	movb	$0, -70(%rbp)
.LEHB66:
	call	_ZN7TextureC1ERKS_@PLT
.LEHE66:
	movq	.LC54(%rip), %rdx
	pushq	%rbx
	movl	$3, %r8d
	movq	%r13, %rcx
	movq	.LC56(%rip), %rax
	movq	-344(%rbp), %r9
	pushq	%r14
	movq	-384(%rbp), %rsi
	movq	-432(%rbp), %rdi
	movq	%rdx, -328(%rbp)
	movq	%r12, %rdx
	movq	%rax, -320(%rbp)
	movl	$0x3f800000, -312(%rbp)
.LEHB67:
	.cfi_escape 0x2e,0x10
	call	_ZN6EntityC2E6Point3IfE7Vector2IfE7TextureSt17basic_string_viewIcSt11char_traitsIcEES8_@PLT
.LEHE67:
	movq	-184(%rbp), %rdi
	popq	%rax
	popq	%rdx
	testq	%rdi, %rdi
	je	.L1266
	call	_ZNSt16_Sp_counted_baseILN9__gnu_cxx12_Lock_policyE2EE10_M_releaseEv
.L1266:
	movq	-200(%rbp), %rdi
	testq	%rdi, %rdi
	je	.L1267
	call	_ZNSt16_Sp_counted_baseILN9__gnu_cxx12_Lock_policyE2EE10_M_releaseEv
.L1267:
	movq	-464(%rbp), %rax
	movaps	.LC30(%rip), %xmm5
	leaq	16+_ZTV10Rigid_body(%rip), %rdx
	movaps	.LC31(%rip), %xmm6
	movaps	.LC32(%rip), %xmm1
	movq	-96(%rbp), %rdi
	movq	%rdx, 16(%rax)
	movl	$0x00000000, 212(%rax)
	movb	$0, 208(%rax)
	movups	%xmm5, 160(%rax)
	movups	%xmm6, 176(%rax)
	movups	%xmm1, 192(%rax)
	cmpq	%rbx, %rdi
	je	.L1269
	movq	-80(%rbp), %rax
	leaq	1(%rax), %rsi
	call	_ZdlPvm@PLT
.L1269:
	movq	-128(%rbp), %rdi
	cmpq	-344(%rbp), %rdi
	je	.L1272
	movq	-112(%rbp), %rax
	leaq	1(%rax), %rsi
	call	_ZdlPvm@PLT
.L1272:
	movq	-232(%rbp), %rsi
	movq	%rsi, %r15
	testq	%rsi, %rsi
	je	.L1274
	cmpb	$0, __libc_single_threaded(%rip)
	je	.L1275
	movl	8(%rsi), %eax
	leal	-1(%rax), %edx
	movl	%edx, 8(%rsi)
.L1276:
	cmpl	$1, %eax
	je	.L1605
.L1274:
	movq	-248(%rbp), %rcx
	movq	%rcx, %r14
	testq	%rcx, %rcx
	je	.L1281
	cmpb	$0, __libc_single_threaded(%rip)
	je	.L1282
	movl	8(%rcx), %eax
	leal	-1(%rax), %edx
	movl	%edx, 8(%rcx)
.L1283:
	cmpl	$1, %eax
	je	.L1606
.L1281:
	movl	$216, %edi
.LEHB68:
	.cfi_escape 0x2e,0
	call	_Znwm@PLT
.LEHE68:
	movq	%rax, %r15
	movq	.LC1(%rip), %rax
	movq	-352(%rbp), %rsi
	movq	-368(%rbp), %rdi
	movq	%rax, 8(%r15)
	leaq	16+_ZTVSt23_Sp_counted_ptr_inplaceI10Rigid_bodySaIS0_ELN9__gnu_cxx12_Lock_policyE2EE(%rip), %rax
	movq	%rax, (%r15)
.LEHB69:
	call	_ZN7TextureC1ERKS_@PLT
.LEHE69:
	movl	$16717, %eax
	movq	-344(%rbp), %r14
	movq	%r13, %rdi
	movb	$80, -110(%rbp)
	movw	%ax, -112(%rbp)
	movq	-368(%rbp), %rsi
	movabsq	$8026082370797398354, %rax
	movq	%rax, -80(%rbp)
	movl	$31076, %eax
	movq	%r14, -128(%rbp)
	movq	$3, -120(%rbp)
	movb	$0, -109(%rbp)
	movq	%rbx, -96(%rbp)
	movw	%ax, -72(%rbp)
	movq	$10, -88(%rbp)
	movb	$0, -70(%rbp)
	movq	$10, -432(%rbp)
	movq	%rbx, -424(%rbp)
.LEHB70:
	call	_ZN7TextureC1ERKS_@PLT
.LEHE70:
	movq	.LC54(%rip), %rax
	movq	%r14, %r9
	movq	%r13, %rcx
	movq	%r12, %rdx
	pushq	-424(%rbp)
	movq	-384(%rbp), %rsi
	movl	$3, %r8d
	leaq	16(%r15), %rdi
	pushq	-432(%rbp)
	movq	%rax, -328(%rbp)
	movq	.LC57(%rip), %rax
	movl	$0x3f800000, -312(%rbp)
	movq	%rax, -320(%rbp)
.LEHB71:
	.cfi_escape 0x2e,0x10
	call	_ZN6EntityC2E6Point3IfE7Vector2IfE7TextureSt17basic_string_viewIcSt11char_traitsIcEES8_@PLT
.LEHE71:
	movq	-184(%rbp), %rsi
	popq	%r14
	popq	%rax
	movq	%rsi, %r14
	testq	%rsi, %rsi
	je	.L1293
	cmpb	$0, __libc_single_threaded(%rip)
	je	.L1294
	movl	8(%rsi), %eax
	leal	-1(%rax), %edx
	movl	%edx, 8(%rsi)
.L1295:
	cmpl	$1, %eax
	jne	.L1293
	movq	(%r14), %rax
	movq	%r14, %rdi
	call	*16(%rax)
	cmpb	$0, __libc_single_threaded(%rip)
	je	.L1297
	movl	12(%r14), %eax
	leal	-1(%rax), %edx
	movl	%edx, 12(%r14)
.L1298:
	cmpl	$1, %eax
	je	.L1607
	.p2align 4,,10
	.p2align 3
.L1293:
	movq	-200(%rbp), %rcx
	movq	%rcx, %r14
	testq	%rcx, %rcx
	je	.L1300
	cmpb	$0, __libc_single_threaded(%rip)
	je	.L1301
	movl	8(%rcx), %eax
	leal	-1(%rax), %edx
	movl	%edx, 8(%rcx)
.L1302:
	cmpl	$1, %eax
	jne	.L1300
	movq	(%r14), %rax
	movq	%r14, %rdi
	call	*16(%rax)
	cmpb	$0, __libc_single_threaded(%rip)
	je	.L1304
	movl	12(%r14), %eax
	leal	-1(%rax), %edx
	movl	%edx, 12(%r14)
.L1305:
	cmpl	$1, %eax
	je	.L1608
	.p2align 4,,10
	.p2align 3
.L1300:
	movaps	.LC30(%rip), %xmm2
	movq	-96(%rbp), %rdi
	leaq	16+_ZTV10Rigid_body(%rip), %rax
	movl	$0x00000000, 212(%r15)
	movaps	.LC31(%rip), %xmm3
	movaps	.LC32(%rip), %xmm5
	movq	%rax, 16(%r15)
	movb	$0, 208(%r15)
	movups	%xmm2, 160(%r15)
	movups	%xmm3, 176(%r15)
	movups	%xmm5, 192(%r15)
	cmpq	%rbx, %rdi
	je	.L1307
	movq	-80(%rbp), %rax
	leaq	1(%rax), %rsi
	call	_ZdlPvm@PLT
.L1307:
	movq	-128(%rbp), %rdi
	cmpq	-344(%rbp), %rdi
	je	.L1310
	movq	-112(%rbp), %rax
	leaq	1(%rax), %rsi
	call	_ZdlPvm@PLT
.L1310:
	movq	-232(%rbp), %rsi
	movq	%rsi, %r14
	testq	%rsi, %rsi
	je	.L1312
	cmpb	$0, __libc_single_threaded(%rip)
	je	.L1313
	movl	8(%rsi), %eax
	leal	-1(%rax), %edx
	movl	%edx, 8(%rsi)
.L1314:
	cmpl	$1, %eax
	jne	.L1312
	movq	(%r14), %rax
	movq	%r14, %rdi
	call	*16(%rax)
	cmpb	$0, __libc_single_threaded(%rip)
	je	.L1316
	movl	12(%r14), %eax
	leal	-1(%rax), %edx
	movl	%edx, 12(%r14)
.L1317:
	cmpl	$1, %eax
	je	.L1609
	.p2align 4,,10
	.p2align 3
.L1312:
	movq	-248(%rbp), %rcx
	movq	%rcx, %r14
	testq	%rcx, %rcx
	je	.L1319
	cmpb	$0, __libc_single_threaded(%rip)
	je	.L1320
	movl	8(%rcx), %eax
	leal	-1(%rax), %edx
	movl	%edx, 8(%rcx)
.L1321:
	cmpl	$1, %eax
	jne	.L1319
	movq	(%r14), %rax
	movq	%r14, %rdi
	call	*16(%rax)
	cmpb	$0, __libc_single_threaded(%rip)
	je	.L1323
	movl	12(%r14), %eax
	leal	-1(%rax), %edx
	movl	%edx, 12(%r14)
.L1324:
	cmpl	$1, %eax
	je	.L1610
	.p2align 4,,10
	.p2align 3
.L1319:
	movl	$240, %edi
.LEHB72:
	.cfi_escape 0x2e,0
	call	_Znwm@PLT
.LEHE72:
	movq	%rax, %r14
	movq	.LC1(%rip), %rax
	movl	$17, %edi
	movl	$1919905604, -112(%rbp)
	movq	$4, -120(%rbp)
	movq	%rax, 8(%r14)
	leaq	16+_ZTVSt23_Sp_counted_ptr_inplaceI4DoorSaIS0_ELN9__gnu_cxx12_Lock_policyE2EE(%rip), %rax
	movq	%rax, (%r14)
	leaq	16(%r14), %rax
	movq	%rax, -488(%rbp)
	movq	-344(%rbp), %rax
	movb	$0, -108(%rbp)
	movq	%rax, -128(%rbp)
	leaq	-144(%rbp), %rax
	movq	%rax, -432(%rbp)
	movq	%rax, -160(%rbp)
.LEHB73:
	call	_Znwm@PLT
.LEHE73:
	movdqa	.LC70(%rip), %xmm0
	movq	%rax, %rsi
	movb	$0, 16(%rax)
	movq	-400(%rbp), %rdi
	leaq	16(%rsi), %rdx
	movq	%rax, -160(%rbp)
	movups	%xmm0, (%rax)
	leaq	.LC58(%rip), %rax
	movq	%rax, -472(%rbp)
	movq	-128(%rbp), %rax
	movq	$16, -144(%rbp)
	movq	%rax, -512(%rbp)
	movq	-120(%rbp), %rax
	movq	$16, -152(%rbp)
	movq	$6, -480(%rbp)
	movq	%rax, -496(%rbp)
	movq	%rbx, -96(%rbp)
.LEHB74:
	call	_ZNSt7__cxx1112basic_stringIcSt11char_traitsIcESaIcEE12_M_constructIPcEEvT_S7_St20forward_iterator_tag.isra.0
.LEHE74:
	movabsq	$9223372036854775807, %rax
	movq	-88(%rbp), %r12
	subq	%r12, %rax
	cmpq	$7, %rax
	jbe	.L1611
	movq	-96(%rbp), %rdx
	movl	$15, %eax
	leaq	8(%r12), %rsi
	movq	%rsi, -528(%rbp)
	cmpq	%rbx, %rdx
	cmovne	-80(%rbp), %rax
	cmpq	%rax, %rsi
	ja	.L1332
	movabsq	$7453017777027100767, %rax
	movq	%rax, (%rdx,%r12)
.L1333:
	movq	-528(%rbp), %rax
	movq	-400(%rbp), %rdx
	movq	%r13, %rdi
	movq	-440(%rbp), %rsi
	movq	%rax, -88(%rbp)
	movq	-96(%rbp), %rax
	movb	$0, 8(%rax,%r12)
.LEHB75:
	call	_ZN6Engine12load_textureERKNSt7__cxx1112basic_stringIcSt11char_traitsIcESaIcEEE@PLT
.LEHE75:
	movq	.LC61(%rip), %rax
	pushq	-472(%rbp)
	movq	%r13, %rcx
	movq	-496(%rbp), %r8
	pushq	-480(%rbp)
	movq	-512(%rbp), %r9
	movq	%rax, -320(%rbp)
	movq	-384(%rbp), %rdx
	movq	.LC62(%rip), %rax
	movl	$0x3f800000, -248(%rbp)
	movq	-368(%rbp), %rsi
	movq	-488(%rbp), %rdi
	movq	%rax, -256(%rbp)
.LEHB76:
	.cfi_escape 0x2e,0x10
	call	_ZN6EntityC2E6Point3IfE7Vector2IfE7TextureSt17basic_string_viewIcSt11char_traitsIcEES8_@PLT
.LEHE76:
	movq	-184(%rbp), %rsi
	popq	%r11
	popq	%r12
	movq	%rsi, %r12
	testq	%rsi, %rsi
	je	.L1339
	cmpb	$0, __libc_single_threaded(%rip)
	je	.L1340
	movl	8(%rsi), %eax
	leal	-1(%rax), %edx
	movl	%edx, 8(%rsi)
.L1341:
	cmpl	$1, %eax
	jne	.L1339
	movq	(%r12), %rax
	movq	%r12, %rdi
	call	*16(%rax)
	cmpb	$0, __libc_single_threaded(%rip)
	je	.L1343
	movl	12(%r12), %eax
	leal	-1(%rax), %edx
	movl	%edx, 12(%r12)
.L1344:
	cmpl	$1, %eax
	jne	.L1339
	movq	(%r12), %rax
	movq	%r12, %rdi
	call	*24(%rax)
	.p2align 4,,10
	.p2align 3
.L1339:
	movq	-200(%rbp), %rcx
	movq	%rcx, %r12
	testq	%rcx, %rcx
	je	.L1346
	cmpb	$0, __libc_single_threaded(%rip)
	je	.L1347
	movl	8(%rcx), %eax
	leal	-1(%rax), %edx
	movl	%edx, 8(%rcx)
.L1348:
	cmpl	$1, %eax
	jne	.L1346
	movq	(%r12), %rax
	movq	%r12, %rdi
	call	*16(%rax)
	cmpb	$0, __libc_single_threaded(%rip)
	je	.L1350
	movl	12(%r12), %eax
	leal	-1(%rax), %edx
	movl	%edx, 12(%r12)
.L1351:
	cmpl	$1, %eax
	jne	.L1346
	movq	(%r12), %rax
	movq	%r12, %rdi
	call	*24(%rax)
	.p2align 4,,10
	.p2align 3
.L1346:
	movq	-96(%rbp), %rdi
	cmpq	%rbx, %rdi
	je	.L1352
	movq	-80(%rbp), %rax
	leaq	1(%rax), %rsi
	call	_ZdlPvm@PLT
.L1352:
	leaq	16+_ZTV9Structure(%rip), %rax
	movq	-160(%rbp), %rsi
	movq	-152(%rbp), %rdx
	movl	$0x00000000, 160(%r14)
	movq	%rax, 16(%r14)
	leaq	184(%r14), %rax
	leaq	168(%r14), %rdi
	movq	%rax, 168(%r14)
	addq	%rsi, %rdx
.LEHB77:
	.cfi_escape 0x2e,0
	call	_ZNSt7__cxx1112basic_stringIcSt11char_traitsIcESaIcEE12_M_constructIPcEEvT_S7_St20forward_iterator_tag.isra.0
.LEHE77:
	movq	.LC63(%rip), %rax
	xorl	%r10d, %r10d
	movb	$1, 202(%r14)
	movw	%r10w, 200(%r14)
	movq	-160(%rbp), %rdi
	movq	%rax, 204(%r14)
	movabsq	$4575657221408423946, %rax
	movq	%rax, 212(%r14)
	cmpq	-432(%rbp), %rdi
	je	.L1354
	movq	-144(%rbp), %rax
	leaq	1(%rax), %rsi
	call	_ZdlPvm@PLT
.L1354:
	movq	-128(%rbp), %rdi
	cmpq	-344(%rbp), %rdi
	je	.L1359
	movq	-112(%rbp), %rax
	leaq	1(%rax), %rsi
	call	_ZdlPvm@PLT
.L1359:
	leaq	16+_ZTV4Door(%rip), %rax
	movl	$224, %edi
	movq	$0, 220(%r14)
	movq	%rax, 16(%r14)
	movabsq	$4575657221408423951, %rax
	movq	%rax, 228(%r14)
.LEHB78:
	call	_Znwm@PLT
.LEHE78:
	leaq	8(%rax), %rdx
	movl	$17, %edi
	movq	%rax, -480(%rbp)
	addq	$16, %rax
	movq	%rdx, -560(%rbp)
	movq	.LC1(%rip), %rdx
	movl	$1702125895, -112(%rbp)
	movq	%rdx, -8(%rax)
	leaq	16+_ZTVSt23_Sp_counted_ptr_inplaceI4GateSaIS0_ELN9__gnu_cxx12_Lock_policyE2EE(%rip), %rdx
	movq	%rdx, -16(%rax)
	movq	%rax, -496(%rbp)
	movq	-344(%rbp), %rax
	movq	$4, -120(%rbp)
	movq	%rax, -128(%rbp)
	movq	-432(%rbp), %rax
	movb	$0, -108(%rbp)
	movq	%rax, -160(%rbp)
.LEHB79:
	call	_Znwm@PLT
.LEHE79:
	movdqa	.LC71(%rip), %xmm0
	movq	%rax, %rsi
	movb	$0, 16(%rax)
	movq	-400(%rbp), %rdi
	leaq	16(%rsi), %rdx
	movq	%rax, -160(%rbp)
	movups	%xmm0, (%rax)
	leaq	.LC58(%rip), %rax
	movq	%rax, -504(%rbp)
	movq	-128(%rbp), %rax
	movq	$16, -144(%rbp)
	movq	%rax, -528(%rbp)
	movq	-120(%rbp), %rax
	movq	$16, -152(%rbp)
	movq	$6, -512(%rbp)
	movq	%rax, -536(%rbp)
	movq	%rbx, -96(%rbp)
.LEHB80:
	call	_ZNSt7__cxx1112basic_stringIcSt11char_traitsIcESaIcEE12_M_constructIPcEEvT_S7_St20forward_iterator_tag.isra.0
.LEHE80:
	movabsq	$9223372036854775807, %rax
	movq	-88(%rbp), %r12
	subq	%r12, %rax
	cmpq	$7, %rax
	jbe	.L1612
	movq	-96(%rbp), %rdx
	movl	$15, %eax
	leaq	8(%r12), %rsi
	movq	%rsi, -544(%rbp)
	cmpq	%rbx, %rdx
	cmovne	-80(%rbp), %rax
	cmpq	%rax, %rsi
	ja	.L1367
	movabsq	$7453017777027100767, %rax
	movq	%rax, (%rdx,%r12)
.L1368:
	movq	-544(%rbp), %rax
	movq	-400(%rbp), %rdx
	movq	%r13, %rdi
	movq	-440(%rbp), %rsi
	movq	%rax, -88(%rbp)
	movq	-96(%rbp), %rax
	movb	$0, 8(%rax,%r12)
.LEHB81:
	call	_ZN6Engine12load_textureERKNSt7__cxx1112basic_stringIcSt11char_traitsIcESaIcEEE@PLT
.LEHE81:
	movq	.LC64(%rip), %rax
	pushq	-504(%rbp)
	movq	%r13, %rcx
	movq	-536(%rbp), %r8
	pushq	-512(%rbp)
	movq	-528(%rbp), %r9
	movq	%rax, -320(%rbp)
	movq	-384(%rbp), %rdx
	movq	.LC65(%rip), %rax
	movl	$0x3f800000, -248(%rbp)
	movq	-368(%rbp), %rsi
	movq	-496(%rbp), %rdi
	movq	%rax, -256(%rbp)
.LEHB82:
	.cfi_escape 0x2e,0x10
	call	_ZN6EntityC2E6Point3IfE7Vector2IfE7TextureSt17basic_string_viewIcSt11char_traitsIcEES8_@PLT
.LEHE82:
	movq	-184(%rbp), %r12
	popq	%r8
	popq	%r9
	testq	%r12, %r12
	je	.L1374
	cmpb	$0, __libc_single_threaded(%rip)
	je	.L1375
	movl	8(%r12), %eax
	leal	-1(%rax), %edx
	movl	%edx, 8(%r12)
.L1376:
	cmpl	$1, %eax
	jne	.L1374
	movq	(%r12), %rax
	movq	%r12, %rdi
	call	*16(%rax)
	cmpb	$0, __libc_single_threaded(%rip)
	je	.L1378
	movl	12(%r12), %eax
	leal	-1(%rax), %edx
	movl	%edx, 12(%r12)
.L1379:
	cmpl	$1, %eax
	jne	.L1374
	movq	(%r12), %rax
	movq	%r12, %rdi
	call	*24(%rax)
	.p2align 4,,10
	.p2align 3
.L1374:
	movq	-200(%rbp), %r12
	testq	%r12, %r12
	je	.L1381
	cmpb	$0, __libc_single_threaded(%rip)
	je	.L1382
	movl	8(%r12), %eax
	leal	-1(%rax), %edx
	movl	%edx, 8(%r12)
.L1383:
	cmpl	$1, %eax
	jne	.L1381
	movq	(%r12), %rax
	movq	%r12, %rdi
	call	*16(%rax)
	cmpb	$0, __libc_single_threaded(%rip)
	je	.L1385
	movl	12(%r12), %eax
	leal	-1(%rax), %edx
	movl	%edx, 12(%r12)
.L1386:
	cmpl	$1, %eax
	jne	.L1381
	movq	(%r12), %rax
	movq	%r12, %rdi
	call	*24(%rax)
	.p2align 4,,10
	.p2align 3
.L1381:
	movq	-96(%rbp), %rdi
	cmpq	%rbx, %rdi
	je	.L1387
	movq	-80(%rbp), %rax
	leaq	1(%rax), %rsi
	call	_ZdlPvm@PLT
.L1387:
	movq	-480(%rbp), %r12
	leaq	16+_ZTV9Structure(%rip), %rax
	movq	-160(%rbp), %rsi
	movq	-152(%rbp), %rdx
	movq	%rax, 16(%r12)
	leaq	184(%r12), %rax
	leaq	168(%r12), %rdi
	movl	$0x00000000, 160(%r12)
	addq	%rsi, %rdx
	movq	%rax, 168(%r12)
.LEHB83:
	.cfi_escape 0x2e,0
	call	_ZNSt7__cxx1112basic_stringIcSt11char_traitsIcESaIcEE12_M_constructIPcEEvT_S7_St20forward_iterator_tag.isra.0
.LEHE83:
	movq	.LC63(%rip), %rax
	movl	$1, %edi
	movb	$1, 202(%r12)
	movw	%di, 200(%r12)
	movq	-160(%rbp), %rdi
	movq	%rax, 204(%r12)
	movabsq	$4561245703459831814, %rax
	movq	%rax, 212(%r12)
	cmpq	-432(%rbp), %rdi
	je	.L1389
	movq	-144(%rbp), %rax
	leaq	1(%rax), %rsi
	call	_ZdlPvm@PLT
.L1389:
	movq	-128(%rbp), %rdi
	cmpq	-344(%rbp), %rdi
	je	.L1394
	movq	-112(%rbp), %rax
	leaq	1(%rax), %rsi
	call	_ZdlPvm@PLT
.L1394:
	movq	-480(%rbp), %rax
	leaq	16+_ZTV4Gate(%rip), %rdx
	movl	$224, %edi
	movq	%rdx, 16(%rax)
.LEHB84:
	call	_Znwm@PLT
.LEHE84:
	movq	%rax, %r12
	leaq	8(%rax), %rax
	movl	$25705, %esi
	movl	$21, %edi
	movq	%rax, -568(%rbp)
	movq	.LC1(%rip), %rax
	movl	$1970366796, -112(%rbp)
	movq	%rax, 8(%r12)
	leaq	16+_ZTVSt23_Sp_counted_ptr_inplaceI6LiquidSaIS0_ELN9__gnu_cxx12_Lock_policyE2EE(%rip), %rax
	movq	%rax, (%r12)
	movq	-344(%rbp), %rax
	movw	%si, -108(%rbp)
	movq	%rax, -128(%rbp)
	movq	-432(%rbp), %rax
	movq	$6, -120(%rbp)
	movb	$0, -106(%rbp)
	movq	%rax, -160(%rbp)
.LEHB85:
	call	_Znwm@PLT
.LEHE85:
	movdqa	.LC72(%rip), %xmm0
	movq	%rax, %rsi
	movb	$0, 20(%rax)
	movq	-400(%rbp), %rdi
	movq	%rax, -160(%rbp)
	leaq	20(%rsi), %rdx
	movl	$1684632945, 16(%rax)
	movups	%xmm0, (%rax)
	leaq	.LC58(%rip), %rax
	movq	%rax, -520(%rbp)
	movq	-128(%rbp), %rax
	movq	$20, -144(%rbp)
	movq	%rax, -536(%rbp)
	movq	-120(%rbp), %rax
	movq	$20, -152(%rbp)
	movq	$6, -528(%rbp)
	movq	%rax, -544(%rbp)
	movq	%rbx, -96(%rbp)
.LEHB86:
	call	_ZNSt7__cxx1112basic_stringIcSt11char_traitsIcESaIcEE12_M_constructIPcEEvT_S7_St20forward_iterator_tag.isra.0
.LEHE86:
	movabsq	$9223372036854775807, %rax
	movq	-88(%rbp), %rdx
	subq	%rdx, %rax
	movq	%rdx, -512(%rbp)
	cmpq	$7, %rax
	jbe	.L1613
	leaq	8(%rdx), %rdi
	movq	%rdx, %rcx
	movq	-96(%rbp), %rdx
	movl	$15, %eax
	movq	%rdi, -552(%rbp)
	cmpq	%rbx, %rdx
	cmovne	-80(%rbp), %rax
	cmpq	%rax, %rdi
	ja	.L1402
	movabsq	$7453017777027100767, %rax
	movq	%rax, (%rdx,%rcx)
.L1403:
	movq	-552(%rbp), %rax
	movq	-512(%rbp), %rdx
	movq	%r13, %rdi
	movq	-440(%rbp), %rsi
	movq	%rax, -88(%rbp)
	movq	-96(%rbp), %rax
	movb	$0, 8(%rax,%rdx)
	movq	-400(%rbp), %rdx
.LEHB87:
	call	_ZN6Engine12load_textureERKNSt7__cxx1112basic_stringIcSt11char_traitsIcESaIcEEE@PLT
.LEHE87:
	movq	.LC66(%rip), %rax
	pushq	-520(%rbp)
	movq	%r13, %rcx
	leaq	16(%r12), %rdi
	movq	-544(%rbp), %r8
	pushq	-528(%rbp)
	movq	-536(%rbp), %r9
	movq	%rax, -320(%rbp)
	movq	-384(%rbp), %rdx
	movq	.LC67(%rip), %rax
	movl	$0x3f800000, -248(%rbp)
	movq	-368(%rbp), %rsi
	movq	%rax, -256(%rbp)
.LEHB88:
	.cfi_escape 0x2e,0x10
	call	_ZN6EntityC2E6Point3IfE7Vector2IfE7TextureSt17basic_string_viewIcSt11char_traitsIcEES8_@PLT
.LEHE88:
	movq	-488(%rbp), %xmm5
	movq	%r14, %xmm6
	movq	-184(%rbp), %rdi
	movq	-496(%rbp), %xmm4
	popq	%rdx
	punpcklqdq	%xmm6, %xmm5
	popq	%rcx
	movq	-416(%rbp), %xmm6
	movhps	-480(%rbp), %xmm4
	movaps	%xmm5, -400(%rbp)
	movhps	-408(%rbp), %xmm6
	movaps	%xmm4, -384(%rbp)
	movaps	%xmm6, -368(%rbp)
	testq	%rdi, %rdi
	je	.L1409
	cmpb	$0, __libc_single_threaded(%rip)
	je	.L1410
	movl	8(%rdi), %eax
	leal	-1(%rax), %edx
	movl	%edx, 8(%rdi)
.L1411:
	cmpl	$1, %eax
	je	.L1614
.L1409:
	movq	-200(%rbp), %rdi
	testq	%rdi, %rdi
	je	.L1416
	cmpb	$0, __libc_single_threaded(%rip)
	je	.L1417
	movl	8(%rdi), %eax
	leal	-1(%rax), %edx
	movl	%edx, 8(%rdi)
.L1418:
	cmpl	$1, %eax
	je	.L1615
.L1416:
	movq	-96(%rbp), %rdi
	cmpq	%rbx, %rdi
	je	.L1422
	movq	-80(%rbp), %rax
	leaq	1(%rax), %rsi
	call	_ZdlPvm@PLT
.L1422:
	leaq	16+_ZTV9Structure(%rip), %rax
	movq	-160(%rbp), %rsi
	movq	-152(%rbp), %rdx
	movl	$0x00000000, 160(%r12)
	movq	%rax, 16(%r12)
	leaq	184(%r12), %rax
	leaq	168(%r12), %rdi
	movq	%rax, 168(%r12)
	addq	%rsi, %rdx
.LEHB89:
	.cfi_escape 0x2e,0
	call	_ZNSt7__cxx1112basic_stringIcSt11char_traitsIcESaIcEE12_M_constructIPcEEvT_S7_St20forward_iterator_tag.isra.0
.LEHE89:
	movl	$1, %eax
	movq	-160(%rbp), %rdi
	movb	$1, 202(%r12)
	movw	%ax, 200(%r12)
	movq	.LC63(%rip), %rax
	movq	%rax, 204(%r12)
	movabsq	$4561245703459831814, %rax
	movq	%rax, 212(%r12)
	cmpq	-432(%rbp), %rdi
	je	.L1424
	movq	-144(%rbp), %rax
	leaq	1(%rax), %rsi
	call	_ZdlPvm@PLT
.L1424:
	movq	-128(%rbp), %rdi
	cmpq	-344(%rbp), %rdi
	je	.L1429
	movq	-112(%rbp), %rax
	leaq	1(%rax), %rsi
	call	_ZdlPvm@PLT
.L1429:
	movdqa	-368(%rbp), %xmm2
	leaq	16+_ZTV6Liquid(%rip), %rax
	cmpb	$0, __libc_single_threaded(%rip)
	movq	%rax, 16(%r12)
	movaps	%xmm2, -208(%rbp)
	je	.L1616
	movq	-408(%rbp), %rax
	addl	$1, 8(%rax)
.L1436:
	movq	-448(%rbp), %rdi
	movq	%r13, %rsi
.LEHB90:
	call	_ZN4Game13create_entityESt10shared_ptrI6EntityE@PLT
.LEHE90:
	movq	-200(%rbp), %rdi
	testq	%rdi, %rdi
	je	.L1437
	call	_ZNSt16_Sp_counted_baseILN9__gnu_cxx12_Lock_policyE2EE10_M_releaseEv
.L1437:
	movdqa	-400(%rbp), %xmm7
	cmpb	$0, __libc_single_threaded(%rip)
	movaps	%xmm7, -208(%rbp)
	je	.L1617
	addl	$1, 8(%r14)
.L1438:
	movq	-448(%rbp), %rdi
	movq	%r13, %rsi
.LEHB91:
	call	_ZN4Game13create_entityESt10shared_ptrI6EntityE@PLT
.LEHE91:
	movq	-200(%rbp), %rbx
	movzbl	__libc_single_threaded(%rip), %eax
	testq	%rbx, %rbx
	je	.L1444
	testb	%al, %al
	je	.L1440
	movl	8(%rbx), %eax
	leal	-1(%rax), %edx
	movl	%edx, 8(%rbx)
.L1441:
	cmpl	$1, %eax
	je	.L1618
.L1444:
	movdqa	-384(%rbp), %xmm3
	cmpb	$0, __libc_single_threaded(%rip)
	movaps	%xmm3, -208(%rbp)
	je	.L1619
	movq	-480(%rbp), %rax
	addl	$1, 8(%rax)
.L1445:
	movq	-448(%rbp), %rdi
	movq	%r13, %rsi
.LEHB92:
	call	_ZN4Game13create_entityESt10shared_ptrI6EntityE@PLT
.LEHE92:
	movq	-200(%rbp), %r13
	movzbl	__libc_single_threaded(%rip), %eax
	testq	%r13, %r13
	je	.L1451
	testb	%al, %al
	je	.L1447
	movl	8(%r13), %eax
	leal	-1(%rax), %edx
	movl	%edx, 8(%r13)
.L1448:
	cmpl	$1, %eax
	je	.L1620
.L1451:
	cmpb	$0, __libc_single_threaded(%rip)
	je	.L1621
	movl	8(%r12), %eax
	leal	-1(%rax), %edx
	movl	%edx, 8(%r12)
.L1452:
	cmpl	$1, %eax
	je	.L1622
.L1456:
	cmpb	$0, __libc_single_threaded(%rip)
	je	.L1623
	movq	-480(%rbp), %rbx
	movl	8(%rbx), %eax
	leal	-1(%rax), %edx
	movl	%edx, 8(%rbx)
.L1457:
	cmpl	$1, %eax
	je	.L1624
.L1461:
	movq	%r14, %rdi
	call	_ZNSt16_Sp_counted_baseILN9__gnu_cxx12_Lock_policyE2EE10_M_releaseEv
	movq	%r15, %rdi
	call	_ZNSt16_Sp_counted_baseILN9__gnu_cxx12_Lock_policyE2EE10_M_releaseEv
	movq	-464(%rbp), %rdi
	call	_ZNSt16_Sp_counted_baseILN9__gnu_cxx12_Lock_policyE2EE10_M_releaseEv
	movq	-456(%rbp), %rdi
	call	_ZNSt16_Sp_counted_baseILN9__gnu_cxx12_Lock_policyE2EE10_M_releaseEv
	movq	-408(%rbp), %rdi
	call	_ZNSt16_Sp_counted_baseILN9__gnu_cxx12_Lock_policyE2EE10_M_releaseEv
	movq	-280(%rbp), %rax
	movq	%rax, %rbx
	testq	%rax, %rax
	je	.L1465
	cmpb	$0, __libc_single_threaded(%rip)
	je	.L1462
	movl	8(%rbx), %eax
	leal	-1(%rax), %edx
	movl	%edx, 8(%rbx)
.L1463:
	cmpl	$1, %eax
	je	.L1625
.L1465:
	movq	-296(%rbp), %rbx
	testq	%rbx, %rbx
	je	.L1206
	cmpb	$0, __libc_single_threaded(%rip)
	je	.L1471
	movl	8(%rbx), %eax
	leal	-1(%rax), %edx
	movl	%edx, 8(%rbx)
.L1472:
	cmpl	$1, %eax
	je	.L1626
.L1206:
	movq	-56(%rbp), %rax
	subq	%fs:40, %rax
	jne	.L1627
	leaq	-40(%rbp), %rsp
	popq	%rbx
	popq	%r12
	popq	%r13
	popq	%r14
	popq	%r15
	popq	%rbp
	.cfi_remember_state
	.cfi_def_cfa 7, 8
	ret
	.p2align 4,,10
	.p2align 3
.L1600:
	.cfi_restore_state
	movq	(%r15), %rax
	movq	%r15, %rdi
	call	*16(%rax)
	cmpb	$0, __libc_single_threaded(%rip)
	je	.L1213
	movl	12(%r15), %eax
	leal	-1(%rax), %edx
	movl	%edx, 12(%r15)
.L1214:
	cmpl	$1, %eax
	jne	.L1209
	movq	(%r15), %rax
	movq	%r15, %rdi
	call	*24(%rax)
	jmp	.L1209
	.p2align 4,,10
	.p2align 3
.L1601:
	movq	(%r15), %rax
	movq	%r15, %rdi
	call	*16(%rax)
	cmpb	$0, __libc_single_threaded(%rip)
	je	.L1220
	movl	12(%r15), %eax
	leal	-1(%rax), %edx
	movl	%edx, 12(%r15)
.L1221:
	cmpl	$1, %eax
	jne	.L1216
	movq	(%r15), %rax
	movq	%r15, %rdi
	call	*24(%rax)
	jmp	.L1216
	.p2align 4,,10
	.p2align 3
.L1602:
	movq	(%r15), %rax
	movq	%r15, %rdi
	call	*16(%rax)
	cmpb	$0, __libc_single_threaded(%rip)
	je	.L1232
	movl	12(%r15), %eax
	leal	-1(%rax), %edx
	movl	%edx, 12(%r15)
.L1233:
	cmpl	$1, %eax
	jne	.L1228
	movq	(%r15), %rax
	movq	%r15, %rdi
	call	*24(%rax)
	jmp	.L1228
	.p2align 4,,10
	.p2align 3
.L1603:
	movq	(%r15), %rax
	movq	%r15, %rdi
	call	*16(%rax)
	cmpb	$0, __libc_single_threaded(%rip)
	je	.L1245
	movl	12(%r15), %eax
	leal	-1(%rax), %edx
	movl	%edx, 12(%r15)
.L1246:
	cmpl	$1, %eax
	jne	.L1241
	movq	(%r15), %rax
	movq	%r15, %rdi
	call	*24(%rax)
	jmp	.L1241
	.p2align 4,,10
	.p2align 3
.L1604:
	movq	(%r14), %rax
	movq	%r14, %rdi
	call	*16(%rax)
	cmpb	$0, __libc_single_threaded(%rip)
	je	.L1259
	movl	12(%r14), %eax
	leal	-1(%rax), %edx
	movl	%edx, 12(%r14)
.L1260:
	cmpl	$1, %eax
	jne	.L1255
	movq	(%r14), %rax
	movq	%r14, %rdi
	call	*24(%rax)
	jmp	.L1255
	.p2align 4,,10
	.p2align 3
.L1605:
	movq	(%r15), %rax
	movq	%r15, %rdi
	call	*16(%rax)
	cmpb	$0, __libc_single_threaded(%rip)
	je	.L1278
	movl	12(%r15), %eax
	leal	-1(%rax), %edx
	movl	%edx, 12(%r15)
.L1279:
	cmpl	$1, %eax
	jne	.L1274
	movq	(%r15), %rax
	movq	%r15, %rdi
	call	*24(%rax)
	jmp	.L1274
	.p2align 4,,10
	.p2align 3
.L1606:
	movq	(%r14), %rax
	movq	%r14, %rdi
	call	*16(%rax)
	cmpb	$0, __libc_single_threaded(%rip)
	je	.L1285
	movl	12(%r14), %eax
	leal	-1(%rax), %edx
	movl	%edx, 12(%r14)
.L1286:
	cmpl	$1, %eax
	jne	.L1281
	movq	(%r14), %rax
	movq	%r14, %rdi
	call	*24(%rax)
	jmp	.L1281
	.p2align 4,,10
	.p2align 3
.L1402:
	movq	-400(%rbp), %rdi
	movq	%rcx, %rsi
	movl	$8, %r8d
	xorl	%edx, %edx
	leaq	.LC60(%rip), %rcx
.LEHB93:
	call	_ZNSt7__cxx1112basic_stringIcSt11char_traitsIcESaIcEE9_M_mutateEmmPKcm
.LEHE93:
	jmp	.L1403
	.p2align 4,,10
	.p2align 3
.L1313:
	movl	$-1, %eax
	lock xaddl	%eax, 8(%rsi)
	jmp	.L1314
	.p2align 4,,10
	.p2align 3
.L1301:
	movl	$-1, %eax
	lock xaddl	%eax, 8(%rcx)
	jmp	.L1302
	.p2align 4,,10
	.p2align 3
.L1294:
	movl	$-1, %eax
	lock xaddl	%eax, 8(%rsi)
	jmp	.L1295
	.p2align 4,,10
	.p2align 3
.L1320:
	movl	$-1, %eax
	lock xaddl	%eax, 8(%rcx)
	jmp	.L1321
	.p2align 4,,10
	.p2align 3
.L1340:
	movl	$-1, %eax
	lock xaddl	%eax, 8(%rsi)
	jmp	.L1341
	.p2align 4,,10
	.p2align 3
.L1347:
	movl	$-1, %eax
	lock xaddl	%eax, 8(%rcx)
	jmp	.L1348
	.p2align 4,,10
	.p2align 3
.L1210:
	movl	$-1, %eax
	lock xaddl	%eax, 8(%rcx)
	jmp	.L1211
	.p2align 4,,10
	.p2align 3
.L1217:
	movl	$-1, %eax
	lock xaddl	%eax, 8(%rcx)
	jmp	.L1218
	.p2align 4,,10
	.p2align 3
.L1229:
	movl	$-1, %eax
	lock xaddl	%eax, 8(%rcx)
	jmp	.L1230
	.p2align 4,,10
	.p2align 3
.L1332:
	movq	-400(%rbp), %rdi
	movl	$8, %r8d
	xorl	%edx, %edx
	movq	%r12, %rsi
	leaq	.LC60(%rip), %rcx
.LEHB94:
	call	_ZNSt7__cxx1112basic_stringIcSt11char_traitsIcESaIcEE9_M_mutateEmmPKcm
.LEHE94:
	jmp	.L1333
	.p2align 4,,10
	.p2align 3
.L1242:
	movl	$-1, %eax
	lock xaddl	%eax, 8(%rcx)
	jmp	.L1243
	.p2align 4,,10
	.p2align 3
.L1256:
	movl	$-1, %eax
	lock xaddl	%eax, 8(%rcx)
	jmp	.L1257
	.p2align 4,,10
	.p2align 3
.L1367:
	movq	-400(%rbp), %rdi
	movl	$8, %r8d
	xorl	%edx, %edx
	movq	%r12, %rsi
	leaq	.LC60(%rip), %rcx
.LEHB95:
	call	_ZNSt7__cxx1112basic_stringIcSt11char_traitsIcESaIcEE9_M_mutateEmmPKcm
.LEHE95:
	jmp	.L1368
	.p2align 4,,10
	.p2align 3
.L1275:
	movl	$-1, %eax
	lock xaddl	%eax, 8(%rsi)
	jmp	.L1276
	.p2align 4,,10
	.p2align 3
.L1282:
	movl	$-1, %eax
	lock xaddl	%eax, 8(%rcx)
	jmp	.L1283
	.p2align 4,,10
	.p2align 3
.L1619:
	movq	-480(%rbp), %rax
	lock addl	$1, 8(%rax)
	jmp	.L1445
	.p2align 4,,10
	.p2align 3
.L1617:
	lock addl	$1, 8(%r14)
	jmp	.L1438
	.p2align 4,,10
	.p2align 3
.L1616:
	movq	-408(%rbp), %rax
	lock addl	$1, 8(%rax)
	jmp	.L1436
	.p2align 4,,10
	.p2align 3
.L1382:
	movl	$-1, %eax
	lock xaddl	%eax, 8(%r12)
	jmp	.L1383
	.p2align 4,,10
	.p2align 3
.L1375:
	movl	$-1, %eax
	lock xaddl	%eax, 8(%r12)
	jmp	.L1376
	.p2align 4,,10
	.p2align 3
.L1622:
	movq	(%r12), %rax
	movq	%r12, %rdi
	call	*16(%rax)
	cmpb	$0, __libc_single_threaded(%rip)
	je	.L1454
	movl	12(%r12), %eax
	leal	-1(%rax), %edx
	movl	%edx, 12(%r12)
.L1455:
	cmpl	$1, %eax
	jne	.L1456
	movq	(%r12), %rax
	movq	%r12, %rdi
	call	*24(%rax)
	jmp	.L1456
	.p2align 4,,10
	.p2align 3
.L1625:
	movq	(%rbx), %rax
	movq	%rbx, %rdi
	call	*16(%rax)
	cmpb	$0, __libc_single_threaded(%rip)
	je	.L1466
	movl	12(%rbx), %eax
	leal	-1(%rax), %edx
	movl	%edx, 12(%rbx)
.L1467:
	cmpl	$1, %eax
	jne	.L1465
	movq	(%rbx), %rax
	movq	%rbx, %rdi
	call	*24(%rax)
	jmp	.L1465
	.p2align 4,,10
	.p2align 3
.L1624:
	movq	-480(%rbp), %rbx
	movq	(%rbx), %rax
	movq	%rbx, %rdi
	call	*16(%rax)
	cmpb	$0, __libc_single_threaded(%rip)
	je	.L1459
	movl	12(%rbx), %eax
	leal	-1(%rax), %edx
	movl	%edx, 12(%rbx)
.L1460:
	cmpl	$1, %eax
	jne	.L1461
	movq	-480(%rbp), %rdi
	movq	(%rdi), %rax
	call	*24(%rax)
	jmp	.L1461
	.p2align 4,,10
	.p2align 3
.L1626:
	movq	(%rbx), %rax
	movq	%rbx, %rdi
	call	*16(%rax)
	cmpb	$0, __libc_single_threaded(%rip)
	je	.L1474
	movl	12(%rbx), %eax
	leal	-1(%rax), %edx
	movl	%edx, 12(%rbx)
.L1475:
	cmpl	$1, %eax
	jne	.L1206
	movq	(%rbx), %rax
	movq	%rbx, %rdi
	call	*24(%rax)
	jmp	.L1206
	.p2align 4,,10
	.p2align 3
.L1620:
	movq	0(%r13), %rax
	movq	%r13, %rdi
	call	*16(%rax)
	cmpb	$0, __libc_single_threaded(%rip)
	je	.L1449
	movl	12(%r13), %eax
	leal	-1(%rax), %edx
	movl	%edx, 12(%r13)
.L1450:
	cmpl	$1, %eax
	jne	.L1451
	movq	0(%r13), %rax
	movq	%r13, %rdi
	call	*24(%rax)
	jmp	.L1451
	.p2align 4,,10
	.p2align 3
.L1618:
	movq	(%rbx), %rax
	movq	%rbx, %rdi
	call	*16(%rax)
	cmpb	$0, __libc_single_threaded(%rip)
	je	.L1442
	movl	12(%rbx), %eax
	leal	-1(%rax), %edx
	movl	%edx, 12(%rbx)
.L1443:
	cmpl	$1, %eax
	jne	.L1444
	movq	(%rbx), %rax
	movq	%rbx, %rdi
	call	*24(%rax)
	jmp	.L1444
	.p2align 4,,10
	.p2align 3
.L1614:
	movq	(%rdi), %rax
	movq	%rdi, -416(%rbp)
	call	*16(%rax)
	cmpb	$0, __libc_single_threaded(%rip)
	movq	-416(%rbp), %rdi
	je	.L1413
	movl	12(%rdi), %eax
	leal	-1(%rax), %edx
	movl	%edx, 12(%rdi)
.L1414:
	cmpl	$1, %eax
	jne	.L1409
	movq	(%rdi), %rax
	call	*24(%rax)
	jmp	.L1409
	.p2align 4,,10
	.p2align 3
.L1615:
	movq	(%rdi), %rax
	movq	%rdi, -416(%rbp)
	call	*16(%rax)
	cmpb	$0, __libc_single_threaded(%rip)
	movq	-416(%rbp), %rdi
	je	.L1420
	movl	12(%rdi), %eax
	leal	-1(%rax), %edx
	movl	%edx, 12(%rdi)
.L1421:
	cmpl	$1, %eax
	jne	.L1416
	movq	(%rdi), %rax
	call	*24(%rax)
	jmp	.L1416
	.p2align 4,,10
	.p2align 3
.L1417:
	movl	$-1, %eax
	lock xaddl	%eax, 8(%rdi)
	jmp	.L1418
	.p2align 4,,10
	.p2align 3
.L1440:
	movl	$-1, %eax
	lock xaddl	%eax, 8(%rbx)
	jmp	.L1441
	.p2align 4,,10
	.p2align 3
.L1410:
	movl	$-1, %eax
	lock xaddl	%eax, 8(%rdi)
	jmp	.L1411
	.p2align 4,,10
	.p2align 3
.L1621:
	movq	-568(%rbp), %rbx
	movl	$-1, %eax
	lock xaddl	%eax, (%rbx)
	jmp	.L1452
	.p2align 4,,10
	.p2align 3
.L1462:
	movl	$-1, %eax
	lock xaddl	%eax, 8(%rbx)
	jmp	.L1463
	.p2align 4,,10
	.p2align 3
.L1623:
	movq	-560(%rbp), %rbx
	movl	$-1, %eax
	lock xaddl	%eax, (%rbx)
	jmp	.L1457
	.p2align 4,,10
	.p2align 3
.L1471:
	movl	$-1, %eax
	lock xaddl	%eax, 8(%rbx)
	jmp	.L1472
	.p2align 4,,10
	.p2align 3
.L1447:
	movl	$-1, %eax
	lock xaddl	%eax, 8(%r13)
	jmp	.L1448
	.p2align 4,,10
	.p2align 3
.L1610:
	movq	(%r14), %rax
	movq	%r14, %rdi
	call	*24(%rax)
	jmp	.L1319
	.p2align 4,,10
	.p2align 3
.L1609:
	movq	(%r14), %rax
	movq	%r14, %rdi
	call	*24(%rax)
	jmp	.L1312
	.p2align 4,,10
	.p2align 3
.L1607:
	movq	(%r14), %rax
	movq	%r14, %rdi
	call	*24(%rax)
	jmp	.L1293
	.p2align 4,,10
	.p2align 3
.L1608:
	movq	(%r14), %rax
	movq	%r14, %rdi
	call	*24(%rax)
	jmp	.L1300
	.p2align 4,,10
	.p2align 3
.L1350:
	movl	$-1, %eax
	lock xaddl	%eax, 12(%r12)
	jmp	.L1351
	.p2align 4,,10
	.p2align 3
.L1343:
	movl	$-1, %eax
	lock xaddl	%eax, 12(%r12)
	jmp	.L1344
	.p2align 4,,10
	.p2align 3
.L1378:
	movl	$-1, %eax
	lock xaddl	%eax, 12(%r12)
	jmp	.L1379
	.p2align 4,,10
	.p2align 3
.L1385:
	movl	$-1, %eax
	lock xaddl	%eax, 12(%r12)
	jmp	.L1386
	.p2align 4,,10
	.p2align 3
.L1474:
	movl	$-1, %eax
	lock xaddl	%eax, 12(%rbx)
	jmp	.L1475
	.p2align 4,,10
	.p2align 3
.L1459:
	movq	-480(%rbp), %rbx
	movl	$-1, %eax
	lock xaddl	%eax, 12(%rbx)
	jmp	.L1460
	.p2align 4,,10
	.p2align 3
.L1442:
	movl	$-1, %eax
	lock xaddl	%eax, 12(%rbx)
	jmp	.L1443
	.p2align 4,,10
	.p2align 3
.L1449:
	movl	$-1, %eax
	lock xaddl	%eax, 12(%r13)
	jmp	.L1450
	.p2align 4,,10
	.p2align 3
.L1420:
	movl	$-1, %eax
	lock xaddl	%eax, 12(%rdi)
	jmp	.L1421
	.p2align 4,,10
	.p2align 3
.L1413:
	movl	$-1, %eax
	lock xaddl	%eax, 12(%rdi)
	jmp	.L1414
	.p2align 4,,10
	.p2align 3
.L1466:
	movl	$-1, %eax
	lock xaddl	%eax, 12(%rbx)
	jmp	.L1467
	.p2align 4,,10
	.p2align 3
.L1454:
	movl	$-1, %eax
	lock xaddl	%eax, 12(%r12)
	jmp	.L1455
	.p2align 4,,10
	.p2align 3
.L1232:
	movl	$-1, %eax
	lock xaddl	%eax, 12(%r15)
	jmp	.L1233
	.p2align 4,,10
	.p2align 3
.L1220:
	movl	$-1, %eax
	lock xaddl	%eax, 12(%r15)
	jmp	.L1221
	.p2align 4,,10
	.p2align 3
.L1213:
	movl	$-1, %eax
	lock xaddl	%eax, 12(%r15)
	jmp	.L1214
	.p2align 4,,10
	.p2align 3
.L1245:
	movl	$-1, %eax
	lock xaddl	%eax, 12(%r15)
	jmp	.L1246
	.p2align 4,,10
	.p2align 3
.L1259:
	movl	$-1, %eax
	lock xaddl	%eax, 12(%r14)
	jmp	.L1260
	.p2align 4,,10
	.p2align 3
.L1278:
	movl	$-1, %eax
	lock xaddl	%eax, 12(%r15)
	jmp	.L1279
	.p2align 4,,10
	.p2align 3
.L1285:
	movl	$-1, %eax
	lock xaddl	%eax, 12(%r14)
	jmp	.L1286
	.p2align 4,,10
	.p2align 3
.L1297:
	movl	$-1, %eax
	lock xaddl	%eax, 12(%r14)
	jmp	.L1298
	.p2align 4,,10
	.p2align 3
.L1304:
	movl	$-1, %eax
	lock xaddl	%eax, 12(%r14)
	jmp	.L1305
	.p2align 4,,10
	.p2align 3
.L1323:
	movl	$-1, %eax
	lock xaddl	%eax, 12(%r14)
	jmp	.L1324
	.p2align 4,,10
	.p2align 3
.L1316:
	movl	$-1, %eax
	lock xaddl	%eax, 12(%r14)
	jmp	.L1317
.L1611:
	leaq	.LC59(%rip), %rdi
.LEHB96:
	call	_ZSt20__throw_length_errorPKc@PLT
.LEHE96:
.L1612:
	leaq	.LC59(%rip), %rdi
.LEHB97:
	call	_ZSt20__throw_length_errorPKc@PLT
.LEHE97:
.L1613:
	leaq	.LC59(%rip), %rdi
.LEHB98:
	call	_ZSt20__throw_length_errorPKc@PLT
.LEHE98:
.L1627:
	call	__stack_chk_fail@PLT
.L1508:
	endbr64
.L1596:
	movq	%rax, %rbx
	jmp	.L1483
.L1538:
	endbr64
.L1599:
	movq	%rax, %r13
	jmp	.L1426
.L1507:
	endbr64
	jmp	.L1596
.L1532:
	endbr64
.L1598:
	movq	%rax, %r12
	jmp	.L1391
.L1526:
	endbr64
.L1597:
	movq	%rax, %r13
	jmp	.L1356
.L1390:
	movq	%r13, %rdi
	call	_ZN7TextureD1Ev
.L1391:
	movq	-96(%rbp), %rdi
	cmpq	%rbx, %rdi
	je	.L1392
	movq	-80(%rbp), %rax
	leaq	1(%rax), %rsi
	call	_ZdlPvm@PLT
.L1392:
	movq	%r12, %rbx
.L1372:
	movq	-160(%rbp), %rdi
	cmpq	-432(%rbp), %rdi
	je	.L1397
	movq	-144(%rbp), %rax
	leaq	1(%rax), %rsi
	call	_ZdlPvm@PLT
.L1397:
	movq	-128(%rbp), %rdi
	cmpq	-344(%rbp), %rdi
	je	.L1398
	movq	-112(%rbp), %rax
	leaq	1(%rax), %rsi
	call	_ZdlPvm@PLT
.L1398:
	movq	-480(%rbp), %rdi
	movl	$224, %esi
	call	_ZdlPvm@PLT
	jmp	.L1399
.L1355:
	movq	%r13, %rdi
	movq	%r12, %r13
	call	_ZN7TextureD1Ev
.L1356:
	movq	-96(%rbp), %rdi
	cmpq	%rbx, %rdi
	je	.L1357
	movq	-80(%rbp), %rax
	leaq	1(%rax), %rsi
	call	_ZdlPvm@PLT
.L1357:
	movq	%r13, %rbx
.L1337:
	movq	-160(%rbp), %rdi
	cmpq	-432(%rbp), %rdi
	je	.L1362
	movq	-144(%rbp), %rax
	leaq	1(%rax), %rsi
	call	_ZdlPvm@PLT
.L1362:
	movq	-128(%rbp), %rdi
	cmpq	-344(%rbp), %rdi
	je	.L1363
	movq	-112(%rbp), %rax
	leaq	1(%rax), %rsi
	call	_ZdlPvm@PLT
.L1363:
	movl	$240, %esi
	movq	%r14, %rdi
	call	_ZdlPvm@PLT
	jmp	.L1364
.L1535:
	endbr64
	movq	%rax, %rbx
	jmp	.L1428
.L1537:
	endbr64
	movq	%rax, -368(%rbp)
	jmp	.L1425
.L1428:
	leaq	16(%r12), %rdi
	call	_ZN6EntityD2Ev
.L1407:
	movq	-160(%rbp), %rdi
	cmpq	-432(%rbp), %rdi
	je	.L1433
	movq	-144(%rbp), %rax
	leaq	1(%rax), %rsi
	call	_ZdlPvm@PLT
.L1433:
	movq	-128(%rbp), %rdi
	cmpq	-344(%rbp), %rdi
	jne	.L1628
.L1434:
	movl	$224, %esi
	movq	%r12, %rdi
	call	_ZdlPvm@PLT
.L1435:
	movq	-480(%rbp), %rdi
	call	_ZNSt16_Sp_counted_baseILN9__gnu_cxx12_Lock_policyE2EE10_M_releaseEv
.L1399:
	movq	%r14, %rdi
	call	_ZNSt16_Sp_counted_baseILN9__gnu_cxx12_Lock_policyE2EE10_M_releaseEv
.L1364:
	movq	%r15, %rdi
	call	_ZNSt16_Sp_counted_baseILN9__gnu_cxx12_Lock_policyE2EE10_M_releaseEv
.L1329:
	movq	-464(%rbp), %rdi
	call	_ZNSt16_Sp_counted_baseILN9__gnu_cxx12_Lock_policyE2EE10_M_releaseEv
.L1291:
	movq	-456(%rbp), %rdi
	call	_ZNSt16_Sp_counted_baseILN9__gnu_cxx12_Lock_policyE2EE10_M_releaseEv
.L1265:
	movq	-408(%rbp), %rdi
	call	_ZNSt16_Sp_counted_baseILN9__gnu_cxx12_Lock_policyE2EE10_M_releaseEv
.L1239:
	movq	-352(%rbp), %rdi
	call	_ZN7TextureD1Ev
	movq	%rbx, %rdi
.LEHB99:
	call	_Unwind_Resume@PLT
.L1425:
	movq	%r13, %rdi
	call	_ZN7TextureD1Ev
	movq	-368(%rbp), %r13
.L1426:
	movq	-96(%rbp), %rdi
	cmpq	%rbx, %rdi
	je	.L1427
	movq	-80(%rbp), %rax
	leaq	1(%rax), %rsi
	call	_ZdlPvm@PLT
.L1427:
	movq	%r13, %rbx
	jmp	.L1407
.L1628:
	movq	-112(%rbp), %rax
	leaq	1(%rax), %rsi
	call	_ZdlPvm@PLT
	jmp	.L1434
.L1528:
	endbr64
	movq	%rax, %rbx
	jmp	.L1372
.L1483:
	movq	-200(%rbp), %rdi
	testq	%rdi, %rdi
	je	.L1480
	call	_ZNSt16_Sp_counted_baseILN9__gnu_cxx12_Lock_policyE2EE10_M_releaseEv
.L1480:
	movq	%r12, %rdi
	call	_ZNSt16_Sp_counted_baseILN9__gnu_cxx12_Lock_policyE2EE10_M_releaseEv
	jmp	.L1435
.L1506:
	endbr64
	jmp	.L1596
.L1536:
	endbr64
	jmp	.L1599
.L1512:
	endbr64
	movq	%rax, %rbx
	jmp	.L1264
.L1500:
	endbr64
	movq	%rax, %rbx
	jmp	.L1265
.L1520:
	endbr64
	movq	%rax, %r14
	jmp	.L1308
.L1250:
	movq	%r13, %rdi
	call	_ZN7TextureD1Ev
.L1251:
	movq	-96(%rbp), %rdi
	cmpq	%rbx, %rdi
	jne	.L1629
.L1262:
	movq	-128(%rbp), %rdi
	cmpq	-344(%rbp), %rdi
	jne	.L1630
.L1263:
	movq	-368(%rbp), %rdi
	movq	%r15, %rbx
	call	_ZN7TextureD1Ev
.L1264:
	movq	-456(%rbp), %rdi
	movl	$216, %esi
	call	_ZdlPvm@PLT
	jmp	.L1265
.L1308:
	movq	%r13, %rdi
	call	_ZN7TextureD1Ev
.L1309:
	movq	-96(%rbp), %rdi
	cmpq	%rbx, %rdi
	je	.L1326
	movq	-80(%rbp), %rax
	leaq	1(%rax), %rsi
	call	_ZdlPvm@PLT
.L1326:
	movq	-128(%rbp), %rdi
	cmpq	-344(%rbp), %rdi
	je	.L1327
	movq	-112(%rbp), %rax
	leaq	1(%rax), %rsi
	call	_ZdlPvm@PLT
.L1327:
	movq	-368(%rbp), %rdi
	movq	%r14, %rbx
	call	_ZN7TextureD1Ev
.L1328:
	movl	$216, %esi
	movq	%r15, %rdi
	call	_ZdlPvm@PLT
	jmp	.L1329
.L1519:
	endbr64
	movq	%rax, %r14
	jmp	.L1309
.L1518:
	endbr64
	movq	%rax, %rbx
	jmp	.L1328
.L1502:
	endbr64
	movq	%rax, %rbx
	jmp	.L1329
.L1510:
	endbr64
	movq	%rax, %r15
	jmp	.L1225
.L1224:
	movq	%r13, %rdi
	call	_ZN7TextureD1Ev
.L1225:
	movq	-96(%rbp), %rdi
	cmpq	%rbx, %rdi
	je	.L1236
	movq	-80(%rbp), %rax
	leaq	1(%rax), %rsi
	call	_ZdlPvm@PLT
.L1236:
	movq	-128(%rbp), %rdi
	cmpq	-344(%rbp), %rdi
	je	.L1237
	movq	-112(%rbp), %rax
	leaq	1(%rax), %rsi
	call	_ZdlPvm@PLT
.L1237:
	movq	-368(%rbp), %rdi
	movq	%r15, %rbx
	call	_ZN7TextureD1Ev
.L1238:
	movq	-408(%rbp), %rdi
	movl	$216, %esi
	call	_ZdlPvm@PLT
	jmp	.L1239
.L1509:
	endbr64
	movq	%rax, %rbx
	jmp	.L1238
.L1511:
	endbr64
	movq	%rax, %r15
	jmp	.L1224
.L1501:
	endbr64
	movq	%rax, %rbx
	jmp	.L1291
.L1503:
	endbr64
	movq	%rax, %rbx
	jmp	.L1364
.L1521:
	endbr64
	movq	%rax, %rbx
	jmp	.L1362
.L1522:
	endbr64
	movq	%rax, %rbx
	jmp	.L1337
.L1523:
	endbr64
	movq	%rax, %rbx
	jmp	.L1358
.L1515:
	endbr64
	movq	%rax, %rbx
	jmp	.L1290
.L1358:
	movq	-488(%rbp), %rdi
	call	_ZN6EntityD2Ev
	jmp	.L1337
.L1270:
	movq	%r13, %rdi
	call	_ZN7TextureD1Ev
.L1271:
	movq	-96(%rbp), %rdi
	cmpq	%rbx, %rdi
	jne	.L1631
.L1288:
	movq	-128(%rbp), %rdi
	cmpq	-344(%rbp), %rdi
	jne	.L1632
.L1289:
	movq	-368(%rbp), %rdi
	movq	%r15, %rbx
	call	_ZN7TextureD1Ev
.L1290:
	movq	-464(%rbp), %rdi
	movl	$216, %esi
	call	_ZdlPvm@PLT
	jmp	.L1291
.L1525:
	endbr64
	movq	%rax, %r12
	jmp	.L1355
.L1499:
	endbr64
	movq	%rax, %rbx
	jmp	.L1239
.L1498:
	endbr64
	movq	%rax, %r15
	jmp	.L1476
.L1514:
	endbr64
	movq	%rax, %r15
	jmp	.L1250
.L1476:
	movq	-96(%rbp), %rdi
	cmpq	%rbx, %rdi
	je	.L1477
	movq	-80(%rbp), %rax
	leaq	1(%rax), %rsi
	call	_ZdlPvm@PLT
.L1477:
	movq	%r15, %rdi
	call	_Unwind_Resume@PLT
.LEHE99:
.L1629:
	movq	-80(%rbp), %rax
	leaq	1(%rax), %rsi
	call	_ZdlPvm@PLT
	jmp	.L1262
.L1630:
	movq	-112(%rbp), %rax
	leaq	1(%rax), %rsi
	call	_ZdlPvm@PLT
	jmp	.L1263
.L1513:
	endbr64
	movq	%rax, %r15
	jmp	.L1251
.L1504:
	endbr64
	movq	%rax, %rbx
	jmp	.L1399
.L1527:
	endbr64
	movq	%rax, %rbx
	jmp	.L1397
.L1517:
	endbr64
	movq	%rax, %r15
	jmp	.L1270
.L1516:
	endbr64
	movq	%rax, %r15
	jmp	.L1271
.L1534:
	endbr64
	movq	%rax, %rbx
	jmp	.L1407
.L1505:
	endbr64
	movq	%rax, %rbx
	jmp	.L1435
.L1533:
	endbr64
	movq	%rax, %rbx
	jmp	.L1433
.L1529:
	endbr64
	movq	%rax, %rbx
.L1393:
	movq	-496(%rbp), %rdi
	call	_ZN6EntityD2Ev
	jmp	.L1372
.L1631:
	movq	-80(%rbp), %rax
	leaq	1(%rax), %rsi
	call	_ZdlPvm@PLT
	jmp	.L1288
.L1632:
	movq	-112(%rbp), %rax
	leaq	1(%rax), %rsi
	call	_ZdlPvm@PLT
	jmp	.L1289
.L1524:
	endbr64
	jmp	.L1597
.L1530:
	endbr64
	jmp	.L1598
.L1531:
	endbr64
	movq	%rax, %r12
	jmp	.L1390
	.cfi_endproc
.LFE12141:
	.section	.gcc_except_table
.LLSDA12141:
	.byte	0xff
	.byte	0xff
	.byte	0x1
	.uleb128 .LLSDACSE12141-.LLSDACSB12141
.LLSDACSB12141:
	.uleb128 .LEHB54-.LFB12141
	.uleb128 .LEHE54-.LEHB54
	.uleb128 0
	.uleb128 0
	.uleb128 .LEHB55-.LFB12141
	.uleb128 .LEHE55-.LEHB55
	.uleb128 .L1498-.LFB12141
	.uleb128 0
	.uleb128 .LEHB56-.LFB12141
	.uleb128 .LEHE56-.LEHB56
	.uleb128 .L1499-.LFB12141
	.uleb128 0
	.uleb128 .LEHB57-.LFB12141
	.uleb128 .LEHE57-.LEHB57
	.uleb128 .L1509-.LFB12141
	.uleb128 0
	.uleb128 .LEHB58-.LFB12141
	.uleb128 .LEHE58-.LEHB58
	.uleb128 .L1510-.LFB12141
	.uleb128 0
	.uleb128 .LEHB59-.LFB12141
	.uleb128 .LEHE59-.LEHB59
	.uleb128 .L1511-.LFB12141
	.uleb128 0
	.uleb128 .LEHB60-.LFB12141
	.uleb128 .LEHE60-.LEHB60
	.uleb128 .L1500-.LFB12141
	.uleb128 0
	.uleb128 .LEHB61-.LFB12141
	.uleb128 .LEHE61-.LEHB61
	.uleb128 .L1512-.LFB12141
	.uleb128 0
	.uleb128 .LEHB62-.LFB12141
	.uleb128 .LEHE62-.LEHB62
	.uleb128 .L1513-.LFB12141
	.uleb128 0
	.uleb128 .LEHB63-.LFB12141
	.uleb128 .LEHE63-.LEHB63
	.uleb128 .L1514-.LFB12141
	.uleb128 0
	.uleb128 .LEHB64-.LFB12141
	.uleb128 .LEHE64-.LEHB64
	.uleb128 .L1501-.LFB12141
	.uleb128 0
	.uleb128 .LEHB65-.LFB12141
	.uleb128 .LEHE65-.LEHB65
	.uleb128 .L1515-.LFB12141
	.uleb128 0
	.uleb128 .LEHB66-.LFB12141
	.uleb128 .LEHE66-.LEHB66
	.uleb128 .L1516-.LFB12141
	.uleb128 0
	.uleb128 .LEHB67-.LFB12141
	.uleb128 .LEHE67-.LEHB67
	.uleb128 .L1517-.LFB12141
	.uleb128 0
	.uleb128 .LEHB68-.LFB12141
	.uleb128 .LEHE68-.LEHB68
	.uleb128 .L1502-.LFB12141
	.uleb128 0
	.uleb128 .LEHB69-.LFB12141
	.uleb128 .LEHE69-.LEHB69
	.uleb128 .L1518-.LFB12141
	.uleb128 0
	.uleb128 .LEHB70-.LFB12141
	.uleb128 .LEHE70-.LEHB70
	.uleb128 .L1519-.LFB12141
	.uleb128 0
	.uleb128 .LEHB71-.LFB12141
	.uleb128 .LEHE71-.LEHB71
	.uleb128 .L1520-.LFB12141
	.uleb128 0
	.uleb128 .LEHB72-.LFB12141
	.uleb128 .LEHE72-.LEHB72
	.uleb128 .L1503-.LFB12141
	.uleb128 0
	.uleb128 .LEHB73-.LFB12141
	.uleb128 .LEHE73-.LEHB73
	.uleb128 .L1521-.LFB12141
	.uleb128 0
	.uleb128 .LEHB74-.LFB12141
	.uleb128 .LEHE74-.LEHB74
	.uleb128 .L1522-.LFB12141
	.uleb128 0
	.uleb128 .LEHB75-.LFB12141
	.uleb128 .LEHE75-.LEHB75
	.uleb128 .L1524-.LFB12141
	.uleb128 0
	.uleb128 .LEHB76-.LFB12141
	.uleb128 .LEHE76-.LEHB76
	.uleb128 .L1525-.LFB12141
	.uleb128 0
	.uleb128 .LEHB77-.LFB12141
	.uleb128 .LEHE77-.LEHB77
	.uleb128 .L1523-.LFB12141
	.uleb128 0
	.uleb128 .LEHB78-.LFB12141
	.uleb128 .LEHE78-.LEHB78
	.uleb128 .L1504-.LFB12141
	.uleb128 0
	.uleb128 .LEHB79-.LFB12141
	.uleb128 .LEHE79-.LEHB79
	.uleb128 .L1527-.LFB12141
	.uleb128 0
	.uleb128 .LEHB80-.LFB12141
	.uleb128 .LEHE80-.LEHB80
	.uleb128 .L1528-.LFB12141
	.uleb128 0
	.uleb128 .LEHB81-.LFB12141
	.uleb128 .LEHE81-.LEHB81
	.uleb128 .L1530-.LFB12141
	.uleb128 0
	.uleb128 .LEHB82-.LFB12141
	.uleb128 .LEHE82-.LEHB82
	.uleb128 .L1531-.LFB12141
	.uleb128 0
	.uleb128 .LEHB83-.LFB12141
	.uleb128 .LEHE83-.LEHB83
	.uleb128 .L1529-.LFB12141
	.uleb128 0
	.uleb128 .LEHB84-.LFB12141
	.uleb128 .LEHE84-.LEHB84
	.uleb128 .L1505-.LFB12141
	.uleb128 0
	.uleb128 .LEHB85-.LFB12141
	.uleb128 .LEHE85-.LEHB85
	.uleb128 .L1533-.LFB12141
	.uleb128 0
	.uleb128 .LEHB86-.LFB12141
	.uleb128 .LEHE86-.LEHB86
	.uleb128 .L1534-.LFB12141
	.uleb128 0
	.uleb128 .LEHB87-.LFB12141
	.uleb128 .LEHE87-.LEHB87
	.uleb128 .L1536-.LFB12141
	.uleb128 0
	.uleb128 .LEHB88-.LFB12141
	.uleb128 .LEHE88-.LEHB88
	.uleb128 .L1537-.LFB12141
	.uleb128 0
	.uleb128 .LEHB89-.LFB12141
	.uleb128 .LEHE89-.LEHB89
	.uleb128 .L1535-.LFB12141
	.uleb128 0
	.uleb128 .LEHB90-.LFB12141
	.uleb128 .LEHE90-.LEHB90
	.uleb128 .L1506-.LFB12141
	.uleb128 0
	.uleb128 .LEHB91-.LFB12141
	.uleb128 .LEHE91-.LEHB91
	.uleb128 .L1507-.LFB12141
	.uleb128 0
	.uleb128 .LEHB92-.LFB12141
	.uleb128 .LEHE92-.LEHB92
	.uleb128 .L1508-.LFB12141
	.uleb128 0
	.uleb128 .LEHB93-.LFB12141
	.uleb128 .LEHE93-.LEHB93
	.uleb128 .L1538-.LFB12141
	.uleb128 0
	.uleb128 .LEHB94-.LFB12141
	.uleb128 .LEHE94-.LEHB94
	.uleb128 .L1526-.LFB12141
	.uleb128 0
	.uleb128 .LEHB95-.LFB12141
	.uleb128 .LEHE95-.LEHB95
	.uleb128 .L1532-.LFB12141
	.uleb128 0
	.uleb128 .LEHB96-.LFB12141
	.uleb128 .LEHE96-.LEHB96
	.uleb128 .L1526-.LFB12141
	.uleb128 0
	.uleb128 .LEHB97-.LFB12141
	.uleb128 .LEHE97-.LEHB97
	.uleb128 .L1532-.LFB12141
	.uleb128 0
	.uleb128 .LEHB98-.LFB12141
	.uleb128 .LEHE98-.LEHB98
	.uleb128 .L1538-.LFB12141
	.uleb128 0
	.uleb128 .LEHB99-.LFB12141
	.uleb128 .LEHE99-.LEHB99
	.uleb128 0
	.uleb128 0
.LLSDACSE12141:
	.section	.text._ZN13Lemmings_game15on_game_startupER6Engine,"axG",@progbits,_ZN13Lemmings_game15on_game_startupER6Engine,comdat
	.size	_ZN13Lemmings_game15on_game_startupER6Engine, .-_ZN13Lemmings_game15on_game_startupER6Engine
	.section	.rodata._ZNSt7__cxx1112basic_stringIcSt11char_traitsIcESaIcEE10_M_replaceEmmPKcm.str1.1,"aMS",@progbits,1
.LC73:
	.string	"basic_string::_M_replace"
	.section	.text._ZNSt7__cxx1112basic_stringIcSt11char_traitsIcESaIcEE10_M_replaceEmmPKcm,"axG",@progbits,_ZNSt7__cxx1112basic_stringIcSt11char_traitsIcESaIcEE10_M_replaceEmmPKcm,comdat
	.align 2
	.p2align 4
	.weak	_ZNSt7__cxx1112basic_stringIcSt11char_traitsIcESaIcEE10_M_replaceEmmPKcm
	.type	_ZNSt7__cxx1112basic_stringIcSt11char_traitsIcESaIcEE10_M_replaceEmmPKcm, @function
_ZNSt7__cxx1112basic_stringIcSt11char_traitsIcESaIcEE10_M_replaceEmmPKcm:
.LFB13119:
	.cfi_startproc
	endbr64
	movabsq	$9223372036854775807, %rax
	pushq	%r15
	.cfi_def_cfa_offset 16
	.cfi_offset 15, -16
	pushq	%r14
	.cfi_def_cfa_offset 24
	.cfi_offset 14, -24
	pushq	%r13
	.cfi_def_cfa_offset 32
	.cfi_offset 13, -32
	movq	%rdx, %r13
	pushq	%r12
	.cfi_def_cfa_offset 40
	.cfi_offset 12, -40
	addq	%r13, %rax
	pushq	%rbp
	.cfi_def_cfa_offset 48
	.cfi_offset 6, -48
	pushq	%rbx
	.cfi_def_cfa_offset 56
	.cfi_offset 3, -56
	subq	$24, %rsp
	.cfi_def_cfa_offset 80
	movq	8(%rdi), %rdx
	subq	%rdx, %rax
	cmpq	%rax, %r8
	ja	.L1677
	movq	%r8, %rbp
	movq	(%rdi), %rax
	movq	%rcx, %r15
	leaq	16(%rdi), %rcx
	subq	%r13, %rbp
	movq	%rdi, %r12
	movq	%r8, %r14
	leaq	(%rdx,%rbp), %rbx
	cmpq	%rcx, %rax
	je	.L1656
	movq	16(%rdi), %rcx
.L1635:
	cmpq	%rbx, %rcx
	jb	.L1636
	leaq	(%rax,%rsi), %r8
	movq	%rdx, %r9
	addq	%r13, %rsi
	subq	%rsi, %r9
	cmpq	%r15, %rax
	jbe	.L1678
.L1637:
	testq	%r9, %r9
	je	.L1640
	cmpq	%r14, %r13
	je	.L1640
	leaq	(%r8,%r13), %rsi
	leaq	(%r8,%r14), %rdi
	cmpq	$1, %r9
	je	.L1679
	movq	%r9, %rdx
	movq	%r8, 8(%rsp)
	call	memmove@PLT
	movq	8(%rsp), %r8
.L1640:
	testq	%r14, %r14
	je	.L1643
	cmpq	$1, %r14
	je	.L1676
	movq	%r14, %rdx
	movq	%r15, %rsi
	movq	%r8, %rdi
	call	memcpy@PLT
.L1643:
	movq	(%r12), %rax
	movq	%rbx, 8(%r12)
	movb	$0, (%rax,%rbx)
	addq	$24, %rsp
	.cfi_remember_state
	.cfi_def_cfa_offset 56
	movq	%r12, %rax
	popq	%rbx
	.cfi_def_cfa_offset 48
	popq	%rbp
	.cfi_def_cfa_offset 40
	popq	%r12
	.cfi_def_cfa_offset 32
	popq	%r13
	.cfi_def_cfa_offset 24
	popq	%r14
	.cfi_def_cfa_offset 16
	popq	%r15
	.cfi_def_cfa_offset 8
	ret
	.p2align 4,,10
	.p2align 3
.L1678:
	.cfi_restore_state
	addq	%rdx, %rax
	cmpq	%rax, %r15
	ja	.L1637
	leaq	-1(%r14), %rax
	cmpq	%rax, %r13
	jbe	.L1639
	cmpq	$1, %r14
	je	.L1680
	movq	%r8, %rdi
	movq	%r14, %rdx
	movq	%r15, %rsi
	movq	%r9, 8(%rsp)
	call	memmove@PLT
	movq	8(%rsp), %r9
	movq	%rax, %r8
.L1639:
	testq	%r9, %r9
	je	.L1646
	cmpq	%r14, %r13
	je	.L1646
	leaq	(%r8,%r13), %rsi
	leaq	(%r8,%r14), %rdi
	cmpq	$1, %r9
	je	.L1681
	movq	%r9, %rdx
	movq	%r8, 8(%rsp)
	call	memmove@PLT
	movq	8(%rsp), %r8
.L1646:
	cmpq	%r14, %r13
	jnb	.L1643
	addq	%r8, %r13
	leaq	(%r15,%r14), %rax
	cmpq	%rax, %r13
	jnb	.L1682
	cmpq	%r15, %r13
	ja	.L1651
	leaq	(%r15,%rbp), %rsi
	cmpq	$1, %r14
	je	.L1683
	movq	%r14, %rdx
	movq	%r8, %rdi
	call	memcpy@PLT
	jmp	.L1643
	.p2align 4,,10
	.p2align 3
.L1636:
	movq	%r14, %r8
	movq	%r15, %rcx
	movq	%r13, %rdx
	movq	%r12, %rdi
	call	_ZNSt7__cxx1112basic_stringIcSt11char_traitsIcESaIcEE9_M_mutateEmmPKcm
	jmp	.L1643
	.p2align 4,,10
	.p2align 3
.L1676:
	movzbl	(%r15), %eax
	movb	%al, (%r8)
	jmp	.L1643
	.p2align 4,,10
	.p2align 3
.L1679:
	movzbl	(%rsi), %eax
	movb	%al, (%rdi)
	jmp	.L1640
	.p2align 4,,10
	.p2align 3
.L1656:
	movl	$15, %ecx
	jmp	.L1635
	.p2align 4,,10
	.p2align 3
.L1682:
	cmpq	$1, %r14
	je	.L1676
	movq	%r14, %rdx
	movq	%r15, %rsi
	movq	%r8, %rdi
	call	memmove@PLT
	jmp	.L1643
	.p2align 4,,10
	.p2align 3
.L1681:
	movzbl	(%rsi), %eax
	movb	%al, (%rdi)
	jmp	.L1646
	.p2align 4,,10
	.p2align 3
.L1680:
	movzbl	(%r15), %eax
	movb	%al, (%r8)
	jmp	.L1639
	.p2align 4,,10
	.p2align 3
.L1651:
	subq	%r15, %r13
	cmpq	$1, %r13
	je	.L1684
	testq	%r13, %r13
	je	.L1654
	movq	%r8, %rdi
	movq	%r13, %rdx
	movq	%r15, %rsi
	call	memmove@PLT
	movq	%rax, %r8
.L1654:
	movq	%r14, %rdx
	leaq	(%r8,%r14), %rsi
	leaq	(%r8,%r13), %rdi
	subq	%r13, %rdx
	cmpq	$1, %rdx
	je	.L1685
	testq	%rdx, %rdx
	je	.L1643
	call	memcpy@PLT
	jmp	.L1643
.L1684:
	movzbl	(%r15), %eax
	movb	%al, (%r8)
	jmp	.L1654
.L1685:
	movzbl	(%rsi), %eax
	movb	%al, (%rdi)
	jmp	.L1643
.L1683:
	movzbl	(%rsi), %eax
	movb	%al, (%r8)
	jmp	.L1643
.L1677:
	leaq	.LC73(%rip), %rdi
	call	_ZSt20__throw_length_errorPKc@PLT
	.cfi_endproc
.LFE13119:
	.size	_ZNSt7__cxx1112basic_stringIcSt11char_traitsIcESaIcEE10_M_replaceEmmPKcm, .-_ZNSt7__cxx1112basic_stringIcSt11char_traitsIcESaIcEE10_M_replaceEmmPKcm
	.section	.rodata._ZN9Structure16update_animationER6Engine.str1.1,"aMS",@progbits,1
.LC74:
	.string	"Animacion acabada\n"
.LC75:
	.string	"_"
.LC76:
	.string	".png"
	.section	.text._ZN9Structure16update_animationER6Engine,"axG",@progbits,_ZN9Structure16update_animationER6Engine,comdat
	.align 2
	.p2align 4
	.weak	_ZN9Structure16update_animationER6Engine
	.type	_ZN9Structure16update_animationER6Engine, @function
_ZN9Structure16update_animationER6Engine:
.LFB12097:
	.cfi_startproc
	.cfi_personality 0x9b,DW.ref.__gxx_personality_v0
	.cfi_lsda 0x1b,.LLSDA12097
	endbr64
	pushq	%r15
	.cfi_def_cfa_offset 16
	.cfi_offset 15, -16
	pushq	%r14
	.cfi_def_cfa_offset 24
	.cfi_offset 14, -24
	pushq	%r13
	.cfi_def_cfa_offset 32
	.cfi_offset 13, -32
	pushq	%r12
	.cfi_def_cfa_offset 40
	.cfi_offset 12, -40
	pushq	%rbp
	.cfi_def_cfa_offset 48
	.cfi_offset 6, -48
	pushq	%rbx
	.cfi_def_cfa_offset 56
	.cfi_offset 3, -56
	subq	$376, %rsp
	.cfi_def_cfa_offset 432
	movq	%fs:40, %rax
	movq	%rax, 360(%rsp)
	xorl	%eax, %eax
	cmpb	$0, 186(%rdi)
	jne	.L1899
.L1686:
	movq	360(%rsp), %rax
	subq	%fs:40, %rax
	jne	.L1896
	addq	$376, %rsp
	.cfi_remember_state
	.cfi_def_cfa_offset 56
	popq	%rbx
	.cfi_def_cfa_offset 48
	popq	%rbp
	.cfi_def_cfa_offset 40
	popq	%r12
	.cfi_def_cfa_offset 32
	popq	%r13
	.cfi_def_cfa_offset 24
	popq	%r14
	.cfi_def_cfa_offset 16
	popq	%r15
	.cfi_def_cfa_offset 8
	ret
	.p2align 4,,10
	.p2align 3
.L1899:
	.cfi_restore_state
	movq	%rdi, %rbp
	movq	%rsi, %rdi
	movq	%rsi, %r12
.LEHB100:
	call	_ZN6Engine14get_delta_timeEv@PLT
.LEHE100:
	movl	196(%rbp), %ecx
	pxor	%xmm2, %xmm2
	movapd	%xmm0, %xmm1
	pxor	%xmm0, %xmm0
	cvtsi2ssl	%ecx, %xmm2
	cvtss2sd	144(%rbp), %xmm0
	addsd	%xmm1, %xmm0
	movss	200(%rbp), %xmm1
	cvtsd2ss	%xmm0, %xmm0
	movss	%xmm0, 144(%rbp)
	divss	%xmm2, %xmm1
	comiss	%xmm1, %xmm0
	jb	.L1686
	movl	$0x00000000, 144(%rbp)
	movl	188(%rbp), %eax
	addl	$1, %eax
	cltd
	idivl	%ecx
	cmpb	$1, 184(%rbp)
	movl	%edx, 188(%rbp)
	je	.L1691
	testl	%edx, %edx
	je	.L1900
.L1691:
	movl	%edx, %r14d
	movl	%edx, %ebx
	shrl	$31, %r14d
	negl	%ebx
	cmovs	%edx, %ebx
	movl	%r14d, %edi
	cmpl	$9, %ebx
	jbe	.L1694
	cmpl	$99, %ebx
	jbe	.L1695
	cmpl	$999, %ebx
	jbe	.L1696
	movl	%ebx, %edx
	cmpl	$9999, %ebx
	jbe	.L1697
	movabsq	$3777893186295716171, %r8
	movl	$1, %ecx
	jmp	.L1698
	.p2align 4,,10
	.p2align 3
.L1881:
	cmpl	$99, %edx
	jbe	.L1901
	cmpl	$999, %edx
	jbe	.L1902
	cmpl	$9999, %edx
	jbe	.L1903
.L1698:
	movq	%rdx, %rax
	movq	%rdx, %rsi
	mulq	%r8
	movl	%ecx, %eax
	addl	$4, %ecx
	shrq	$11, %rdx
	cmpq	$99999, %rsi
	ja	.L1881
	leal	3(%rax), %r13d
.L1700:
	leaq	304(%rsp), %rax
	leal	(%rcx,%rdi), %r15d
	movq	%rax, 8(%rsp)
	movq	%rax, 288(%rsp)
	cmpq	$15, %r15
	ja	.L1904
	testq	%r15, %r15
	jne	.L1840
.L1704:
	movq	%r15, 296(%rsp)
	movzbl	%r14b, %esi
	movb	$0, (%rax,%r15)
	addq	288(%rsp), %rsi
	cmpl	$99, %ebx
	jbe	.L1706
	leaq	_ZZNSt8__detail18__to_chars_10_implIjEEvPcjT_E8__digits(%rip), %rcx
	.p2align 4,,10
	.p2align 3
.L1707:
	movl	%ebx, %edx
	movl	%ebx, %eax
	imulq	$1374389535, %rdx, %rdx
	shrq	$37, %rdx
	imull	$100, %edx, %edi
	subl	%edi, %eax
	movl	%ebx, %edi
	movl	%edx, %ebx
	movl	%r13d, %edx
	addl	%eax, %eax
	leal	1(%rax), %r8d
	movzbl	(%rcx,%rax), %eax
	movzbl	(%rcx,%r8), %r8d
	movb	%r8b, (%rsi,%rdx)
	leal	-1(%r13), %edx
	subl	$2, %r13d
	movb	%al, (%rsi,%rdx)
	cmpl	$9999, %edi
	ja	.L1707
.L1706:
	leal	48(%rbx), %eax
	cmpl	$9, %ebx
	jbe	.L1709
	addl	%ebx, %ebx
	leaq	_ZZNSt8__detail18__to_chars_10_implIjEEvPcjT_E8__digits(%rip), %rcx
	leal	1(%rbx), %eax
	movzbl	(%rcx,%rax), %eax
	movb	%al, 1(%rsi)
	movzbl	(%rcx,%rbx), %eax
.L1709:
	movb	%al, (%rsi)
	movl	192(%rbp), %eax
	movl	%eax, %r15d
	movl	%eax, %r13d
	shrl	$31, %r15d
	negl	%r13d
	cmovs	%eax, %r13d
	movl	%r15d, %edi
	cmpl	$9, %r13d
	jbe	.L1712
	cmpl	$99, %r13d
	jbe	.L1713
	cmpl	$999, %r13d
	jbe	.L1714
	movl	%r13d, %edx
	cmpl	$9999, %r13d
	jbe	.L1715
	movabsq	$3777893186295716171, %rsi
	movl	$1, %ebx
	jmp	.L1716
	.p2align 4,,10
	.p2align 3
.L1882:
	cmpl	$99, %edx
	jbe	.L1905
	cmpl	$999, %edx
	jbe	.L1906
	cmpl	$9999, %edx
	jbe	.L1907
.L1716:
	movq	%rdx, %rax
	movq	%rdx, %rcx
	mulq	%rsi
	movl	%ebx, %eax
	addl	$4, %ebx
	shrq	$11, %rdx
	cmpq	$99999, %rcx
	ja	.L1882
.L1718:
	leaq	208(%rsp), %rax
	leal	(%rbx,%rdi), %r14d
	movq	%rax, 16(%rsp)
	movq	%rax, 192(%rsp)
	cmpq	$15, %r14
	ja	.L1908
	subl	$1, %ebx
	testq	%r14, %r14
	jne	.L1839
.L1722:
	movq	%r14, 200(%rsp)
	movzbl	%r15b, %esi
	movb	$0, (%rax,%r14)
	addq	192(%rsp), %rsi
	cmpl	$99, %r13d
	jbe	.L1723
	leaq	_ZZNSt8__detail18__to_chars_10_implIjEEvPcjT_E8__digits(%rip), %rcx
	.p2align 4,,10
	.p2align 3
.L1724:
	movl	%r13d, %edx
	movl	%r13d, %eax
	imulq	$1374389535, %rdx, %rdx
	shrq	$37, %rdx
	imull	$100, %edx, %edi
	subl	%edi, %eax
	movl	%r13d, %edi
	movl	%edx, %r13d
	movl	%ebx, %edx
	addl	%eax, %eax
	leal	1(%rax), %r8d
	movzbl	(%rcx,%rax), %eax
	movzbl	(%rcx,%r8), %r8d
	movb	%r8b, (%rsi,%rdx)
	leal	-1(%rbx), %edx
	subl	$2, %ebx
	movb	%al, (%rsi,%rdx)
	cmpl	$9999, %edi
	ja	.L1724
.L1723:
	leal	48(%r13), %eax
	cmpl	$9, %r13d
	jbe	.L1726
	addl	%r13d, %r13d
	leaq	_ZZNSt8__detail18__to_chars_10_implIjEEvPcjT_E8__digits(%rip), %rax
	leal	1(%r13), %edx
	movzbl	(%rax,%rdx), %edx
	movzbl	(%rax,%r13), %eax
	movb	%dl, 1(%rsi)
.L1726:
	movb	%al, (%rsi)
	movq	152(%rbp), %rsi
	leaq	160(%rsp), %r14
	leaq	176(%rsp), %r13
	movq	160(%rbp), %rdx
	movq	%r14, %rdi
	movq	%r13, 160(%rsp)
	addq	%rsi, %rdx
.LEHB101:
	call	_ZNSt7__cxx1112basic_stringIcSt11char_traitsIcESaIcEE12_M_constructIPcEEvT_S7_St20forward_iterator_tag.isra.0
.LEHE101:
	movq	168(%rsp), %rbx
	movabsq	$9223372036854775807, %rax
	cmpq	%rax, %rbx
	je	.L1909
	movq	160(%rsp), %rdx
	movl	$15, %eax
	leaq	1(%rbx), %r15
	cmpq	%r13, %rdx
	cmovne	176(%rsp), %rax
	cmpq	%rax, %r15
	ja	.L1729
	movb	$95, (%rdx,%rbx)
.L1730:
	movq	160(%rsp), %rax
	movq	%r15, 168(%rsp)
	movb	$0, 1(%rax,%rbx)
	movq	160(%rsp), %rcx
	movl	$15, %eax
	movq	168(%rsp), %rsi
	movq	200(%rsp), %r8
	movq	%rax, %rdx
	cmpq	%r13, %rcx
	movq	192(%rsp), %r9
	cmovne	176(%rsp), %rdx
	leaq	(%rsi,%r8), %rbx
	cmpq	%rdx, %rbx
	jbe	.L1910
	cmpq	16(%rsp), %r9
	cmovne	208(%rsp), %rax
	cmpq	%rax, %rbx
	jbe	.L1911
	movq	%r9, %rcx
	xorl	%edx, %edx
	movq	%r14, %rdi
.LEHB102:
	call	_ZNSt7__cxx1112basic_stringIcSt11char_traitsIcESaIcEE9_M_mutateEmmPKcm
.LEHE102:
.L1893:
	movq	160(%rsp), %rcx
.L1742:
	movq	%rbx, 168(%rsp)
	leaq	240(%rsp), %r14
	movb	$0, (%rcx,%rbx)
	movq	160(%rsp), %rax
	movq	%r14, 224(%rsp)
	cmpq	%r13, %rax
	je	.L1912
	movq	%rax, 224(%rsp)
	movq	176(%rsp), %rax
	movq	%rax, 240(%rsp)
.L1747:
	movq	168(%rsp), %rsi
	movq	%r13, 160(%rsp)
	movq	$0, 168(%rsp)
	movq	%rsi, 232(%rsp)
	movb	$0, 176(%rsp)
.L1746:
	movabsq	$9223372036854775807, %rax
	cmpq	%rax, %rsi
	je	.L1913
	movq	224(%rsp), %rdx
	movl	$15, %eax
	leaq	1(%rsi), %rbx
	cmpq	%r14, %rdx
	cmovne	240(%rsp), %rax
	cmpq	%rax, %rbx
	ja	.L1750
	movb	$95, (%rdx,%rsi)
.L1751:
	movq	224(%rsp), %rax
	movq	%rbx, 232(%rsp)
	leaq	272(%rsp), %r15
	movb	$0, (%rax,%rbx)
	movq	224(%rsp), %rcx
	movq	%r15, 256(%rsp)
	cmpq	%r14, %rcx
	je	.L1914
	movq	232(%rsp), %rsi
	movq	240(%rsp), %rax
	cmpq	%r15, %rcx
	movl	$15, %edx
	movq	296(%rsp), %r8
	movq	%rcx, 256(%rsp)
	movq	%rsi, 264(%rsp)
	movq	%r14, 224(%rsp)
	leaq	(%rsi,%r8), %rbx
	movq	$0, 232(%rsp)
	movb	$0, 240(%rsp)
	movq	%rax, 272(%rsp)
	cmove	%rdx, %rax
.L1753:
	movq	288(%rsp), %r9
	cmpq	%rbx, %rax
	jnb	.L1754
	cmpq	8(%rsp), %r9
	movl	$15, %eax
	cmovne	304(%rsp), %rax
	cmpq	%rbx, %rax
	jnb	.L1915
	leaq	256(%rsp), %rdi
	movq	%r9, %rcx
	xorl	%edx, %edx
.LEHB103:
	call	_ZNSt7__cxx1112basic_stringIcSt11char_traitsIcESaIcEE9_M_mutateEmmPKcm
.LEHE103:
.L1894:
	movq	256(%rsp), %rcx
.L1760:
	movq	%rbx, 264(%rsp)
	movb	$0, (%rcx,%rbx)
	movq	256(%rsp), %rax
	leaq	336(%rsp), %rbx
	movq	%rbx, 320(%rsp)
	cmpq	%r15, %rax
	je	.L1916
	movq	%rax, 320(%rsp)
	movq	272(%rsp), %rax
	movq	%rax, 336(%rsp)
.L1765:
	movq	264(%rsp), %rsi
	movq	%r15, 256(%rsp)
	movq	$0, 264(%rsp)
	movq	%rsi, 328(%rsp)
	movb	$0, 272(%rsp)
.L1764:
	movabsq	$9223372036854775807, %rax
	subq	%rsi, %rax
	cmpq	$3, %rax
	jbe	.L1917
	movq	320(%rsp), %rdx
	movl	$15, %eax
	leaq	4(%rsi), %rcx
	movq	%rcx, 24(%rsp)
	cmpq	%rbx, %rdx
	cmovne	336(%rsp), %rax
	cmpq	%rax, %rcx
	ja	.L1768
	movl	$1735290926, (%rdx,%rsi)
.L1769:
	movq	24(%rsp), %rcx
	movq	320(%rsp), %rax
	movq	%rcx, 328(%rsp)
	movb	$0, (%rax,%rcx)
	leaq	144(%rsp), %rax
	movq	%rax, 24(%rsp)
	movq	%rax, 128(%rsp)
	movq	320(%rsp), %rax
	cmpq	%rbx, %rax
	je	.L1918
	movq	%rax, 128(%rsp)
	movq	336(%rsp), %rax
	movq	%rax, 144(%rsp)
.L1771:
	movq	328(%rsp), %rax
	movq	256(%rsp), %rdi
	movq	%rax, 136(%rsp)
	cmpq	%r15, %rdi
	je	.L1772
	movq	272(%rsp), %rax
	leaq	1(%rax), %rsi
	call	_ZdlPvm@PLT
.L1772:
	movq	224(%rsp), %rdi
	cmpq	%r14, %rdi
	je	.L1773
	movq	240(%rsp), %rax
	leaq	1(%rax), %rsi
	call	_ZdlPvm@PLT
.L1773:
	movq	160(%rsp), %rdi
	cmpq	%r13, %rdi
	je	.L1774
	movq	176(%rsp), %rax
	leaq	1(%rax), %rsi
	call	_ZdlPvm@PLT
.L1774:
	movq	192(%rsp), %rdi
	cmpq	16(%rsp), %rdi
	je	.L1775
	movq	208(%rsp), %rax
	leaq	1(%rax), %rsi
	call	_ZdlPvm@PLT
.L1775:
	movq	288(%rsp), %rdi
	cmpq	8(%rsp), %rdi
	je	.L1776
	movq	304(%rsp), %rax
	leaq	1(%rax), %rsi
	call	_ZdlPvm@PLT
.L1776:
	movq	128(%rsp), %r14
	movq	%rbx, 320(%rsp)
	testq	%r14, %r14
	jne	.L1919
	leaq	.LC3(%rip), %rdi
.LEHB104:
	call	_ZSt19__throw_logic_errorPKc@PLT
.LEHE104:
	.p2align 4,,10
	.p2align 3
.L1900:
	movb	$0, 186(%rbp)
	movq	360(%rsp), %rax
	subq	%fs:40, %rax
	jne	.L1896
	addq	$376, %rsp
	.cfi_remember_state
	.cfi_def_cfa_offset 56
	movl	$18, %edx
	leaq	.LC74(%rip), %rsi
	popq	%rbx
	.cfi_def_cfa_offset 48
	leaq	_ZSt4cout(%rip), %rdi
	popq	%rbp
	.cfi_def_cfa_offset 40
	popq	%r12
	.cfi_def_cfa_offset 32
	popq	%r13
	.cfi_def_cfa_offset 24
	popq	%r14
	.cfi_def_cfa_offset 16
	popq	%r15
	.cfi_def_cfa_offset 8
.LEHB105:
	jmp	_ZSt16__ostream_insertIcSt11char_traitsIcEERSt13basic_ostreamIT_T0_ES6_PKS3_l@PLT
.LEHE105:
.L1695:
	.cfi_restore_state
	leaq	304(%rsp), %rax
	leal	2(%r14), %r15d
	movl	$1, %r13d
	movq	%rax, 8(%rsp)
	movq	%rax, 288(%rsp)
.L1705:
	movq	8(%rsp), %rdi
	.p2align 4,,10
	.p2align 3
.L1834:
	movq	%r15, %rdx
	movl	$45, %esi
	call	memset@PLT
	movq	288(%rsp), %rax
	jmp	.L1704
	.p2align 4,,10
	.p2align 3
.L1919:
	movq	%r14, %rdi
	call	strlen@PLT
	movq	%rax, %r13
	cmpq	$15, %rax
	ja	.L1920
	cmpq	$1, %r13
	jne	.L1778
	movzbl	(%r14), %eax
	movb	%al, 336(%rsp)
	movq	%rbx, %rax
.L1779:
	movq	%r13, 328(%rsp)
	leaq	320(%rsp), %rdx
	movq	%r12, %rsi
	movb	$0, (%rax,%r13)
	leaq	32(%rsp), %r13
	movq	%r13, %rdi
.LEHB106:
	call	_ZN6Engine12load_textureERKNSt7__cxx1112basic_stringIcSt11char_traitsIcESaIcEEE@PLT
.LEHE106:
	movq	320(%rsp), %rdi
	cmpq	%rbx, %rdi
	je	.L1780
	movq	336(%rsp), %rax
	leaq	1(%rax), %rsi
	call	_ZdlPvm@PLT
.L1780:
	leaq	80(%rsp), %r12
	movq	%r13, %rsi
	movq	%r12, %rdi
.LEHB107:
	call	_ZN7TextureC1ERKS_@PLT
.LEHE107:
	movq	%r12, %rsi
	movq	%rbp, %rdi
.LEHB108:
	call	_ZN6Entity18set_active_textureE7Texture@PLT
.LEHE108:
	movq	104(%rsp), %rbp
	testq	%rbp, %rbp
	je	.L1782
	cmpb	$0, __libc_single_threaded(%rip)
	je	.L1783
	movl	8(%rbp), %eax
	leal	-1(%rax), %edx
	movl	%edx, 8(%rbp)
.L1784:
	cmpl	$1, %eax
	je	.L1921
.L1782:
	movq	88(%rsp), %rbp
	testq	%rbp, %rbp
	je	.L1789
	cmpb	$0, __libc_single_threaded(%rip)
	je	.L1790
	movl	8(%rbp), %eax
	leal	-1(%rax), %edx
	movl	%edx, 8(%rbp)
.L1791:
	cmpl	$1, %eax
	je	.L1922
.L1789:
	movq	56(%rsp), %rbp
	testq	%rbp, %rbp
	je	.L1796
	cmpb	$0, __libc_single_threaded(%rip)
	je	.L1797
	movl	8(%rbp), %eax
	leal	-1(%rax), %edx
	movl	%edx, 8(%rbp)
.L1798:
	cmpl	$1, %eax
	je	.L1923
.L1796:
	movq	40(%rsp), %rbp
	testq	%rbp, %rbp
	je	.L1803
	cmpb	$0, __libc_single_threaded(%rip)
	je	.L1804
	movl	8(%rbp), %eax
	leal	-1(%rax), %edx
	movl	%edx, 8(%rbp)
.L1805:
	cmpl	$1, %eax
	je	.L1924
.L1803:
	movq	128(%rsp), %rdi
	cmpq	24(%rsp), %rdi
	je	.L1686
	movq	144(%rsp), %rax
	leaq	1(%rax), %rsi
	call	_ZdlPvm@PLT
	jmp	.L1686
	.p2align 4,,10
	.p2align 3
.L1754:
	testq	%r8, %r8
	je	.L1760
	leaq	(%rcx,%rsi), %rdi
	cmpq	$1, %r8
	je	.L1925
	movq	%r8, %rdx
	movq	%r9, %rsi
	call	memcpy@PLT
	jmp	.L1894
	.p2align 4,,10
	.p2align 3
.L1910:
	testq	%r8, %r8
	je	.L1742
	leaq	(%rcx,%rsi), %rdi
	cmpq	$1, %r8
	je	.L1926
	movq	%r8, %rdx
	movq	%r9, %rsi
	call	memcpy@PLT
	jmp	.L1893
	.p2align 4,,10
	.p2align 3
.L1778:
	movq	%rbx, %rax
	testq	%r13, %r13
	je	.L1779
	movq	%rbx, %rdi
	.p2align 4,,10
	.p2align 3
.L1777:
	movq	%r13, %rdx
	movq	%r14, %rsi
	call	memcpy@PLT
	movq	320(%rsp), %rax
	jmp	.L1779
	.p2align 4,,10
	.p2align 3
.L1768:
	leaq	320(%rsp), %rdi
	movl	$4, %r8d
	leaq	.LC76(%rip), %rcx
	xorl	%edx, %edx
.LEHB109:
	call	_ZNSt7__cxx1112basic_stringIcSt11char_traitsIcESaIcEE9_M_mutateEmmPKcm
.LEHE109:
	jmp	.L1769
	.p2align 4,,10
	.p2align 3
.L1920:
	leaq	1(%r13), %rdi
.LEHB110:
	call	_Znwm@PLT
.LEHE110:
	movq	%rax, 320(%rsp)
	movq	%rax, %rdi
	movq	%r13, 336(%rsp)
	jmp	.L1777
	.p2align 4,,10
	.p2align 3
.L1750:
	leaq	224(%rsp), %rdi
	movl	$1, %r8d
	leaq	.LC75(%rip), %rcx
	xorl	%edx, %edx
.LEHB111:
	call	_ZNSt7__cxx1112basic_stringIcSt11char_traitsIcESaIcEE9_M_mutateEmmPKcm
.LEHE111:
	jmp	.L1751
	.p2align 4,,10
	.p2align 3
.L1729:
	movl	$1, %r8d
	xorl	%edx, %edx
	movq	%rbx, %rsi
	movq	%r14, %rdi
	leaq	.LC75(%rip), %rcx
.LEHB112:
	call	_ZNSt7__cxx1112basic_stringIcSt11char_traitsIcESaIcEE9_M_mutateEmmPKcm
.LEHE112:
	jmp	.L1730
	.p2align 4,,10
	.p2align 3
.L1904:
	leaq	1(%r15), %rdi
.LEHB113:
	call	_Znwm@PLT
.LEHE113:
	movq	%r15, 304(%rsp)
	movq	%rax, 288(%rsp)
	movq	%rax, %rdi
	jmp	.L1834
	.p2align 4,,10
	.p2align 3
.L1908:
	leaq	1(%r14), %rdi
.LEHB114:
	call	_Znwm@PLT
.LEHE114:
	movq	%rax, 192(%rsp)
	movq	%rax, %rdi
	subl	$1, %ebx
	movq	%r14, 208(%rsp)
.L1721:
	movq	%r14, %rdx
	movl	$45, %esi
	call	memset@PLT
	movq	192(%rsp), %rax
	jmp	.L1722
	.p2align 4,,10
	.p2align 3
.L1914:
	movq	232(%rsp), %rsi
	movq	296(%rsp), %r8
	movq	%r15, %rcx
	movl	$15, %eax
	movdqa	240(%rsp), %xmm3
	movq	$0, 232(%rsp)
	movq	%rsi, 264(%rsp)
	leaq	(%rsi,%r8), %rbx
	movb	$0, 240(%rsp)
	movaps	%xmm3, 272(%rsp)
	jmp	.L1753
	.p2align 4,,10
	.p2align 3
.L1918:
	movdqa	336(%rsp), %xmm4
	movaps	%xmm4, 144(%rsp)
	jmp	.L1771
	.p2align 4,,10
	.p2align 3
.L1901:
	movl	%ecx, %r13d
	leal	5(%rax), %ecx
	jmp	.L1700
	.p2align 4,,10
	.p2align 3
.L1902:
	leal	6(%rax), %ecx
	leal	5(%rax), %r13d
	jmp	.L1700
	.p2align 4,,10
	.p2align 3
.L1905:
	leal	5(%rax), %ebx
	jmp	.L1718
	.p2align 4,,10
	.p2align 3
.L1916:
	movdqa	272(%rsp), %xmm6
	movaps	%xmm6, 336(%rsp)
	jmp	.L1765
	.p2align 4,,10
	.p2align 3
.L1912:
	movdqa	176(%rsp), %xmm5
	movaps	%xmm5, 240(%rsp)
	jmp	.L1747
	.p2align 4,,10
	.p2align 3
.L1903:
	leal	7(%rax), %ecx
	leal	6(%rax), %r13d
	jmp	.L1700
	.p2align 4,,10
	.p2align 3
.L1906:
	leal	6(%rax), %ebx
	jmp	.L1718
	.p2align 4,,10
	.p2align 3
.L1907:
	leal	7(%rax), %ebx
	jmp	.L1718
	.p2align 4,,10
	.p2align 3
.L1915:
	movq	%rsi, %r8
	leaq	288(%rsp), %rdi
	xorl	%edx, %edx
	xorl	%esi, %esi
.LEHB115:
	call	_ZNSt7__cxx1112basic_stringIcSt11char_traitsIcESaIcEE10_M_replaceEmmPKcm
.LEHE115:
	leaq	336(%rsp), %rbx
	leaq	16(%rax), %rdx
	movq	%rbx, 320(%rsp)
	movq	(%rax), %rcx
	cmpq	%rdx, %rcx
	je	.L1927
	movq	%rcx, 320(%rsp)
	movq	16(%rax), %rcx
	movq	%rcx, 336(%rsp)
.L1763:
	movq	8(%rax), %rcx
	movq	%rcx, 328(%rsp)
	movq	$0, 8(%rax)
	movb	$0, 16(%rax)
	movq	328(%rsp), %rsi
	movq	%rdx, (%rax)
	jmp	.L1764
	.p2align 4,,10
	.p2align 3
.L1911:
	movq	%rsi, %r8
	leaq	192(%rsp), %rdi
	xorl	%edx, %edx
	xorl	%esi, %esi
.LEHB116:
	call	_ZNSt7__cxx1112basic_stringIcSt11char_traitsIcESaIcEE10_M_replaceEmmPKcm
.LEHE116:
	leaq	240(%rsp), %r14
	leaq	16(%rax), %rdx
	movq	%r14, 224(%rsp)
	movq	(%rax), %rcx
	cmpq	%rdx, %rcx
	je	.L1928
	movq	%rcx, 224(%rsp)
	movq	16(%rax), %rcx
	movq	%rcx, 240(%rsp)
.L1745:
	movq	8(%rax), %rcx
	movb	$0, 16(%rax)
	movq	%rcx, 232(%rsp)
	movq	$0, 8(%rax)
	movq	232(%rsp), %rsi
	movq	%rdx, (%rax)
	jmp	.L1746
.L1713:
	leaq	208(%rsp), %rax
	leal	2(%r15), %r14d
	movl	$2, %ebx
	movq	%rax, 16(%rsp)
	movq	%rax, 192(%rsp)
.L1841:
	subl	$1, %ebx
.L1839:
	cmpq	$1, %r14
	jne	.L1847
	movb	$45, 208(%rsp)
	movq	192(%rsp), %rax
	jmp	.L1722
	.p2align 4,,10
	.p2align 3
.L1922:
	movq	0(%rbp), %rax
	movq	%rbp, %rdi
	call	*16(%rax)
	cmpb	$0, __libc_single_threaded(%rip)
	je	.L1793
	movl	12(%rbp), %eax
	leal	-1(%rax), %edx
	movl	%edx, 12(%rbp)
.L1794:
	cmpl	$1, %eax
	jne	.L1789
	movq	0(%rbp), %rax
	movq	%rbp, %rdi
	call	*24(%rax)
	jmp	.L1789
.L1694:
	leaq	304(%rsp), %rax
	leal	1(%r14), %r15d
	xorl	%r13d, %r13d
	movq	%rax, 8(%rsp)
	movq	%rax, 288(%rsp)
.L1840:
	cmpq	$1, %r15
	jne	.L1705
	movb	$45, 304(%rsp)
	movq	288(%rsp), %rax
	jmp	.L1704
	.p2align 4,,10
	.p2align 3
.L1923:
	movq	0(%rbp), %rax
	movq	%rbp, %rdi
	call	*16(%rax)
	cmpb	$0, __libc_single_threaded(%rip)
	je	.L1800
	movl	12(%rbp), %eax
	leal	-1(%rax), %edx
	movl	%edx, 12(%rbp)
.L1801:
	cmpl	$1, %eax
	jne	.L1796
	movq	0(%rbp), %rax
	movq	%rbp, %rdi
	call	*24(%rax)
	jmp	.L1796
	.p2align 4,,10
	.p2align 3
.L1924:
	movq	0(%rbp), %rax
	movq	%rbp, %rdi
	call	*16(%rax)
	cmpb	$0, __libc_single_threaded(%rip)
	je	.L1807
	movl	12(%rbp), %eax
	leal	-1(%rax), %edx
	movl	%edx, 12(%rbp)
.L1808:
	cmpl	$1, %eax
	jne	.L1803
	movq	0(%rbp), %rax
	movq	%rbp, %rdi
	call	*24(%rax)
	jmp	.L1803
	.p2align 4,,10
	.p2align 3
.L1921:
	movq	0(%rbp), %rax
	movq	%rbp, %rdi
	call	*16(%rax)
	cmpb	$0, __libc_single_threaded(%rip)
	je	.L1786
	movl	12(%rbp), %eax
	leal	-1(%rax), %edx
	movl	%edx, 12(%rbp)
.L1787:
	cmpl	$1, %eax
	jne	.L1782
	movq	0(%rbp), %rax
	movq	%rbp, %rdi
	call	*24(%rax)
	jmp	.L1782
	.p2align 4,,10
	.p2align 3
.L1790:
	movl	$-1, %eax
	lock xaddl	%eax, 8(%rbp)
	jmp	.L1791
	.p2align 4,,10
	.p2align 3
.L1783:
	movl	$-1, %eax
	lock xaddl	%eax, 8(%rbp)
	jmp	.L1784
	.p2align 4,,10
	.p2align 3
.L1797:
	movl	$-1, %eax
	lock xaddl	%eax, 8(%rbp)
	jmp	.L1798
	.p2align 4,,10
	.p2align 3
.L1804:
	movl	$-1, %eax
	lock xaddl	%eax, 8(%rbp)
	jmp	.L1805
.L1926:
	movzbl	(%r9), %eax
	movb	%al, (%rdi)
	movq	160(%rsp), %rcx
	jmp	.L1742
.L1925:
	movzbl	(%r9), %eax
	movb	%al, (%rdi)
	movq	256(%rsp), %rcx
	jmp	.L1760
.L1927:
	movdqu	16(%rax), %xmm7
	movaps	%xmm7, 336(%rsp)
	jmp	.L1763
.L1928:
	movdqu	16(%rax), %xmm7
	movaps	%xmm7, 240(%rsp)
	jmp	.L1745
.L1807:
	movl	$-1, %eax
	lock xaddl	%eax, 12(%rbp)
	jmp	.L1808
.L1786:
	movl	$-1, %eax
	lock xaddl	%eax, 12(%rbp)
	jmp	.L1787
.L1800:
	movl	$-1, %eax
	lock xaddl	%eax, 12(%rbp)
	jmp	.L1801
.L1793:
	movl	$-1, %eax
	lock xaddl	%eax, 12(%rbp)
	jmp	.L1794
.L1712:
	leaq	208(%rsp), %rax
	leal	1(%r15), %r14d
	xorl	%ebx, %ebx
	movq	%rax, 16(%rsp)
	movq	%rax, 192(%rsp)
	jmp	.L1839
.L1697:
	leaq	304(%rsp), %rax
	leal	4(%r14), %r15d
	movl	$3, %r13d
	movq	%rax, 8(%rsp)
	movq	%rax, 288(%rsp)
	jmp	.L1705
.L1714:
	leaq	208(%rsp), %rax
	leal	3(%r15), %r14d
	movl	$3, %ebx
	movq	%rax, 16(%rsp)
	movq	%rax, 192(%rsp)
	jmp	.L1841
.L1696:
	leaq	304(%rsp), %rax
	leal	3(%r14), %r15d
	movl	$2, %r13d
	movq	%rax, 8(%rsp)
	movq	%rax, 288(%rsp)
	jmp	.L1705
.L1715:
	leaq	208(%rsp), %rax
	leal	4(%r15), %r14d
	movl	$4, %ebx
	movq	%rax, 16(%rsp)
	movq	%rax, 192(%rsp)
	jmp	.L1841
.L1847:
	movq	16(%rsp), %rdi
	jmp	.L1721
.L1896:
	call	__stack_chk_fail@PLT
.L1917:
	leaq	.LC59(%rip), %rdi
.LEHB117:
	call	_ZSt20__throw_length_errorPKc@PLT
.LEHE117:
.L1913:
	leaq	.LC59(%rip), %rdi
.LEHB118:
	call	_ZSt20__throw_length_errorPKc@PLT
.LEHE118:
.L1909:
	leaq	.LC59(%rip), %rdi
.LEHB119:
	call	_ZSt20__throw_length_errorPKc@PLT
.LEHE119:
.L1857:
	endbr64
	movq	%rax, %rbx
	jmp	.L1735
.L1856:
	endbr64
	movq	%rax, %rbx
	jmp	.L1819
.L1865:
	endbr64
	movq	%rax, %rbp
	jmp	.L1824
.L1810:
	movq	320(%rsp), %rdi
	cmpq	%rbx, %rdi
	jne	.L1929
.L1811:
	movq	%rbp, %rbx
.L1812:
	movq	256(%rsp), %rdi
	cmpq	%r15, %rdi
	je	.L1814
	movq	272(%rsp), %rax
	leaq	1(%rax), %rsi
	call	_ZdlPvm@PLT
.L1814:
	movq	224(%rsp), %rdi
	cmpq	%r14, %rdi
	je	.L1816
	movq	240(%rsp), %rax
	leaq	1(%rax), %rsi
	call	_ZdlPvm@PLT
.L1816:
	movq	160(%rsp), %rdi
	cmpq	%r13, %rdi
	je	.L1735
	movq	176(%rsp), %rax
	leaq	1(%rax), %rsi
	call	_ZdlPvm@PLT
.L1735:
	movq	192(%rsp), %rdi
	cmpq	16(%rsp), %rdi
	je	.L1819
	movq	208(%rsp), %rax
	leaq	1(%rax), %rsi
	call	_ZdlPvm@PLT
.L1819:
	movq	288(%rsp), %rdi
	cmpq	8(%rsp), %rdi
	je	.L1820
	movq	304(%rsp), %rax
	leaq	1(%rax), %rsi
	call	_ZdlPvm@PLT
.L1820:
	movq	%rbx, %rdi
.LEHB120:
	call	_Unwind_Resume@PLT
.L1824:
	movq	%r12, %rdi
	call	_ZN7TextureD1Ev
.L1825:
	movq	%r13, %rdi
	call	_ZN7TextureD1Ev
.L1823:
	movq	128(%rsp), %rdi
	cmpq	24(%rsp), %rdi
	je	.L1826
	movq	144(%rsp), %rax
	leaq	1(%rax), %rsi
	call	_ZdlPvm@PLT
.L1826:
	movq	%rbp, %rdi
	call	_Unwind_Resume@PLT
.LEHE120:
.L1860:
	endbr64
	movq	%rax, %rbx
	jmp	.L1812
.L1863:
	endbr64
	movq	%rax, %rbp
	jmp	.L1823
.L1864:
	endbr64
	movq	%rax, %rbp
	jmp	.L1825
.L1862:
	endbr64
	movq	%rax, %rbp
.L1821:
	movq	320(%rsp), %rdi
	cmpq	%rbx, %rdi
	je	.L1823
	movq	336(%rsp), %rax
	leaq	1(%rax), %rsi
	call	_ZdlPvm@PLT
	jmp	.L1823
.L1861:
	endbr64
	movq	%rax, %rbp
	jmp	.L1810
.L1866:
	endbr64
.L1898:
	movq	%rax, %rbx
	jmp	.L1816
.L1929:
	movq	336(%rsp), %rax
	leaq	1(%rax), %rsi
	call	_ZdlPvm@PLT
	jmp	.L1811
.L1859:
	endbr64
	movq	%rax, %rbx
	jmp	.L1814
.L1858:
	endbr64
	jmp	.L1898
	.cfi_endproc
.LFE12097:
	.section	.gcc_except_table
.LLSDA12097:
	.byte	0xff
	.byte	0xff
	.byte	0x1
	.uleb128 .LLSDACSE12097-.LLSDACSB12097
.LLSDACSB12097:
	.uleb128 .LEHB100-.LFB12097
	.uleb128 .LEHE100-.LEHB100
	.uleb128 0
	.uleb128 0
	.uleb128 .LEHB101-.LFB12097
	.uleb128 .LEHE101-.LEHB101
	.uleb128 .L1857-.LFB12097
	.uleb128 0
	.uleb128 .LEHB102-.LFB12097
	.uleb128 .LEHE102-.LEHB102
	.uleb128 .L1858-.LFB12097
	.uleb128 0
	.uleb128 .LEHB103-.LFB12097
	.uleb128 .LEHE103-.LEHB103
	.uleb128 .L1860-.LFB12097
	.uleb128 0
	.uleb128 .LEHB104-.LFB12097
	.uleb128 .LEHE104-.LEHB104
	.uleb128 .L1863-.LFB12097
	.uleb128 0
	.uleb128 .LEHB105-.LFB12097
	.uleb128 .LEHE105-.LEHB105
	.uleb128 0
	.uleb128 0
	.uleb128 .LEHB106-.LFB12097
	.uleb128 .LEHE106-.LEHB106
	.uleb128 .L1862-.LFB12097
	.uleb128 0
	.uleb128 .LEHB107-.LFB12097
	.uleb128 .LEHE107-.LEHB107
	.uleb128 .L1864-.LFB12097
	.uleb128 0
	.uleb128 .LEHB108-.LFB12097
	.uleb128 .LEHE108-.LEHB108
	.uleb128 .L1865-.LFB12097
	.uleb128 0
	.uleb128 .LEHB109-.LFB12097
	.uleb128 .LEHE109-.LEHB109
	.uleb128 .L1861-.LFB12097
	.uleb128 0
	.uleb128 .LEHB110-.LFB12097
	.uleb128 .LEHE110-.LEHB110
	.uleb128 .L1863-.LFB12097
	.uleb128 0
	.uleb128 .LEHB111-.LFB12097
	.uleb128 .LEHE111-.LEHB111
	.uleb128 .L1859-.LFB12097
	.uleb128 0
	.uleb128 .LEHB112-.LFB12097
	.uleb128 .LEHE112-.LEHB112
	.uleb128 .L1866-.LFB12097
	.uleb128 0
	.uleb128 .LEHB113-.LFB12097
	.uleb128 .LEHE113-.LEHB113
	.uleb128 0
	.uleb128 0
	.uleb128 .LEHB114-.LFB12097
	.uleb128 .LEHE114-.LEHB114
	.uleb128 .L1856-.LFB12097
	.uleb128 0
	.uleb128 .LEHB115-.LFB12097
	.uleb128 .LEHE115-.LEHB115
	.uleb128 .L1860-.LFB12097
	.uleb128 0
	.uleb128 .LEHB116-.LFB12097
	.uleb128 .LEHE116-.LEHB116
	.uleb128 .L1858-.LFB12097
	.uleb128 0
	.uleb128 .LEHB117-.LFB12097
	.uleb128 .LEHE117-.LEHB117
	.uleb128 .L1861-.LFB12097
	.uleb128 0
	.uleb128 .LEHB118-.LFB12097
	.uleb128 .LEHE118-.LEHB118
	.uleb128 .L1859-.LFB12097
	.uleb128 0
	.uleb128 .LEHB119-.LFB12097
	.uleb128 .LEHE119-.LEHB119
	.uleb128 .L1866-.LFB12097
	.uleb128 0
	.uleb128 .LEHB120-.LFB12097
	.uleb128 .LEHE120-.LEHB120
	.uleb128 0
	.uleb128 0
.LLSDACSE12097:
	.section	.text._ZN9Structure16update_animationER6Engine,"axG",@progbits,_ZN9Structure16update_animationER6Engine,comdat
	.size	_ZN9Structure16update_animationER6Engine, .-_ZN9Structure16update_animationER6Engine
	.section	.text._ZN6Liquid11pre_physicsER6Engine,"axG",@progbits,_ZN6Liquid11pre_physicsER6Engine,comdat
	.align 2
	.p2align 4
	.weak	_ZN6Liquid11pre_physicsER6Engine
	.type	_ZN6Liquid11pre_physicsER6Engine, @function
_ZN6Liquid11pre_physicsER6Engine:
.LFB12120:
	.cfi_startproc
	endbr64
	jmp	_ZN9Structure16update_animationER6Engine
	.cfi_endproc
.LFE12120:
	.size	_ZN6Liquid11pre_physicsER6Engine, .-_ZN6Liquid11pre_physicsER6Engine
	.section	.text._ZN4Gate11pre_physicsER6Engine,"axG",@progbits,_ZN4Gate11pre_physicsER6Engine,comdat
	.align 2
	.p2align 4
	.weak	_ZN4Gate11pre_physicsER6Engine
	.type	_ZN4Gate11pre_physicsER6Engine, @function
_ZN4Gate11pre_physicsER6Engine:
.LFB12116:
	.cfi_startproc
	endbr64
	jmp	_ZN9Structure16update_animationER6Engine
	.cfi_endproc
.LFE12116:
	.size	_ZN4Gate11pre_physicsER6Engine, .-_ZN4Gate11pre_physicsER6Engine
	.section	.text._ZN4Door11pre_physicsER6Engine,"axG",@progbits,_ZN4Door11pre_physicsER6Engine,comdat
	.align 2
	.p2align 4
	.weak	_ZN4Door11pre_physicsER6Engine
	.type	_ZN4Door11pre_physicsER6Engine, @function
_ZN4Door11pre_physicsER6Engine:
.LFB12105:
	.cfi_startproc
	.cfi_personality 0x9b,DW.ref.__gxx_personality_v0
	.cfi_lsda 0x1b,.LLSDA12105
	endbr64
	pushq	%r15
	.cfi_def_cfa_offset 16
	.cfi_offset 15, -16
	pushq	%r14
	.cfi_def_cfa_offset 24
	.cfi_offset 14, -24
	pushq	%r13
	.cfi_def_cfa_offset 32
	.cfi_offset 13, -32
	pushq	%r12
	.cfi_def_cfa_offset 40
	.cfi_offset 12, -40
	pushq	%rbp
	.cfi_def_cfa_offset 48
	.cfi_offset 6, -48
	movq	%rsi, %rbp
	pushq	%rbx
	.cfi_def_cfa_offset 56
	.cfi_offset 3, -56
	movq	%rdi, %rbx
	subq	$72, %rsp
	.cfi_def_cfa_offset 128
	movq	%fs:40, %rax
	movq	%rax, 56(%rsp)
	xorl	%eax, %eax
.LEHB121:
	call	_ZN9Structure16update_animationER6Engine
	cmpb	$0, 186(%rbx)
	je	.L1987
.L1932:
	movq	56(%rsp), %rax
	subq	%fs:40, %rax
	jne	.L1986
	addq	$72, %rsp
	.cfi_remember_state
	.cfi_def_cfa_offset 56
	popq	%rbx
	.cfi_def_cfa_offset 48
	popq	%rbp
	.cfi_def_cfa_offset 40
	popq	%r12
	.cfi_def_cfa_offset 32
	popq	%r13
	.cfi_def_cfa_offset 24
	popq	%r14
	.cfi_def_cfa_offset 16
	popq	%r15
	.cfi_def_cfa_offset 8
	ret
	.p2align 4,,10
	.p2align 3
.L1987:
	.cfi_restore_state
	movq	%rbp, %rdi
	call	_ZN6Engine14get_delta_timeEv@PLT
	movapd	%xmm0, %xmm1
	pxor	%xmm0, %xmm0
	cvtss2sd	204(%rbx), %xmm0
	addsd	%xmm1, %xmm0
	cvtsd2ss	%xmm0, %xmm0
	comiss	216(%rbx), %xmm0
	movss	%xmm0, 204(%rbx)
	jb	.L1932
	movl	208(%rbx), %eax
	cmpl	212(%rbx), %eax
	jge	.L1932
	addl	$1, %eax
	leaq	32(%rsp), %r13
	movq	%rbx, %rsi
	movl	$0x00000000, 204(%rbx)
	movl	%eax, 208(%rbx)
	movq	%r13, %rdi
	call	_ZNK6Entity14get_position3DEv@PLT
	movq	72(%rbx), %xmm0
	movl	$576, %edi
	movq	.LC77(%rip), %xmm2
	movq	.LC78(%rip), %xmm1
	mulps	%xmm0, %xmm2
	movq	32(%rsp), %xmm0
	addps	%xmm1, %xmm0
	addps	%xmm0, %xmm2
	movss	40(%rsp), %xmm0
	movss	%xmm0, 12(%rsp)
	movq	%xmm2, %rbx
	call	_Znwm@PLT
.LEHE121:
	movq	%rbx, 32(%rsp)
	movq	%rbp, %rcx
	movq	%r13, %rsi
	movq	%rax, %r12
	leaq	8(%rax), %r15
	movss	12(%rsp), %xmm0
	movq	.LC1(%rip), %rax
	leaq	16(%r12), %r14
	leaq	16(%rsp), %rbx
	movq	%rax, 8(%r12)
	leaq	16+_ZTVSt23_Sp_counted_ptr_inplaceI7LemmingSaIS0_ELN9__gnu_cxx12_Lock_policyE2EE(%rip), %rax
	movq	%rbx, %rdx
	movq	%r14, %rdi
	movq	%rax, (%r12)
	movq	.LC47(%rip), %rax
	movss	%xmm0, 40(%rsp)
	movq	%rax, 16(%rsp)
.LEHB122:
	call	_ZN7LemmingC1E6Point3IfE7Vector2IfER6Engine
.LEHE122:
	movq	%rbp, %rsi
	movq	%rbx, %rdi
.LEHB123:
	call	_ZN6Engine8get_gameEv@PLT
.LEHE123:
	movq	%r14, %xmm0
	movq	%r12, %xmm3
	movq	16(%rsp), %rdi
	cmpb	$0, __libc_single_threaded(%rip)
	punpcklqdq	%xmm3, %xmm0
	movaps	%xmm0, 32(%rsp)
	je	.L1939
	addl	$1, 8(%r12)
.L1940:
	movq	%r13, %rsi
.LEHB124:
	call	_ZN4Game13create_entityESt10shared_ptrI6EntityE@PLT
.LEHE124:
	movq	40(%rsp), %rbp
	movzbl	__libc_single_threaded(%rip), %eax
	testq	%rbp, %rbp
	je	.L1942
	testb	%al, %al
	je	.L1943
	movl	8(%rbp), %edx
	leal	-1(%rdx), %eax
	movl	%eax, 8(%rbp)
.L1944:
	movzbl	__libc_single_threaded(%rip), %eax
	cmpl	$1, %edx
	je	.L1988
.L1942:
	movq	24(%rsp), %rbp
	testq	%rbp, %rbp
	je	.L1953
	testb	%al, %al
	je	.L1949
	movl	8(%rbp), %eax
	leal	-1(%rax), %edx
	movl	%edx, 8(%rbp)
.L1950:
	cmpl	$1, %eax
	je	.L1989
.L1953:
	cmpb	$0, __libc_single_threaded(%rip)
	je	.L1990
	movl	8(%r12), %eax
	leal	-1(%rax), %edx
	movl	%edx, 8(%r12)
.L1954:
	cmpl	$1, %eax
	jne	.L1932
	movq	(%r12), %rax
	movq	%r12, %rdi
	call	*16(%rax)
	cmpb	$0, __libc_single_threaded(%rip)
	je	.L1957
	movl	12(%r12), %eax
	leal	-1(%rax), %edx
	movl	%edx, 12(%r12)
.L1958:
	cmpl	$1, %eax
	jne	.L1932
	movq	56(%rsp), %rax
	subq	%fs:40, %rax
	jne	.L1986
	movq	(%r12), %rax
	movq	%r12, %rdi
	movq	24(%rax), %rax
	addq	$72, %rsp
	.cfi_remember_state
	.cfi_def_cfa_offset 56
	popq	%rbx
	.cfi_def_cfa_offset 48
	popq	%rbp
	.cfi_def_cfa_offset 40
	popq	%r12
	.cfi_def_cfa_offset 32
	popq	%r13
	.cfi_def_cfa_offset 24
	popq	%r14
	.cfi_def_cfa_offset 16
	popq	%r15
	.cfi_def_cfa_offset 8
	jmp	*%rax
	.p2align 4,,10
	.p2align 3
.L1939:
	.cfi_restore_state
	lock addl	$1, 8(%r12)
	jmp	.L1940
.L1988:
	movq	0(%rbp), %rax
	movq	%rbp, %rdi
	call	*16(%rax)
	cmpb	$0, __libc_single_threaded(%rip)
	je	.L1946
	movl	12(%rbp), %edx
	leal	-1(%rdx), %eax
	movl	%eax, 12(%rbp)
.L1947:
	movzbl	__libc_single_threaded(%rip), %eax
	cmpl	$1, %edx
	jne	.L1942
	movq	0(%rbp), %rax
	movq	%rbp, %rdi
	call	*24(%rax)
	movzbl	__libc_single_threaded(%rip), %eax
	jmp	.L1942
.L1989:
	movq	0(%rbp), %rax
	movq	%rbp, %rdi
	call	*16(%rax)
	cmpb	$0, __libc_single_threaded(%rip)
	je	.L1951
	movl	12(%rbp), %eax
	leal	-1(%rax), %edx
	movl	%edx, 12(%rbp)
.L1952:
	cmpl	$1, %eax
	jne	.L1953
	movq	0(%rbp), %rax
	movq	%rbp, %rdi
	call	*24(%rax)
	jmp	.L1953
.L1943:
	movl	$-1, %edx
	lock xaddl	%edx, 8(%rbp)
	jmp	.L1944
.L1990:
	movl	$-1, %eax
	lock xaddl	%eax, (%r15)
	jmp	.L1954
.L1949:
	movl	$-1, %eax
	lock xaddl	%eax, 8(%rbp)
	jmp	.L1950
.L1946:
	movl	$-1, %edx
	lock xaddl	%edx, 12(%rbp)
	jmp	.L1947
.L1951:
	movl	$-1, %eax
	lock xaddl	%eax, 12(%rbp)
	jmp	.L1952
.L1957:
	movl	$-1, %eax
	lock xaddl	%eax, 12(%r12)
	jmp	.L1958
.L1986:
	call	__stack_chk_fail@PLT
.L1969:
	endbr64
	movq	%rax, %rbp
	jmp	.L1961
.L1968:
	endbr64
	movq	%rax, %rbp
	jmp	.L1964
.L1970:
	endbr64
	movq	%rax, %rbp
	jmp	.L1938
.L1961:
	movq	40(%rsp), %rdi
	testq	%rdi, %rdi
	je	.L1962
	call	_ZNSt16_Sp_counted_baseILN9__gnu_cxx12_Lock_policyE2EE10_M_releaseEv
.L1962:
	movq	24(%rsp), %rdi
	testq	%rdi, %rdi
	je	.L1964
	call	_ZNSt16_Sp_counted_baseILN9__gnu_cxx12_Lock_policyE2EE10_M_releaseEv
.L1964:
	movq	%r12, %rdi
	call	_ZNSt16_Sp_counted_baseILN9__gnu_cxx12_Lock_policyE2EE10_M_releaseEv
	movq	%rbp, %rdi
.LEHB125:
	call	_Unwind_Resume@PLT
.L1938:
	movq	%r12, %rdi
	movl	$576, %esi
	call	_ZdlPvm@PLT
	movq	%rbp, %rdi
	call	_Unwind_Resume@PLT
.LEHE125:
	.cfi_endproc
.LFE12105:
	.section	.gcc_except_table
.LLSDA12105:
	.byte	0xff
	.byte	0xff
	.byte	0x1
	.uleb128 .LLSDACSE12105-.LLSDACSB12105
.LLSDACSB12105:
	.uleb128 .LEHB121-.LFB12105
	.uleb128 .LEHE121-.LEHB121
	.uleb128 0
	.uleb128 0
	.uleb128 .LEHB122-.LFB12105
	.uleb128 .LEHE122-.LEHB122
	.uleb128 .L1970-.LFB12105
	.uleb128 0
	.uleb128 .LEHB123-.LFB12105
	.uleb128 .LEHE123-.LEHB123
	.uleb128 .L1968-.LFB12105
	.uleb128 0
	.uleb128 .LEHB124-.LFB12105
	.uleb128 .LEHE124-.LEHB124
	.uleb128 .L1969-.LFB12105
	.uleb128 0
	.uleb128 .LEHB125-.LFB12105
	.uleb128 .LEHE125-.LEHB125
	.uleb128 0
	.uleb128 0
.LLSDACSE12105:
	.section	.text._ZN4Door11pre_physicsER6Engine,"axG",@progbits,_ZN4Door11pre_physicsER6Engine,comdat
	.size	_ZN4Door11pre_physicsER6Engine, .-_ZN4Door11pre_physicsER6Engine
	.section	.rodata._ZN7Lemming16update_animationER6Engine.str1.1,"aMS",@progbits,1
.LC79:
	.string	"Lemming destruido\n"
.LC80:
	.string	"assets/lemming/lemming_"
	.section	.text._ZN7Lemming16update_animationER6Engine,"axG",@progbits,_ZN7Lemming16update_animationER6Engine,comdat
	.align 2
	.p2align 4
	.weak	_ZN7Lemming16update_animationER6Engine
	.type	_ZN7Lemming16update_animationER6Engine, @function
_ZN7Lemming16update_animationER6Engine:
.LFB12082:
	.cfi_startproc
	.cfi_personality 0x9b,DW.ref.__gxx_personality_v0
	.cfi_lsda 0x1b,.LLSDA12082
	endbr64
	pushq	%r15
	.cfi_def_cfa_offset 16
	.cfi_offset 15, -16
	pushq	%r14
	.cfi_def_cfa_offset 24
	.cfi_offset 14, -24
	pushq	%r13
	.cfi_def_cfa_offset 32
	.cfi_offset 13, -32
	pushq	%r12
	.cfi_def_cfa_offset 40
	.cfi_offset 12, -40
	pushq	%rbp
	.cfi_def_cfa_offset 48
	.cfi_offset 6, -48
	pushq	%rbx
	.cfi_def_cfa_offset 56
	.cfi_offset 3, -56
	subq	$456, %rsp
	.cfi_def_cfa_offset 512
	movq	%fs:40, %rax
	movq	%rax, 440(%rsp)
	xorl	%eax, %eax
	cmpb	$0, 369(%rdi)
	jne	.L2235
.L1991:
	movq	440(%rsp), %rax
	subq	%fs:40, %rax
	jne	.L2234
	addq	$456, %rsp
	.cfi_remember_state
	.cfi_def_cfa_offset 56
	popq	%rbx
	.cfi_def_cfa_offset 48
	popq	%rbp
	.cfi_def_cfa_offset 40
	popq	%r12
	.cfi_def_cfa_offset 32
	popq	%r13
	.cfi_def_cfa_offset 24
	popq	%r14
	.cfi_def_cfa_offset 16
	popq	%r15
	.cfi_def_cfa_offset 8
	ret
	.p2align 4,,10
	.p2align 3
.L2235:
	.cfi_restore_state
	movq	%rdi, %rbp
	movq	%rsi, %rdi
	movq	%rsi, %r12
.LEHB126:
	call	_ZN6Engine14get_delta_timeEv@PLT
.LEHE126:
	movslq	548(%rbp), %rax
	pxor	%xmm2, %xmm2
	movapd	%xmm0, %xmm1
	pxor	%xmm0, %xmm0
	cvtss2sd	328(%rbp), %xmm0
	addsd	%xmm1, %xmm0
	leaq	0(%rbp,%rax,4), %rcx
	movq	%rax, %rdi
	cvtsd2ss	%xmm0, %xmm0
	movss	%xmm0, 328(%rbp)
	movl	432(%rcx), %esi
	movss	488(%rcx), %xmm1
	cvtsi2ssl	%esi, %xmm2
	divss	%xmm2, %xmm1
	comiss	%xmm1, %xmm0
	jb	.L1991
	movl	$0x00000000, 328(%rbp)
	movl	372(%rbp), %eax
	addl	$1, %eax
	cltd
	idivl	%esi
	movl	%edx, 372(%rbp)
	movl	%edx, %eax
	orl	376(%rcx), %eax
	je	.L2236
	movl	%edx, %r14d
	movl	%edx, %ebx
	shrl	$31, %r14d
	negl	%ebx
	cmovs	%edx, %ebx
	movl	%r14d, %edi
	cmpl	$9, %ebx
	jbe	.L2000
	cmpl	$99, %ebx
	jbe	.L2001
	cmpl	$999, %ebx
	jbe	.L2002
	movl	%ebx, %edx
	cmpl	$9999, %ebx
	jbe	.L2003
	movabsq	$3777893186295716171, %r8
	movl	$1, %ecx
	jmp	.L2004
	.p2align 4,,10
	.p2align 3
.L2218:
	cmpl	$99, %edx
	jbe	.L2237
	cmpl	$999, %edx
	jbe	.L2238
	cmpl	$9999, %edx
	jbe	.L2239
.L2004:
	movq	%rdx, %rax
	movq	%rdx, %rsi
	mulq	%r8
	movl	%ecx, %eax
	addl	$4, %ecx
	shrq	$11, %rdx
	cmpq	$99999, %rsi
	ja	.L2218
	leal	3(%rax), %r13d
.L2006:
	leaq	384(%rsp), %rax
	leal	(%rcx,%rdi), %r15d
	movq	%rax, 24(%rsp)
	movq	%rax, 368(%rsp)
	cmpq	$15, %r15
	ja	.L2240
	testq	%r15, %r15
	jne	.L2175
.L2010:
	movq	%r15, 376(%rsp)
	movzbl	%r14b, %esi
	movb	$0, (%rax,%r15)
	addq	368(%rsp), %rsi
	cmpl	$99, %ebx
	jbe	.L2012
	leaq	_ZZNSt8__detail18__to_chars_10_implIjEEvPcjT_E8__digits(%rip), %rcx
	.p2align 4,,10
	.p2align 3
.L2013:
	movl	%ebx, %edx
	movl	%ebx, %eax
	imulq	$1374389535, %rdx, %rdx
	shrq	$37, %rdx
	imull	$100, %edx, %edi
	subl	%edi, %eax
	movl	%ebx, %edi
	movl	%edx, %ebx
	movl	%r13d, %edx
	addl	%eax, %eax
	leal	1(%rax), %r8d
	movzbl	(%rcx,%rax), %eax
	movzbl	(%rcx,%r8), %r8d
	movb	%r8b, (%rsi,%rdx)
	leal	-1(%r13), %edx
	subl	$2, %r13d
	movb	%al, (%rsi,%rdx)
	cmpl	$9999, %edi
	ja	.L2013
.L2012:
	leal	48(%rbx), %eax
	cmpl	$9, %ebx
	jbe	.L2015
	addl	%ebx, %ebx
	leaq	_ZZNSt8__detail18__to_chars_10_implIjEEvPcjT_E8__digits(%rip), %rcx
	leal	1(%rbx), %eax
	movzbl	(%rcx,%rax), %eax
	movb	%al, 1(%rsi)
	movzbl	(%rcx,%rbx), %eax
.L2015:
	movb	%al, (%rsi)
	movl	548(%rbp), %eax
	movl	%eax, %r14d
	movl	%eax, %r13d
	shrl	$31, %r14d
	negl	%r13d
	cmovs	%eax, %r13d
	movl	%r14d, %edi
	cmpl	$9, %r13d
	jbe	.L2018
	cmpl	$99, %r13d
	jbe	.L2019
	cmpl	$999, %r13d
	jbe	.L2020
	movl	%r13d, %edx
	cmpl	$9999, %r13d
	jbe	.L2021
	movabsq	$3777893186295716171, %rsi
	movl	$1, %ebx
	jmp	.L2022
	.p2align 4,,10
	.p2align 3
.L2219:
	cmpl	$99, %edx
	jbe	.L2241
	cmpl	$999, %edx
	jbe	.L2242
	cmpl	$9999, %edx
	jbe	.L2243
.L2022:
	movq	%rdx, %rax
	movq	%rdx, %rcx
	mulq	%rsi
	movl	%ebx, %eax
	addl	$4, %ebx
	shrq	$11, %rdx
	cmpq	$99999, %rcx
	ja	.L2219
.L2024:
	leaq	288(%rsp), %rax
	leal	(%rbx,%rdi), %r15d
	movq	%rax, 32(%rsp)
	movq	%rax, 272(%rsp)
	cmpq	$15, %r15
	ja	.L2244
	subl	$1, %ebx
	testq	%r15, %r15
	jne	.L2174
.L2028:
	movq	%r15, 280(%rsp)
	movzbl	%r14b, %r14d
	movb	$0, (%rax,%r15)
	addq	272(%rsp), %r14
	cmpl	$99, %r13d
	jbe	.L2029
	leaq	_ZZNSt8__detail18__to_chars_10_implIjEEvPcjT_E8__digits(%rip), %rcx
	.p2align 4,,10
	.p2align 3
.L2030:
	movl	%r13d, %edx
	movl	%r13d, %eax
	imulq	$1374389535, %rdx, %rdx
	shrq	$37, %rdx
	imull	$100, %edx, %esi
	subl	%esi, %eax
	movl	%r13d, %esi
	movl	%edx, %r13d
	movl	%ebx, %edx
	addl	%eax, %eax
	leal	1(%rax), %edi
	movzbl	(%rcx,%rax), %eax
	movzbl	(%rcx,%rdi), %edi
	movb	%dil, (%r14,%rdx)
	leal	-1(%rbx), %edx
	subl	$2, %ebx
	movb	%al, (%r14,%rdx)
	cmpl	$9999, %esi
	ja	.L2030
.L2029:
	leal	48(%r13), %eax
	cmpl	$9, %r13d
	jbe	.L2032
	addl	%r13d, %r13d
	leaq	_ZZNSt8__detail18__to_chars_10_implIjEEvPcjT_E8__digits(%rip), %rcx
	leal	1(%r13), %eax
	movzbl	(%rcx,%rax), %eax
	movb	%al, 1(%r14)
	movzbl	(%rcx,%r13), %eax
.L2032:
	movb	%al, (%r14)
	movl	552(%rbp), %eax
	movl	%eax, %r14d
	movl	%eax, %r13d
	shrl	$31, %r14d
	negl	%r13d
	cmovs	%eax, %r13d
	movl	%r14d, %edi
	cmpl	$9, %r13d
	jbe	.L2245
	cmpl	$99, %r13d
	jbe	.L2038
	cmpl	$999, %r13d
	jbe	.L2039
	movl	%r13d, %edx
	cmpl	$9999, %r13d
	jbe	.L2040
	movabsq	$3777893186295716171, %rsi
	movl	$1, %ebx
	jmp	.L2041
	.p2align 4,,10
	.p2align 3
.L2221:
	cmpl	$99, %edx
	jbe	.L2246
	cmpl	$999, %edx
	jbe	.L2247
	cmpl	$9999, %edx
	jbe	.L2248
.L2041:
	movq	%rdx, %rax
	movq	%rdx, %rcx
	mulq	%rsi
	movl	%ebx, %eax
	addl	$4, %ebx
	shrq	$11, %rdx
	cmpq	$99999, %rcx
	ja	.L2221
.L2043:
	leaq	192(%rsp), %rax
	leal	(%rbx,%rdi), %r15d
	movq	%rax, 40(%rsp)
	movq	%rax, 176(%rsp)
	cmpq	$15, %r15
	ja	.L2249
	subl	$1, %ebx
	testq	%r15, %r15
	jne	.L2173
.L2047:
	movq	%r15, 184(%rsp)
	movzbl	%r14b, %r14d
	movb	$0, (%rax,%r15)
	addq	176(%rsp), %r14
	cmpl	$99, %r13d
	jbe	.L2048
	leaq	_ZZNSt8__detail18__to_chars_10_implIjEEvPcjT_E8__digits(%rip), %rcx
	.p2align 4,,10
	.p2align 3
.L2049:
	movl	%r13d, %edx
	movl	%r13d, %eax
	imulq	$1374389535, %rdx, %rdx
	shrq	$37, %rdx
	imull	$100, %edx, %esi
	subl	%esi, %eax
	movl	%r13d, %esi
	movl	%edx, %r13d
	movl	%ebx, %edx
	addl	%eax, %eax
	leal	1(%rax), %edi
	movzbl	(%rcx,%rax), %eax
	movzbl	(%rcx,%rdi), %edi
	movb	%dil, (%r14,%rdx)
	leal	-1(%rbx), %edx
	subl	$2, %ebx
	movb	%al, (%r14,%rdx)
	cmpl	$9999, %esi
	ja	.L2049
.L2048:
	leal	48(%r13), %eax
	cmpl	$9, %r13d
	jbe	.L2051
	addl	%r13d, %r13d
	leaq	_ZZNSt8__detail18__to_chars_10_implIjEEvPcjT_E8__digits(%rip), %rax
	leal	1(%r13), %edx
	movzbl	(%rax,%rdx), %edx
	movzbl	(%rax,%r13), %eax
	movb	%dl, 1(%r14)
.L2051:
	movb	%al, (%r14)
	leaq	176(%rsp), %rdi
	xorl	%edx, %edx
	xorl	%esi, %esi
	movl	$23, %r8d
	leaq	.LC80(%rip), %rcx
.LEHB127:
	call	_ZNSt7__cxx1112basic_stringIcSt11char_traitsIcESaIcEE10_M_replaceEmmPKcm
.LEHE127:
	leaq	224(%rsp), %r13
	leaq	16(%rax), %rdx
	movq	%r13, 208(%rsp)
	movq	(%rax), %rcx
	cmpq	%rdx, %rcx
	je	.L2250
	movq	%rcx, 208(%rsp)
	movq	16(%rax), %rcx
	movq	%rcx, 224(%rsp)
.L2053:
	movq	8(%rax), %rcx
	movb	$0, 16(%rax)
	movq	%rcx, 216(%rsp)
	movq	$0, 8(%rax)
	movq	216(%rsp), %rbx
	movq	%rdx, (%rax)
	movabsq	$9223372036854775807, %rax
	cmpq	%rax, %rbx
	je	.L2251
	movq	208(%rsp), %rdx
	movl	$15, %eax
	leaq	1(%rbx), %r14
	cmpq	%r13, %rdx
	cmovne	224(%rsp), %rax
	cmpq	%rax, %r14
	ja	.L2056
	movb	$95, (%rdx,%rbx)
.L2057:
	movq	208(%rsp), %rax
	movq	%r14, 216(%rsp)
	movb	$0, 1(%rax,%rbx)
	movq	208(%rsp), %rcx
	leaq	256(%rsp), %rax
	movq	%rax, 8(%rsp)
	movq	%rax, 240(%rsp)
	cmpq	%r13, %rcx
	je	.L2252
	movq	216(%rsp), %rsi
	cmpq	8(%rsp), %rcx
	movl	$15, %edx
	movq	%rcx, 240(%rsp)
	movq	224(%rsp), %rax
	movq	280(%rsp), %r8
	movq	%r13, 208(%rsp)
	movq	%rsi, 248(%rsp)
	movq	$0, 216(%rsp)
	leaq	(%rsi,%r8), %rbx
	movb	$0, 224(%rsp)
	movq	%rax, 256(%rsp)
	cmove	%rdx, %rax
.L2059:
	movq	272(%rsp), %r9
	cmpq	%rbx, %rax
	jnb	.L2060
	cmpq	32(%rsp), %r9
	movl	$15, %eax
	cmovne	288(%rsp), %rax
	cmpq	%rbx, %rax
	jnb	.L2253
	leaq	240(%rsp), %rdi
	movq	%r9, %rcx
	xorl	%edx, %edx
.LEHB128:
	call	_ZNSt7__cxx1112basic_stringIcSt11char_traitsIcESaIcEE9_M_mutateEmmPKcm
.LEHE128:
.L2232:
	movq	240(%rsp), %rcx
.L2066:
	leaq	320(%rsp), %r14
	movq	%rbx, 248(%rsp)
	movb	$0, (%rcx,%rbx)
	movq	240(%rsp), %rax
	movq	%r14, 304(%rsp)
	cmpq	8(%rsp), %rax
	je	.L2254
	movq	%rax, 304(%rsp)
	movq	256(%rsp), %rax
	movq	%rax, 320(%rsp)
.L2071:
	movq	248(%rsp), %rsi
	movq	8(%rsp), %rax
	movq	$0, 248(%rsp)
	movb	$0, 256(%rsp)
	movq	%rsi, 312(%rsp)
	movq	%rax, 240(%rsp)
.L2070:
	movabsq	$9223372036854775807, %rax
	cmpq	%rax, %rsi
	je	.L2255
	movq	304(%rsp), %rdx
	movl	$15, %eax
	leaq	1(%rsi), %rbx
	cmpq	%r14, %rdx
	cmovne	320(%rsp), %rax
	cmpq	%rax, %rbx
	ja	.L2074
	movb	$95, (%rdx,%rsi)
.L2075:
	movq	304(%rsp), %rax
	movq	%rbx, 312(%rsp)
	movb	$0, (%rax,%rbx)
	movq	304(%rsp), %rcx
	leaq	352(%rsp), %rax
	movq	%rax, 16(%rsp)
	movq	%rax, 336(%rsp)
	cmpq	%r14, %rcx
	je	.L2256
	movq	312(%rsp), %rsi
	cmpq	16(%rsp), %rcx
	movl	$15, %edx
	movq	%rcx, 336(%rsp)
	movq	320(%rsp), %rax
	movq	376(%rsp), %r8
	movq	%r14, 304(%rsp)
	movq	%rsi, 344(%rsp)
	movq	$0, 312(%rsp)
	leaq	(%rsi,%r8), %rbx
	movb	$0, 320(%rsp)
	movq	%rax, 352(%rsp)
	cmove	%rdx, %rax
.L2077:
	movq	368(%rsp), %r9
	cmpq	%rbx, %rax
	jnb	.L2078
	cmpq	24(%rsp), %r9
	movl	$15, %eax
	cmovne	384(%rsp), %rax
	cmpq	%rbx, %rax
	jnb	.L2257
	leaq	336(%rsp), %rdi
	movq	%r9, %rcx
	xorl	%edx, %edx
.LEHB129:
	call	_ZNSt7__cxx1112basic_stringIcSt11char_traitsIcESaIcEE9_M_mutateEmmPKcm
.LEHE129:
.L2233:
	movq	336(%rsp), %rcx
.L2084:
	movq	%rbx, 344(%rsp)
	movb	$0, (%rcx,%rbx)
	leaq	416(%rsp), %rbx
	movq	336(%rsp), %rax
	movq	%rbx, 400(%rsp)
	cmpq	16(%rsp), %rax
	je	.L2258
	movq	%rax, 400(%rsp)
	movq	352(%rsp), %rax
	movq	%rax, 416(%rsp)
.L2089:
	movq	344(%rsp), %rsi
	movq	16(%rsp), %rax
	movq	$0, 344(%rsp)
	movb	$0, 352(%rsp)
	movq	%rsi, 408(%rsp)
	movq	%rax, 336(%rsp)
.L2088:
	movabsq	$9223372036854775807, %rax
	subq	%rsi, %rax
	cmpq	$3, %rax
	jbe	.L2259
	movq	400(%rsp), %rdx
	movl	$15, %eax
	leaq	4(%rsi), %r15
	cmpq	%rbx, %rdx
	cmovne	416(%rsp), %rax
	cmpq	%rax, %r15
	ja	.L2092
	movl	$1735290926, (%rdx,%rsi)
.L2093:
	movq	400(%rsp), %rax
	movq	%r15, 408(%rsp)
	movb	$0, (%rax,%r15)
	movq	400(%rsp), %rax
	leaq	160(%rsp), %r15
	movq	%r15, 144(%rsp)
	cmpq	%rbx, %rax
	je	.L2260
	movq	%rax, 144(%rsp)
	movq	416(%rsp), %rax
	movq	%rax, 160(%rsp)
.L2095:
	movq	408(%rsp), %rax
	movq	336(%rsp), %rdi
	movq	%rax, 152(%rsp)
	cmpq	16(%rsp), %rdi
