	.file	"geralt_eats.cpp"
	.text
	.section	.text._ZNKSt5ctypeIcE8do_widenEc,"axG",@progbits,_ZNKSt5ctypeIcE8do_widenEc,comdat
	.align 2
	.p2align 4
	.weak	_ZNKSt5ctypeIcE8do_widenEc
	.type	_ZNKSt5ctypeIcE8do_widenEc, @function
_ZNKSt5ctypeIcE8do_widenEc:
.LFB2543:
	.cfi_startproc
	endbr64
	movl	%esi, %eax
	ret
	.cfi_endproc
.LFE2543:
	.size	_ZNKSt5ctypeIcE8do_widenEc, .-_ZNKSt5ctypeIcE8do_widenEc
	.section	.text._ZNSt23_Sp_counted_ptr_inplaceI5AppleSaIS0_ELN9__gnu_cxx12_Lock_policyE2EED2Ev,"axG",@progbits,_ZNSt23_Sp_counted_ptr_inplaceI5AppleSaIS0_ELN9__gnu_cxx12_Lock_policyE2EED5Ev,comdat
	.align 2
	.p2align 4
	.weak	_ZNSt23_Sp_counted_ptr_inplaceI5AppleSaIS0_ELN9__gnu_cxx12_Lock_policyE2EED2Ev
	.type	_ZNSt23_Sp_counted_ptr_inplaceI5AppleSaIS0_ELN9__gnu_cxx12_Lock_policyE2EED2Ev, @function
_ZNSt23_Sp_counted_ptr_inplaceI5AppleSaIS0_ELN9__gnu_cxx12_Lock_policyE2EED2Ev:
.LFB13646:
	.cfi_startproc
	endbr64
	ret
	.cfi_endproc
.LFE13646:
	.size	_ZNSt23_Sp_counted_ptr_inplaceI5AppleSaIS0_ELN9__gnu_cxx12_Lock_policyE2EED2Ev, .-_ZNSt23_Sp_counted_ptr_inplaceI5AppleSaIS0_ELN9__gnu_cxx12_Lock_policyE2EED2Ev
	.weak	_ZNSt23_Sp_counted_ptr_inplaceI5AppleSaIS0_ELN9__gnu_cxx12_Lock_policyE2EED1Ev
	.set	_ZNSt23_Sp_counted_ptr_inplaceI5AppleSaIS0_ELN9__gnu_cxx12_Lock_policyE2EED1Ev,_ZNSt23_Sp_counted_ptr_inplaceI5AppleSaIS0_ELN9__gnu_cxx12_Lock_policyE2EED2Ev
	.section	.text._ZNSt23_Sp_counted_ptr_inplaceI12Lemming_heroSaIS0_ELN9__gnu_cxx12_Lock_policyE2EED2Ev,"axG",@progbits,_ZNSt23_Sp_counted_ptr_inplaceI12Lemming_heroSaIS0_ELN9__gnu_cxx12_Lock_policyE2EED5Ev,comdat
	.align 2
	.p2align 4
	.weak	_ZNSt23_Sp_counted_ptr_inplaceI12Lemming_heroSaIS0_ELN9__gnu_cxx12_Lock_policyE2EED2Ev
	.type	_ZNSt23_Sp_counted_ptr_inplaceI12Lemming_heroSaIS0_ELN9__gnu_cxx12_Lock_policyE2EED2Ev, @function
_ZNSt23_Sp_counted_ptr_inplaceI12Lemming_heroSaIS0_ELN9__gnu_cxx12_Lock_policyE2EED2Ev:
.LFB13653:
	.cfi_startproc
	endbr64
	ret
	.cfi_endproc
.LFE13653:
	.size	_ZNSt23_Sp_counted_ptr_inplaceI12Lemming_heroSaIS0_ELN9__gnu_cxx12_Lock_policyE2EED2Ev, .-_ZNSt23_Sp_counted_ptr_inplaceI12Lemming_heroSaIS0_ELN9__gnu_cxx12_Lock_policyE2EED2Ev
	.weak	_ZNSt23_Sp_counted_ptr_inplaceI12Lemming_heroSaIS0_ELN9__gnu_cxx12_Lock_policyE2EED1Ev
	.set	_ZNSt23_Sp_counted_ptr_inplaceI12Lemming_heroSaIS0_ELN9__gnu_cxx12_Lock_policyE2EED1Ev,_ZNSt23_Sp_counted_ptr_inplaceI12Lemming_heroSaIS0_ELN9__gnu_cxx12_Lock_policyE2EED2Ev
	.section	.text._ZNSt23_Sp_counted_ptr_inplaceI10Rigid_bodySaIS0_ELN9__gnu_cxx12_Lock_policyE2EED2Ev,"axG",@progbits,_ZNSt23_Sp_counted_ptr_inplaceI10Rigid_bodySaIS0_ELN9__gnu_cxx12_Lock_policyE2EED5Ev,comdat
	.align 2
	.p2align 4
	.weak	_ZNSt23_Sp_counted_ptr_inplaceI10Rigid_bodySaIS0_ELN9__gnu_cxx12_Lock_policyE2EED2Ev
	.type	_ZNSt23_Sp_counted_ptr_inplaceI10Rigid_bodySaIS0_ELN9__gnu_cxx12_Lock_policyE2EED2Ev, @function
_ZNSt23_Sp_counted_ptr_inplaceI10Rigid_bodySaIS0_ELN9__gnu_cxx12_Lock_policyE2EED2Ev:
.LFB13660:
	.cfi_startproc
	endbr64
	ret
	.cfi_endproc
.LFE13660:
	.size	_ZNSt23_Sp_counted_ptr_inplaceI10Rigid_bodySaIS0_ELN9__gnu_cxx12_Lock_policyE2EED2Ev, .-_ZNSt23_Sp_counted_ptr_inplaceI10Rigid_bodySaIS0_ELN9__gnu_cxx12_Lock_policyE2EED2Ev
	.weak	_ZNSt23_Sp_counted_ptr_inplaceI10Rigid_bodySaIS0_ELN9__gnu_cxx12_Lock_policyE2EED1Ev
	.set	_ZNSt23_Sp_counted_ptr_inplaceI10Rigid_bodySaIS0_ELN9__gnu_cxx12_Lock_policyE2EED1Ev,_ZNSt23_Sp_counted_ptr_inplaceI10Rigid_bodySaIS0_ELN9__gnu_cxx12_Lock_policyE2EED2Ev
	.section	.text._ZNSt23_Sp_counted_ptr_inplaceI6GeraltSaIS0_ELN9__gnu_cxx12_Lock_policyE2EED2Ev,"axG",@progbits,_ZNSt23_Sp_counted_ptr_inplaceI6GeraltSaIS0_ELN9__gnu_cxx12_Lock_policyE2EED5Ev,comdat
	.align 2
	.p2align 4
	.weak	_ZNSt23_Sp_counted_ptr_inplaceI6GeraltSaIS0_ELN9__gnu_cxx12_Lock_policyE2EED2Ev
	.type	_ZNSt23_Sp_counted_ptr_inplaceI6GeraltSaIS0_ELN9__gnu_cxx12_Lock_policyE2EED2Ev, @function
_ZNSt23_Sp_counted_ptr_inplaceI6GeraltSaIS0_ELN9__gnu_cxx12_Lock_policyE2EED2Ev:
.LFB13667:
	.cfi_startproc
	endbr64
	ret
	.cfi_endproc
.LFE13667:
	.size	_ZNSt23_Sp_counted_ptr_inplaceI6GeraltSaIS0_ELN9__gnu_cxx12_Lock_policyE2EED2Ev, .-_ZNSt23_Sp_counted_ptr_inplaceI6GeraltSaIS0_ELN9__gnu_cxx12_Lock_policyE2EED2Ev
	.weak	_ZNSt23_Sp_counted_ptr_inplaceI6GeraltSaIS0_ELN9__gnu_cxx12_Lock_policyE2EED1Ev
	.set	_ZNSt23_Sp_counted_ptr_inplaceI6GeraltSaIS0_ELN9__gnu_cxx12_Lock_policyE2EED1Ev,_ZNSt23_Sp_counted_ptr_inplaceI6GeraltSaIS0_ELN9__gnu_cxx12_Lock_policyE2EED2Ev
	.section	.text._ZNSt23_Sp_counted_ptr_inplaceI13Geralt_cameraSaIS0_ELN9__gnu_cxx12_Lock_policyE2EED2Ev,"axG",@progbits,_ZNSt23_Sp_counted_ptr_inplaceI13Geralt_cameraSaIS0_ELN9__gnu_cxx12_Lock_policyE2EED5Ev,comdat
	.align 2
	.p2align 4
	.weak	_ZNSt23_Sp_counted_ptr_inplaceI13Geralt_cameraSaIS0_ELN9__gnu_cxx12_Lock_policyE2EED2Ev
	.type	_ZNSt23_Sp_counted_ptr_inplaceI13Geralt_cameraSaIS0_ELN9__gnu_cxx12_Lock_policyE2EED2Ev, @function
_ZNSt23_Sp_counted_ptr_inplaceI13Geralt_cameraSaIS0_ELN9__gnu_cxx12_Lock_policyE2EED2Ev:
.LFB13674:
	.cfi_startproc
	endbr64
	ret
	.cfi_endproc
.LFE13674:
	.size	_ZNSt23_Sp_counted_ptr_inplaceI13Geralt_cameraSaIS0_ELN9__gnu_cxx12_Lock_policyE2EED2Ev, .-_ZNSt23_Sp_counted_ptr_inplaceI13Geralt_cameraSaIS0_ELN9__gnu_cxx12_Lock_policyE2EED2Ev
	.weak	_ZNSt23_Sp_counted_ptr_inplaceI13Geralt_cameraSaIS0_ELN9__gnu_cxx12_Lock_policyE2EED1Ev
	.set	_ZNSt23_Sp_counted_ptr_inplaceI13Geralt_cameraSaIS0_ELN9__gnu_cxx12_Lock_policyE2EED1Ev,_ZNSt23_Sp_counted_ptr_inplaceI13Geralt_cameraSaIS0_ELN9__gnu_cxx12_Lock_policyE2EED2Ev
	.section	.text._ZNSt23_Sp_counted_ptr_inplaceI13Geralt_cameraSaIS0_ELN9__gnu_cxx12_Lock_policyE2EE10_M_disposeEv,"axG",@progbits,_ZNSt23_Sp_counted_ptr_inplaceI13Geralt_cameraSaIS0_ELN9__gnu_cxx12_Lock_policyE2EE10_M_disposeEv,comdat
	.align 2
	.p2align 4
	.weak	_ZNSt23_Sp_counted_ptr_inplaceI13Geralt_cameraSaIS0_ELN9__gnu_cxx12_Lock_policyE2EE10_M_disposeEv
	.type	_ZNSt23_Sp_counted_ptr_inplaceI13Geralt_cameraSaIS0_ELN9__gnu_cxx12_Lock_policyE2EE10_M_disposeEv, @function
_ZNSt23_Sp_counted_ptr_inplaceI13Geralt_cameraSaIS0_ELN9__gnu_cxx12_Lock_policyE2EE10_M_disposeEv:
.LFB13677:
	.cfi_startproc
	endbr64
	ret
	.cfi_endproc
.LFE13677:
	.size	_ZNSt23_Sp_counted_ptr_inplaceI13Geralt_cameraSaIS0_ELN9__gnu_cxx12_Lock_policyE2EE10_M_disposeEv, .-_ZNSt23_Sp_counted_ptr_inplaceI13Geralt_cameraSaIS0_ELN9__gnu_cxx12_Lock_policyE2EE10_M_disposeEv
	.section	.text._ZNSt19_Sp_counted_deleterIDnPFvP11SDL_SurfaceESaIvELN9__gnu_cxx12_Lock_policyE2EED2Ev,"axG",@progbits,_ZNSt19_Sp_counted_deleterIDnPFvP11SDL_SurfaceESaIvELN9__gnu_cxx12_Lock_policyE2EED5Ev,comdat
	.align 2
	.p2align 4
	.weak	_ZNSt19_Sp_counted_deleterIDnPFvP11SDL_SurfaceESaIvELN9__gnu_cxx12_Lock_policyE2EED2Ev
	.type	_ZNSt19_Sp_counted_deleterIDnPFvP11SDL_SurfaceESaIvELN9__gnu_cxx12_Lock_policyE2EED2Ev, @function
_ZNSt19_Sp_counted_deleterIDnPFvP11SDL_SurfaceESaIvELN9__gnu_cxx12_Lock_policyE2EED2Ev:
.LFB13681:
	.cfi_startproc
	endbr64
	ret
	.cfi_endproc
.LFE13681:
	.size	_ZNSt19_Sp_counted_deleterIDnPFvP11SDL_SurfaceESaIvELN9__gnu_cxx12_Lock_policyE2EED2Ev, .-_ZNSt19_Sp_counted_deleterIDnPFvP11SDL_SurfaceESaIvELN9__gnu_cxx12_Lock_policyE2EED2Ev
	.weak	_ZNSt19_Sp_counted_deleterIDnPFvP11SDL_SurfaceESaIvELN9__gnu_cxx12_Lock_policyE2EED1Ev
	.set	_ZNSt19_Sp_counted_deleterIDnPFvP11SDL_SurfaceESaIvELN9__gnu_cxx12_Lock_policyE2EED1Ev,_ZNSt19_Sp_counted_deleterIDnPFvP11SDL_SurfaceESaIvELN9__gnu_cxx12_Lock_policyE2EED2Ev
	.section	.text._ZNSt19_Sp_counted_deleterIDnPFvP11SDL_SurfaceESaIvELN9__gnu_cxx12_Lock_policyE2EE10_M_disposeEv,"axG",@progbits,_ZNSt19_Sp_counted_deleterIDnPFvP11SDL_SurfaceESaIvELN9__gnu_cxx12_Lock_policyE2EE10_M_disposeEv,comdat
	.align 2
	.p2align 4
	.weak	_ZNSt19_Sp_counted_deleterIDnPFvP11SDL_SurfaceESaIvELN9__gnu_cxx12_Lock_policyE2EE10_M_disposeEv
	.type	_ZNSt19_Sp_counted_deleterIDnPFvP11SDL_SurfaceESaIvELN9__gnu_cxx12_Lock_policyE2EE10_M_disposeEv, @function
_ZNSt19_Sp_counted_deleterIDnPFvP11SDL_SurfaceESaIvELN9__gnu_cxx12_Lock_policyE2EE10_M_disposeEv:
.LFB13684:
	.cfi_startproc
	.cfi_personality 0x9b,DW.ref.__gxx_personality_v0
	.cfi_lsda 0x1b,.LLSDA13684
	endbr64
	subq	$8, %rsp
	.cfi_def_cfa_offset 16
	movq	%rdi, %r8
	xorl	%edi, %edi
	call	*16(%r8)
	addq	$8, %rsp
	.cfi_def_cfa_offset 8
	ret
	.cfi_endproc
.LFE13684:
	.globl	__gxx_personality_v0
	.section	.gcc_except_table._ZNSt19_Sp_counted_deleterIDnPFvP11SDL_SurfaceESaIvELN9__gnu_cxx12_Lock_policyE2EE10_M_disposeEv,"aG",@progbits,_ZNSt19_Sp_counted_deleterIDnPFvP11SDL_SurfaceESaIvELN9__gnu_cxx12_Lock_policyE2EE10_M_disposeEv,comdat
.LLSDA13684:
	.byte	0xff
	.byte	0xff
	.byte	0x1
	.uleb128 .LLSDACSE13684-.LLSDACSB13684
.LLSDACSB13684:
.LLSDACSE13684:
	.section	.text._ZNSt19_Sp_counted_deleterIDnPFvP11SDL_SurfaceESaIvELN9__gnu_cxx12_Lock_policyE2EE10_M_disposeEv,"axG",@progbits,_ZNSt19_Sp_counted_deleterIDnPFvP11SDL_SurfaceESaIvELN9__gnu_cxx12_Lock_policyE2EE10_M_disposeEv,comdat
	.size	_ZNSt19_Sp_counted_deleterIDnPFvP11SDL_SurfaceESaIvELN9__gnu_cxx12_Lock_policyE2EE10_M_disposeEv, .-_ZNSt19_Sp_counted_deleterIDnPFvP11SDL_SurfaceESaIvELN9__gnu_cxx12_Lock_policyE2EE10_M_disposeEv
	.section	.text._ZNSt19_Sp_counted_deleterIDnPFvP11SDL_TextureESaIvELN9__gnu_cxx12_Lock_policyE2EED2Ev,"axG",@progbits,_ZNSt19_Sp_counted_deleterIDnPFvP11SDL_TextureESaIvELN9__gnu_cxx12_Lock_policyE2EED5Ev,comdat
	.align 2
	.p2align 4
	.weak	_ZNSt19_Sp_counted_deleterIDnPFvP11SDL_TextureESaIvELN9__gnu_cxx12_Lock_policyE2EED2Ev
	.type	_ZNSt19_Sp_counted_deleterIDnPFvP11SDL_TextureESaIvELN9__gnu_cxx12_Lock_policyE2EED2Ev, @function
_ZNSt19_Sp_counted_deleterIDnPFvP11SDL_TextureESaIvELN9__gnu_cxx12_Lock_policyE2EED2Ev:
.LFB13688:
	.cfi_startproc
	endbr64
	ret
	.cfi_endproc
.LFE13688:
	.size	_ZNSt19_Sp_counted_deleterIDnPFvP11SDL_TextureESaIvELN9__gnu_cxx12_Lock_policyE2EED2Ev, .-_ZNSt19_Sp_counted_deleterIDnPFvP11SDL_TextureESaIvELN9__gnu_cxx12_Lock_policyE2EED2Ev
	.weak	_ZNSt19_Sp_counted_deleterIDnPFvP11SDL_TextureESaIvELN9__gnu_cxx12_Lock_policyE2EED1Ev
	.set	_ZNSt19_Sp_counted_deleterIDnPFvP11SDL_TextureESaIvELN9__gnu_cxx12_Lock_policyE2EED1Ev,_ZNSt19_Sp_counted_deleterIDnPFvP11SDL_TextureESaIvELN9__gnu_cxx12_Lock_policyE2EED2Ev
	.section	.text._ZNSt19_Sp_counted_deleterIDnPFvP11SDL_TextureESaIvELN9__gnu_cxx12_Lock_policyE2EE10_M_disposeEv,"axG",@progbits,_ZNSt19_Sp_counted_deleterIDnPFvP11SDL_TextureESaIvELN9__gnu_cxx12_Lock_policyE2EE10_M_disposeEv,comdat
	.align 2
	.p2align 4
	.weak	_ZNSt19_Sp_counted_deleterIDnPFvP11SDL_TextureESaIvELN9__gnu_cxx12_Lock_policyE2EE10_M_disposeEv
	.type	_ZNSt19_Sp_counted_deleterIDnPFvP11SDL_TextureESaIvELN9__gnu_cxx12_Lock_policyE2EE10_M_disposeEv, @function
_ZNSt19_Sp_counted_deleterIDnPFvP11SDL_TextureESaIvELN9__gnu_cxx12_Lock_policyE2EE10_M_disposeEv:
.LFB13691:
	.cfi_startproc
	.cfi_personality 0x9b,DW.ref.__gxx_personality_v0
	.cfi_lsda 0x1b,.LLSDA13691
	endbr64
	subq	$8, %rsp
	.cfi_def_cfa_offset 16
	movq	%rdi, %r8
	xorl	%edi, %edi
	call	*16(%r8)
	addq	$8, %rsp
	.cfi_def_cfa_offset 8
	ret
	.cfi_endproc
.LFE13691:
	.section	.gcc_except_table._ZNSt19_Sp_counted_deleterIDnPFvP11SDL_TextureESaIvELN9__gnu_cxx12_Lock_policyE2EE10_M_disposeEv,"aG",@progbits,_ZNSt19_Sp_counted_deleterIDnPFvP11SDL_TextureESaIvELN9__gnu_cxx12_Lock_policyE2EE10_M_disposeEv,comdat
.LLSDA13691:
	.byte	0xff
	.byte	0xff
	.byte	0x1
	.uleb128 .LLSDACSE13691-.LLSDACSB13691
.LLSDACSB13691:
.LLSDACSE13691:
	.section	.text._ZNSt19_Sp_counted_deleterIDnPFvP11SDL_TextureESaIvELN9__gnu_cxx12_Lock_policyE2EE10_M_disposeEv,"axG",@progbits,_ZNSt19_Sp_counted_deleterIDnPFvP11SDL_TextureESaIvELN9__gnu_cxx12_Lock_policyE2EE10_M_disposeEv,comdat
	.size	_ZNSt19_Sp_counted_deleterIDnPFvP11SDL_TextureESaIvELN9__gnu_cxx12_Lock_policyE2EE10_M_disposeEv, .-_ZNSt19_Sp_counted_deleterIDnPFvP11SDL_TextureESaIvELN9__gnu_cxx12_Lock_policyE2EE10_M_disposeEv
	.section	.text._ZNSt19_Sp_counted_deleterIDnPFvP11SDL_SurfaceESaIvELN9__gnu_cxx12_Lock_policyE2EED0Ev,"axG",@progbits,_ZNSt19_Sp_counted_deleterIDnPFvP11SDL_SurfaceESaIvELN9__gnu_cxx12_Lock_policyE2EED5Ev,comdat
	.align 2
	.p2align 4
	.weak	_ZNSt19_Sp_counted_deleterIDnPFvP11SDL_SurfaceESaIvELN9__gnu_cxx12_Lock_policyE2EED0Ev
	.type	_ZNSt19_Sp_counted_deleterIDnPFvP11SDL_SurfaceESaIvELN9__gnu_cxx12_Lock_policyE2EED0Ev, @function
_ZNSt19_Sp_counted_deleterIDnPFvP11SDL_SurfaceESaIvELN9__gnu_cxx12_Lock_policyE2EED0Ev:
.LFB13683:
	.cfi_startproc
	endbr64
	movl	$32, %esi
	jmp	_ZdlPvm@PLT
	.cfi_endproc
.LFE13683:
	.size	_ZNSt19_Sp_counted_deleterIDnPFvP11SDL_SurfaceESaIvELN9__gnu_cxx12_Lock_policyE2EED0Ev, .-_ZNSt19_Sp_counted_deleterIDnPFvP11SDL_SurfaceESaIvELN9__gnu_cxx12_Lock_policyE2EED0Ev
	.section	.text._ZNSt19_Sp_counted_deleterIDnPFvP11SDL_TextureESaIvELN9__gnu_cxx12_Lock_policyE2EED0Ev,"axG",@progbits,_ZNSt19_Sp_counted_deleterIDnPFvP11SDL_TextureESaIvELN9__gnu_cxx12_Lock_policyE2EED5Ev,comdat
	.align 2
	.p2align 4
	.weak	_ZNSt19_Sp_counted_deleterIDnPFvP11SDL_TextureESaIvELN9__gnu_cxx12_Lock_policyE2EED0Ev
	.type	_ZNSt19_Sp_counted_deleterIDnPFvP11SDL_TextureESaIvELN9__gnu_cxx12_Lock_policyE2EED0Ev, @function
_ZNSt19_Sp_counted_deleterIDnPFvP11SDL_TextureESaIvELN9__gnu_cxx12_Lock_policyE2EED0Ev:
.LFB13690:
	.cfi_startproc
	endbr64
	movl	$32, %esi
	jmp	_ZdlPvm@PLT
	.cfi_endproc
.LFE13690:
	.size	_ZNSt19_Sp_counted_deleterIDnPFvP11SDL_TextureESaIvELN9__gnu_cxx12_Lock_policyE2EED0Ev, .-_ZNSt19_Sp_counted_deleterIDnPFvP11SDL_TextureESaIvELN9__gnu_cxx12_Lock_policyE2EED0Ev
	.section	.text._ZNSt23_Sp_counted_ptr_inplaceI13Geralt_cameraSaIS0_ELN9__gnu_cxx12_Lock_policyE2EED0Ev,"axG",@progbits,_ZNSt23_Sp_counted_ptr_inplaceI13Geralt_cameraSaIS0_ELN9__gnu_cxx12_Lock_policyE2EED5Ev,comdat
	.align 2
	.p2align 4
	.weak	_ZNSt23_Sp_counted_ptr_inplaceI13Geralt_cameraSaIS0_ELN9__gnu_cxx12_Lock_policyE2EED0Ev
	.type	_ZNSt23_Sp_counted_ptr_inplaceI13Geralt_cameraSaIS0_ELN9__gnu_cxx12_Lock_policyE2EED0Ev, @function
_ZNSt23_Sp_counted_ptr_inplaceI13Geralt_cameraSaIS0_ELN9__gnu_cxx12_Lock_policyE2EED0Ev:
.LFB13676:
	.cfi_startproc
	endbr64
	movl	$40, %esi
	jmp	_ZdlPvm@PLT
	.cfi_endproc
.LFE13676:
	.size	_ZNSt23_Sp_counted_ptr_inplaceI13Geralt_cameraSaIS0_ELN9__gnu_cxx12_Lock_policyE2EED0Ev, .-_ZNSt23_Sp_counted_ptr_inplaceI13Geralt_cameraSaIS0_ELN9__gnu_cxx12_Lock_policyE2EED0Ev
	.section	.text._ZNSt23_Sp_counted_ptr_inplaceI6GeraltSaIS0_ELN9__gnu_cxx12_Lock_policyE2EED0Ev,"axG",@progbits,_ZNSt23_Sp_counted_ptr_inplaceI6GeraltSaIS0_ELN9__gnu_cxx12_Lock_policyE2EED5Ev,comdat
	.align 2
	.p2align 4
	.weak	_ZNSt23_Sp_counted_ptr_inplaceI6GeraltSaIS0_ELN9__gnu_cxx12_Lock_policyE2EED0Ev
	.type	_ZNSt23_Sp_counted_ptr_inplaceI6GeraltSaIS0_ELN9__gnu_cxx12_Lock_policyE2EED0Ev, @function
_ZNSt23_Sp_counted_ptr_inplaceI6GeraltSaIS0_ELN9__gnu_cxx12_Lock_policyE2EED0Ev:
.LFB13669:
	.cfi_startproc
	endbr64
	movl	$304, %esi
	jmp	_ZdlPvm@PLT
	.cfi_endproc
.LFE13669:
	.size	_ZNSt23_Sp_counted_ptr_inplaceI6GeraltSaIS0_ELN9__gnu_cxx12_Lock_policyE2EED0Ev, .-_ZNSt23_Sp_counted_ptr_inplaceI6GeraltSaIS0_ELN9__gnu_cxx12_Lock_policyE2EED0Ev
	.section	.text._ZNSt23_Sp_counted_ptr_inplaceI10Rigid_bodySaIS0_ELN9__gnu_cxx12_Lock_policyE2EED0Ev,"axG",@progbits,_ZNSt23_Sp_counted_ptr_inplaceI10Rigid_bodySaIS0_ELN9__gnu_cxx12_Lock_policyE2EED5Ev,comdat
	.align 2
	.p2align 4
	.weak	_ZNSt23_Sp_counted_ptr_inplaceI10Rigid_bodySaIS0_ELN9__gnu_cxx12_Lock_policyE2EED0Ev
	.type	_ZNSt23_Sp_counted_ptr_inplaceI10Rigid_bodySaIS0_ELN9__gnu_cxx12_Lock_policyE2EED0Ev, @function
_ZNSt23_Sp_counted_ptr_inplaceI10Rigid_bodySaIS0_ELN9__gnu_cxx12_Lock_policyE2EED0Ev:
.LFB13662:
	.cfi_startproc
	endbr64
	movl	$216, %esi
	jmp	_ZdlPvm@PLT
	.cfi_endproc
.LFE13662:
	.size	_ZNSt23_Sp_counted_ptr_inplaceI10Rigid_bodySaIS0_ELN9__gnu_cxx12_Lock_policyE2EED0Ev, .-_ZNSt23_Sp_counted_ptr_inplaceI10Rigid_bodySaIS0_ELN9__gnu_cxx12_Lock_policyE2EED0Ev
	.section	.text._ZNSt23_Sp_counted_ptr_inplaceI12Lemming_heroSaIS0_ELN9__gnu_cxx12_Lock_policyE2EED0Ev,"axG",@progbits,_ZNSt23_Sp_counted_ptr_inplaceI12Lemming_heroSaIS0_ELN9__gnu_cxx12_Lock_policyE2EED5Ev,comdat
	.align 2
	.p2align 4
	.weak	_ZNSt23_Sp_counted_ptr_inplaceI12Lemming_heroSaIS0_ELN9__gnu_cxx12_Lock_policyE2EED0Ev
	.type	_ZNSt23_Sp_counted_ptr_inplaceI12Lemming_heroSaIS0_ELN9__gnu_cxx12_Lock_policyE2EED0Ev, @function
_ZNSt23_Sp_counted_ptr_inplaceI12Lemming_heroSaIS0_ELN9__gnu_cxx12_Lock_policyE2EED0Ev:
.LFB13655:
	.cfi_startproc
	endbr64
	movl	$576, %esi
	jmp	_ZdlPvm@PLT
	.cfi_endproc
.LFE13655:
	.size	_ZNSt23_Sp_counted_ptr_inplaceI12Lemming_heroSaIS0_ELN9__gnu_cxx12_Lock_policyE2EED0Ev, .-_ZNSt23_Sp_counted_ptr_inplaceI12Lemming_heroSaIS0_ELN9__gnu_cxx12_Lock_policyE2EED0Ev
	.section	.text._ZNSt23_Sp_counted_ptr_inplaceI5AppleSaIS0_ELN9__gnu_cxx12_Lock_policyE2EED0Ev,"axG",@progbits,_ZNSt23_Sp_counted_ptr_inplaceI5AppleSaIS0_ELN9__gnu_cxx12_Lock_policyE2EED5Ev,comdat
	.align 2
	.p2align 4
	.weak	_ZNSt23_Sp_counted_ptr_inplaceI5AppleSaIS0_ELN9__gnu_cxx12_Lock_policyE2EED0Ev
	.type	_ZNSt23_Sp_counted_ptr_inplaceI5AppleSaIS0_ELN9__gnu_cxx12_Lock_policyE2EED0Ev, @function
_ZNSt23_Sp_counted_ptr_inplaceI5AppleSaIS0_ELN9__gnu_cxx12_Lock_policyE2EED0Ev:
.LFB13648:
	.cfi_startproc
	endbr64
	movl	$296, %esi
	jmp	_ZdlPvm@PLT
	.cfi_endproc
.LFE13648:
	.size	_ZNSt23_Sp_counted_ptr_inplaceI5AppleSaIS0_ELN9__gnu_cxx12_Lock_policyE2EED0Ev, .-_ZNSt23_Sp_counted_ptr_inplaceI5AppleSaIS0_ELN9__gnu_cxx12_Lock_policyE2EED0Ev
	.section	.text._ZN13Geralt_camera15update_positionER6Engine,"axG",@progbits,_ZN13Geralt_camera15update_positionER6Engine,comdat
	.align 2
	.p2align 4
	.weak	_ZN13Geralt_camera15update_positionER6Engine
	.type	_ZN13Geralt_camera15update_positionER6Engine, @function
_ZN13Geralt_camera15update_positionER6Engine:
.LFB12063:
	.cfi_startproc
	endbr64
	pushq	%rbp
	.cfi_def_cfa_offset 16
	.cfi_offset 6, -16
	movq	%rsi, %rbp
	pushq	%rbx
	.cfi_def_cfa_offset 24
	.cfi_offset 3, -24
	movq	%rdi, %rbx
	movq	%rsi, %rdi
	subq	$24, %rsp
	.cfi_def_cfa_offset 48
	call	_ZN6Engine14get_delta_timeEv@PLT
	pxor	%xmm2, %xmm2
	movq	%rbp, %rdi
	cvtsd2ss	%xmm0, %xmm2
	movss	%xmm2, 12(%rsp)
	call	_ZNK6Engine9is_a_downEv@PLT
	testb	%al, %al
	je	.L23
	pxor	%xmm1, %xmm1
	pxor	%xmm0, %xmm0
	cvtss2sd	12(%rsp), %xmm1
	mulsd	.LC0(%rip), %xmm1
	cvtss2sd	8(%rbx), %xmm0
	subsd	%xmm1, %xmm0
	cvtsd2ss	%xmm0, %xmm0
	movss	%xmm0, 8(%rbx)
	pxor	%xmm0, %xmm0
	cvtss2sd	16(%rbx), %xmm0
	subsd	%xmm1, %xmm0
	cvtsd2ss	%xmm0, %xmm0
	movss	%xmm0, 16(%rbx)
.L23:
	movq	%rbp, %rdi
	call	_ZNK6Engine9is_d_downEv@PLT
	testb	%al, %al
	je	.L22
	pxor	%xmm0, %xmm0
	pxor	%xmm1, %xmm1
	cvtss2sd	12(%rsp), %xmm0
	mulsd	.LC0(%rip), %xmm0
	cvtss2sd	8(%rbx), %xmm1
	addsd	%xmm0, %xmm1
	cvtsd2ss	%xmm1, %xmm1
	movss	%xmm1, 8(%rbx)
	pxor	%xmm1, %xmm1
	cvtss2sd	16(%rbx), %xmm1
	addsd	%xmm0, %xmm1
	cvtsd2ss	%xmm1, %xmm1
	movss	%xmm1, 16(%rbx)
.L22:
	addq	$24, %rsp
	.cfi_def_cfa_offset 24
	popq	%rbx
	.cfi_def_cfa_offset 16
	popq	%rbp
	.cfi_def_cfa_offset 8
	ret
	.cfi_endproc
.LFE12063:
	.size	_ZN13Geralt_camera15update_positionER6Engine, .-_ZN13Geralt_camera15update_positionER6Engine
	.section	.text._ZN12Lemming_hero12post_physicsER6Engine,"axG",@progbits,_ZN12Lemming_hero12post_physicsER6Engine,comdat
	.align 2
	.p2align 4
	.weak	_ZN12Lemming_hero12post_physicsER6Engine
	.type	_ZN12Lemming_hero12post_physicsER6Engine, @function
_ZN12Lemming_hero12post_physicsER6Engine:
.LFB12108:
	.cfi_startproc
	endbr64
	cmpb	$0, 200(%rdi)
	jne	.L32
	movl	548(%rdi), %eax
	andl	$-5, %eax
	cmpl	$2, %eax
	jne	.L38
.L32:
	ret
	.p2align 4,,10
	.p2align 3
.L38:
	movl	544(%rdi), %eax
	andl	$8, %eax
	cmpl	$1, %eax
	sbbl	%eax, %eax
	andl	$-4, %eax
	addl	$6, %eax
	movl	%eax, 548(%rdi)
	ret
	.cfi_endproc
.LFE12108:
	.size	_ZN12Lemming_hero12post_physicsER6Engine, .-_ZN12Lemming_hero12post_physicsER6Engine
	.section	.text._ZNSt19_Sp_counted_deleterIDnPFvP11SDL_SurfaceESaIvELN9__gnu_cxx12_Lock_policyE2EE10_M_destroyEv,"axG",@progbits,_ZNSt19_Sp_counted_deleterIDnPFvP11SDL_SurfaceESaIvELN9__gnu_cxx12_Lock_policyE2EE10_M_destroyEv,comdat
	.align 2
	.p2align 4
	.weak	_ZNSt19_Sp_counted_deleterIDnPFvP11SDL_SurfaceESaIvELN9__gnu_cxx12_Lock_policyE2EE10_M_destroyEv
	.type	_ZNSt19_Sp_counted_deleterIDnPFvP11SDL_SurfaceESaIvELN9__gnu_cxx12_Lock_policyE2EE10_M_destroyEv, @function
_ZNSt19_Sp_counted_deleterIDnPFvP11SDL_SurfaceESaIvELN9__gnu_cxx12_Lock_policyE2EE10_M_destroyEv:
.LFB13685:
	.cfi_startproc
	endbr64
	movl	$32, %esi
	jmp	_ZdlPvm@PLT
	.cfi_endproc
.LFE13685:
	.size	_ZNSt19_Sp_counted_deleterIDnPFvP11SDL_SurfaceESaIvELN9__gnu_cxx12_Lock_policyE2EE10_M_destroyEv, .-_ZNSt19_Sp_counted_deleterIDnPFvP11SDL_SurfaceESaIvELN9__gnu_cxx12_Lock_policyE2EE10_M_destroyEv
	.section	.text._ZNSt19_Sp_counted_deleterIDnPFvP11SDL_TextureESaIvELN9__gnu_cxx12_Lock_policyE2EE10_M_destroyEv,"axG",@progbits,_ZNSt19_Sp_counted_deleterIDnPFvP11SDL_TextureESaIvELN9__gnu_cxx12_Lock_policyE2EE10_M_destroyEv,comdat
	.align 2
	.p2align 4
	.weak	_ZNSt19_Sp_counted_deleterIDnPFvP11SDL_TextureESaIvELN9__gnu_cxx12_Lock_policyE2EE10_M_destroyEv
	.type	_ZNSt19_Sp_counted_deleterIDnPFvP11SDL_TextureESaIvELN9__gnu_cxx12_Lock_policyE2EE10_M_destroyEv, @function
_ZNSt19_Sp_counted_deleterIDnPFvP11SDL_TextureESaIvELN9__gnu_cxx12_Lock_policyE2EE10_M_destroyEv:
.LFB13692:
	.cfi_startproc
	endbr64
	movl	$32, %esi
	jmp	_ZdlPvm@PLT
	.cfi_endproc
.LFE13692:
	.size	_ZNSt19_Sp_counted_deleterIDnPFvP11SDL_TextureESaIvELN9__gnu_cxx12_Lock_policyE2EE10_M_destroyEv, .-_ZNSt19_Sp_counted_deleterIDnPFvP11SDL_TextureESaIvELN9__gnu_cxx12_Lock_policyE2EE10_M_destroyEv
	.section	.text._ZNSt23_Sp_counted_ptr_inplaceI5AppleSaIS0_ELN9__gnu_cxx12_Lock_policyE2EE10_M_destroyEv,"axG",@progbits,_ZNSt23_Sp_counted_ptr_inplaceI5AppleSaIS0_ELN9__gnu_cxx12_Lock_policyE2EE10_M_destroyEv,comdat
	.align 2
	.p2align 4
	.weak	_ZNSt23_Sp_counted_ptr_inplaceI5AppleSaIS0_ELN9__gnu_cxx12_Lock_policyE2EE10_M_destroyEv
	.type	_ZNSt23_Sp_counted_ptr_inplaceI5AppleSaIS0_ELN9__gnu_cxx12_Lock_policyE2EE10_M_destroyEv, @function
_ZNSt23_Sp_counted_ptr_inplaceI5AppleSaIS0_ELN9__gnu_cxx12_Lock_policyE2EE10_M_destroyEv:
.LFB13650:
	.cfi_startproc
	endbr64
	movl	$296, %esi
	jmp	_ZdlPvm@PLT
	.cfi_endproc
.LFE13650:
	.size	_ZNSt23_Sp_counted_ptr_inplaceI5AppleSaIS0_ELN9__gnu_cxx12_Lock_policyE2EE10_M_destroyEv, .-_ZNSt23_Sp_counted_ptr_inplaceI5AppleSaIS0_ELN9__gnu_cxx12_Lock_policyE2EE10_M_destroyEv
	.section	.text._ZNSt23_Sp_counted_ptr_inplaceI6GeraltSaIS0_ELN9__gnu_cxx12_Lock_policyE2EE10_M_destroyEv,"axG",@progbits,_ZNSt23_Sp_counted_ptr_inplaceI6GeraltSaIS0_ELN9__gnu_cxx12_Lock_policyE2EE10_M_destroyEv,comdat
	.align 2
	.p2align 4
	.weak	_ZNSt23_Sp_counted_ptr_inplaceI6GeraltSaIS0_ELN9__gnu_cxx12_Lock_policyE2EE10_M_destroyEv
	.type	_ZNSt23_Sp_counted_ptr_inplaceI6GeraltSaIS0_ELN9__gnu_cxx12_Lock_policyE2EE10_M_destroyEv, @function
_ZNSt23_Sp_counted_ptr_inplaceI6GeraltSaIS0_ELN9__gnu_cxx12_Lock_policyE2EE10_M_destroyEv:
.LFB13671:
	.cfi_startproc
	endbr64
	movl	$304, %esi
	jmp	_ZdlPvm@PLT
	.cfi_endproc
.LFE13671:
	.size	_ZNSt23_Sp_counted_ptr_inplaceI6GeraltSaIS0_ELN9__gnu_cxx12_Lock_policyE2EE10_M_destroyEv, .-_ZNSt23_Sp_counted_ptr_inplaceI6GeraltSaIS0_ELN9__gnu_cxx12_Lock_policyE2EE10_M_destroyEv
	.section	.text._ZNSt23_Sp_counted_ptr_inplaceI12Lemming_heroSaIS0_ELN9__gnu_cxx12_Lock_policyE2EE10_M_destroyEv,"axG",@progbits,_ZNSt23_Sp_counted_ptr_inplaceI12Lemming_heroSaIS0_ELN9__gnu_cxx12_Lock_policyE2EE10_M_destroyEv,comdat
	.align 2
	.p2align 4
	.weak	_ZNSt23_Sp_counted_ptr_inplaceI12Lemming_heroSaIS0_ELN9__gnu_cxx12_Lock_policyE2EE10_M_destroyEv
	.type	_ZNSt23_Sp_counted_ptr_inplaceI12Lemming_heroSaIS0_ELN9__gnu_cxx12_Lock_policyE2EE10_M_destroyEv, @function
_ZNSt23_Sp_counted_ptr_inplaceI12Lemming_heroSaIS0_ELN9__gnu_cxx12_Lock_policyE2EE10_M_destroyEv:
.LFB13657:
	.cfi_startproc
	endbr64
	movl	$576, %esi
	jmp	_ZdlPvm@PLT
	.cfi_endproc
.LFE13657:
	.size	_ZNSt23_Sp_counted_ptr_inplaceI12Lemming_heroSaIS0_ELN9__gnu_cxx12_Lock_policyE2EE10_M_destroyEv, .-_ZNSt23_Sp_counted_ptr_inplaceI12Lemming_heroSaIS0_ELN9__gnu_cxx12_Lock_policyE2EE10_M_destroyEv
	.section	.text._ZNSt23_Sp_counted_ptr_inplaceI10Rigid_bodySaIS0_ELN9__gnu_cxx12_Lock_policyE2EE10_M_destroyEv,"axG",@progbits,_ZNSt23_Sp_counted_ptr_inplaceI10Rigid_bodySaIS0_ELN9__gnu_cxx12_Lock_policyE2EE10_M_destroyEv,comdat
	.align 2
	.p2align 4
	.weak	_ZNSt23_Sp_counted_ptr_inplaceI10Rigid_bodySaIS0_ELN9__gnu_cxx12_Lock_policyE2EE10_M_destroyEv
	.type	_ZNSt23_Sp_counted_ptr_inplaceI10Rigid_bodySaIS0_ELN9__gnu_cxx12_Lock_policyE2EE10_M_destroyEv, @function
_ZNSt23_Sp_counted_ptr_inplaceI10Rigid_bodySaIS0_ELN9__gnu_cxx12_Lock_policyE2EE10_M_destroyEv:
.LFB13664:
	.cfi_startproc
	endbr64
	movl	$216, %esi
	jmp	_ZdlPvm@PLT
	.cfi_endproc
.LFE13664:
	.size	_ZNSt23_Sp_counted_ptr_inplaceI10Rigid_bodySaIS0_ELN9__gnu_cxx12_Lock_policyE2EE10_M_destroyEv, .-_ZNSt23_Sp_counted_ptr_inplaceI10Rigid_bodySaIS0_ELN9__gnu_cxx12_Lock_policyE2EE10_M_destroyEv
	.section	.text._ZNSt23_Sp_counted_ptr_inplaceI13Geralt_cameraSaIS0_ELN9__gnu_cxx12_Lock_policyE2EE10_M_destroyEv,"axG",@progbits,_ZNSt23_Sp_counted_ptr_inplaceI13Geralt_cameraSaIS0_ELN9__gnu_cxx12_Lock_policyE2EE10_M_destroyEv,comdat
	.align 2
	.p2align 4
	.weak	_ZNSt23_Sp_counted_ptr_inplaceI13Geralt_cameraSaIS0_ELN9__gnu_cxx12_Lock_policyE2EE10_M_destroyEv
	.type	_ZNSt23_Sp_counted_ptr_inplaceI13Geralt_cameraSaIS0_ELN9__gnu_cxx12_Lock_policyE2EE10_M_destroyEv, @function
_ZNSt23_Sp_counted_ptr_inplaceI13Geralt_cameraSaIS0_ELN9__gnu_cxx12_Lock_policyE2EE10_M_destroyEv:
.LFB13678:
	.cfi_startproc
	endbr64
	movl	$40, %esi
	jmp	_ZdlPvm@PLT
	.cfi_endproc
.LFE13678:
	.size	_ZNSt23_Sp_counted_ptr_inplaceI13Geralt_cameraSaIS0_ELN9__gnu_cxx12_Lock_policyE2EE10_M_destroyEv, .-_ZNSt23_Sp_counted_ptr_inplaceI13Geralt_cameraSaIS0_ELN9__gnu_cxx12_Lock_policyE2EE10_M_destroyEv
	.section	.text._ZNSt23_Sp_counted_ptr_inplaceI10Rigid_bodySaIS0_ELN9__gnu_cxx12_Lock_policyE2EE14_M_get_deleterERKSt9type_info,"axG",@progbits,_ZNSt23_Sp_counted_ptr_inplaceI10Rigid_bodySaIS0_ELN9__gnu_cxx12_Lock_policyE2EE14_M_get_deleterERKSt9type_info,comdat
	.align 2
	.p2align 4
	.weak	_ZNSt23_Sp_counted_ptr_inplaceI10Rigid_bodySaIS0_ELN9__gnu_cxx12_Lock_policyE2EE14_M_get_deleterERKSt9type_info
	.type	_ZNSt23_Sp_counted_ptr_inplaceI10Rigid_bodySaIS0_ELN9__gnu_cxx12_Lock_policyE2EE14_M_get_deleterERKSt9type_info, @function
_ZNSt23_Sp_counted_ptr_inplaceI10Rigid_bodySaIS0_ELN9__gnu_cxx12_Lock_policyE2EE14_M_get_deleterERKSt9type_info:
.LFB13665:
	.cfi_startproc
	endbr64
	leaq	_ZZNSt19_Sp_make_shared_tag5_S_tiEvE5__tag(%rip), %rax
	pushq	%r12
	.cfi_def_cfa_offset 16
	.cfi_offset 12, -16
	leaq	16(%rdi), %r12
	cmpq	%rax, %rsi
	je	.L46
	movq	8(%rsi), %rdi
	leaq	_ZTSSt19_Sp_make_shared_tag(%rip), %rsi
	cmpq	%rsi, %rdi
	je	.L46
	cmpb	$42, (%rdi)
	je	.L48
	call	strcmp@PLT
	testl	%eax, %eax
	movl	$0, %eax
	cmovne	%rax, %r12
.L46:
	movq	%r12, %rax
	popq	%r12
	.cfi_remember_state
	.cfi_def_cfa_offset 8
	ret
	.p2align 4,,10
	.p2align 3
.L48:
	.cfi_restore_state
	xorl	%r12d, %r12d
	movq	%r12, %rax
	popq	%r12
	.cfi_def_cfa_offset 8
	ret
	.cfi_endproc
.LFE13665:
	.size	_ZNSt23_Sp_counted_ptr_inplaceI10Rigid_bodySaIS0_ELN9__gnu_cxx12_Lock_policyE2EE14_M_get_deleterERKSt9type_info, .-_ZNSt23_Sp_counted_ptr_inplaceI10Rigid_bodySaIS0_ELN9__gnu_cxx12_Lock_policyE2EE14_M_get_deleterERKSt9type_info
	.section	.text._ZNK16Geralt_eats_game10get_cameraEv,"axG",@progbits,_ZNK16Geralt_eats_game10get_cameraEv,comdat
	.align 2
	.p2align 4
	.weak	_ZNK16Geralt_eats_game10get_cameraEv
	.type	_ZNK16Geralt_eats_game10get_cameraEv, @function
_ZNK16Geralt_eats_game10get_cameraEv:
.LFB12115:
	.cfi_startproc
	.cfi_personality 0x9b,DW.ref.__gxx_personality_v0
	.cfi_lsda 0x1b,.LLSDA12115
	endbr64
	pushq	%r12
	.cfi_def_cfa_offset 16
	.cfi_offset 12, -16
	movq	%rdi, %r12
	movl	$40, %edi
	pushq	%rbp
	.cfi_def_cfa_offset 24
	.cfi_offset 6, -24
	subq	$56, %rsp
	.cfi_def_cfa_offset 80
	movq	%fs:40, %rax
	movq	%rax, 40(%rsp)
	xorl	%eax, %eax
.LEHB0:
	call	_Znwm@PLT
.LEHE0:
	movaps	.LC2(%rip), %xmm0
	leaq	16(%rsp), %rsi
	movq	%rax, %rbp
	movq	.LC1(%rip), %rax
	leaq	16(%rbp), %rdi
	movq	%rbp, %xmm2
	movaps	%xmm0, 16(%rsp)
	movq	%rdi, %xmm1
	movq	%rax, 8(%rbp)
	leaq	16+_ZTVSt23_Sp_counted_ptr_inplaceI13Geralt_cameraSaIS0_ELN9__gnu_cxx12_Lock_policyE2EE(%rip), %rax
	punpcklqdq	%xmm2, %xmm1
	movq	%rax, 0(%rbp)
	movaps	%xmm1, (%rsp)
.LEHB1:
	call	_ZN8Camera2DC2E12BoundingBox2IfE@PLT
.LEHE1:
	leaq	16+_ZTV13Geralt_camera(%rip), %rax
	movdqa	(%rsp), %xmm1
	movq	%rax, 16(%rbp)
	movups	%xmm1, (%r12)
	movq	40(%rsp), %rax
	subq	%fs:40, %rax
	jne	.L57
	addq	$56, %rsp
	.cfi_remember_state
	.cfi_def_cfa_offset 24
	movq	%r12, %rax
	popq	%rbp
	.cfi_def_cfa_offset 16
	popq	%r12
	.cfi_def_cfa_offset 8
	ret
.L57:
	.cfi_restore_state
	call	__stack_chk_fail@PLT
.L54:
	endbr64
	movq	%rax, %r12
.L52:
	movq	%rbp, %rdi
	movl	$40, %esi
	call	_ZdlPvm@PLT
	movq	%r12, %rdi
.LEHB2:
	call	_Unwind_Resume@PLT
.LEHE2:
	.cfi_endproc
.LFE12115:
	.section	.gcc_except_table._ZNK16Geralt_eats_game10get_cameraEv,"aG",@progbits,_ZNK16Geralt_eats_game10get_cameraEv,comdat
.LLSDA12115:
	.byte	0xff
	.byte	0xff
	.byte	0x1
	.uleb128 .LLSDACSE12115-.LLSDACSB12115
.LLSDACSB12115:
	.uleb128 .LEHB0-.LFB12115
	.uleb128 .LEHE0-.LEHB0
	.uleb128 0
	.uleb128 0
	.uleb128 .LEHB1-.LFB12115
	.uleb128 .LEHE1-.LEHB1
	.uleb128 .L54-.LFB12115
	.uleb128 0
	.uleb128 .LEHB2-.LFB12115
	.uleb128 .LEHE2-.LEHB2
	.uleb128 0
	.uleb128 0
.LLSDACSE12115:
	.section	.text._ZNK16Geralt_eats_game10get_cameraEv,"axG",@progbits,_ZNK16Geralt_eats_game10get_cameraEv,comdat
	.size	_ZNK16Geralt_eats_game10get_cameraEv, .-_ZNK16Geralt_eats_game10get_cameraEv
	.section	.text._ZNSt19_Sp_counted_deleterIDnPFvP11SDL_TextureESaIvELN9__gnu_cxx12_Lock_policyE2EE14_M_get_deleterERKSt9type_info,"axG",@progbits,_ZNSt19_Sp_counted_deleterIDnPFvP11SDL_TextureESaIvELN9__gnu_cxx12_Lock_policyE2EE14_M_get_deleterERKSt9type_info,comdat
	.align 2
	.p2align 4
	.weak	_ZNSt19_Sp_counted_deleterIDnPFvP11SDL_TextureESaIvELN9__gnu_cxx12_Lock_policyE2EE14_M_get_deleterERKSt9type_info
	.type	_ZNSt19_Sp_counted_deleterIDnPFvP11SDL_TextureESaIvELN9__gnu_cxx12_Lock_policyE2EE14_M_get_deleterERKSt9type_info, @function
_ZNSt19_Sp_counted_deleterIDnPFvP11SDL_TextureESaIvELN9__gnu_cxx12_Lock_policyE2EE14_M_get_deleterERKSt9type_info:
.LFB13693:
	.cfi_startproc
	endbr64
	pushq	%r12
	.cfi_def_cfa_offset 16
	.cfi_offset 12, -16
	pushq	%rbx
	.cfi_def_cfa_offset 24
	.cfi_offset 3, -24
	movq	%rdi, %rbx
	subq	$8, %rsp
	.cfi_def_cfa_offset 32
	movq	8(%rsi), %rdi
	leaq	_ZTSPFvP11SDL_TextureE(%rip), %rsi
	cmpq	%rsi, %rdi
	je	.L59
	xorl	%r12d, %r12d
	cmpb	$42, (%rdi)
	je	.L58
	call	strcmp@PLT
	testl	%eax, %eax
	jne	.L58
.L59:
	leaq	16(%rbx), %r12
.L58:
	addq	$8, %rsp
	.cfi_def_cfa_offset 24
	movq	%r12, %rax
	popq	%rbx
	.cfi_def_cfa_offset 16
	popq	%r12
	.cfi_def_cfa_offset 8
	ret
	.cfi_endproc
.LFE13693:
	.size	_ZNSt19_Sp_counted_deleterIDnPFvP11SDL_TextureESaIvELN9__gnu_cxx12_Lock_policyE2EE14_M_get_deleterERKSt9type_info, .-_ZNSt19_Sp_counted_deleterIDnPFvP11SDL_TextureESaIvELN9__gnu_cxx12_Lock_policyE2EE14_M_get_deleterERKSt9type_info
	.section	.text._ZNSt19_Sp_counted_deleterIDnPFvP11SDL_SurfaceESaIvELN9__gnu_cxx12_Lock_policyE2EE14_M_get_deleterERKSt9type_info,"axG",@progbits,_ZNSt19_Sp_counted_deleterIDnPFvP11SDL_SurfaceESaIvELN9__gnu_cxx12_Lock_policyE2EE14_M_get_deleterERKSt9type_info,comdat
	.align 2
	.p2align 4
	.weak	_ZNSt19_Sp_counted_deleterIDnPFvP11SDL_SurfaceESaIvELN9__gnu_cxx12_Lock_policyE2EE14_M_get_deleterERKSt9type_info
	.type	_ZNSt19_Sp_counted_deleterIDnPFvP11SDL_SurfaceESaIvELN9__gnu_cxx12_Lock_policyE2EE14_M_get_deleterERKSt9type_info, @function
_ZNSt19_Sp_counted_deleterIDnPFvP11SDL_SurfaceESaIvELN9__gnu_cxx12_Lock_policyE2EE14_M_get_deleterERKSt9type_info:
.LFB13686:
	.cfi_startproc
	endbr64
	pushq	%r12
	.cfi_def_cfa_offset 16
	.cfi_offset 12, -16
	pushq	%rbx
	.cfi_def_cfa_offset 24
	.cfi_offset 3, -24
	movq	%rdi, %rbx
	subq	$8, %rsp
	.cfi_def_cfa_offset 32
	movq	8(%rsi), %rdi
	leaq	_ZTSPFvP11SDL_SurfaceE(%rip), %rsi
	cmpq	%rsi, %rdi
	je	.L65
	xorl	%r12d, %r12d
	cmpb	$42, (%rdi)
	je	.L64
	call	strcmp@PLT
	testl	%eax, %eax
	jne	.L64
.L65:
	leaq	16(%rbx), %r12
.L64:
	addq	$8, %rsp
	.cfi_def_cfa_offset 24
	movq	%r12, %rax
	popq	%rbx
	.cfi_def_cfa_offset 16
	popq	%r12
	.cfi_def_cfa_offset 8
	ret
	.cfi_endproc
.LFE13686:
	.size	_ZNSt19_Sp_counted_deleterIDnPFvP11SDL_SurfaceESaIvELN9__gnu_cxx12_Lock_policyE2EE14_M_get_deleterERKSt9type_info, .-_ZNSt19_Sp_counted_deleterIDnPFvP11SDL_SurfaceESaIvELN9__gnu_cxx12_Lock_policyE2EE14_M_get_deleterERKSt9type_info
	.section	.text._ZNSt23_Sp_counted_ptr_inplaceI13Geralt_cameraSaIS0_ELN9__gnu_cxx12_Lock_policyE2EE14_M_get_deleterERKSt9type_info,"axG",@progbits,_ZNSt23_Sp_counted_ptr_inplaceI13Geralt_cameraSaIS0_ELN9__gnu_cxx12_Lock_policyE2EE14_M_get_deleterERKSt9type_info,comdat
	.align 2
	.p2align 4
	.weak	_ZNSt23_Sp_counted_ptr_inplaceI13Geralt_cameraSaIS0_ELN9__gnu_cxx12_Lock_policyE2EE14_M_get_deleterERKSt9type_info
	.type	_ZNSt23_Sp_counted_ptr_inplaceI13Geralt_cameraSaIS0_ELN9__gnu_cxx12_Lock_policyE2EE14_M_get_deleterERKSt9type_info, @function
_ZNSt23_Sp_counted_ptr_inplaceI13Geralt_cameraSaIS0_ELN9__gnu_cxx12_Lock_policyE2EE14_M_get_deleterERKSt9type_info:
.LFB13679:
	.cfi_startproc
	endbr64
	leaq	_ZZNSt19_Sp_make_shared_tag5_S_tiEvE5__tag(%rip), %rax
	pushq	%r12
	.cfi_def_cfa_offset 16
	.cfi_offset 12, -16
	leaq	16(%rdi), %r12
	cmpq	%rax, %rsi
	je	.L70
	movq	8(%rsi), %rdi
	leaq	_ZTSSt19_Sp_make_shared_tag(%rip), %rsi
	cmpq	%rsi, %rdi
	je	.L70
	cmpb	$42, (%rdi)
	je	.L72
	call	strcmp@PLT
	testl	%eax, %eax
	movl	$0, %eax
	cmovne	%rax, %r12
.L70:
	movq	%r12, %rax
	popq	%r12
	.cfi_remember_state
	.cfi_def_cfa_offset 8
	ret
	.p2align 4,,10
	.p2align 3
.L72:
	.cfi_restore_state
	xorl	%r12d, %r12d
	movq	%r12, %rax
	popq	%r12
	.cfi_def_cfa_offset 8
	ret
	.cfi_endproc
.LFE13679:
	.size	_ZNSt23_Sp_counted_ptr_inplaceI13Geralt_cameraSaIS0_ELN9__gnu_cxx12_Lock_policyE2EE14_M_get_deleterERKSt9type_info, .-_ZNSt23_Sp_counted_ptr_inplaceI13Geralt_cameraSaIS0_ELN9__gnu_cxx12_Lock_policyE2EE14_M_get_deleterERKSt9type_info
	.section	.text._ZNSt23_Sp_counted_ptr_inplaceI6GeraltSaIS0_ELN9__gnu_cxx12_Lock_policyE2EE14_M_get_deleterERKSt9type_info,"axG",@progbits,_ZNSt23_Sp_counted_ptr_inplaceI6GeraltSaIS0_ELN9__gnu_cxx12_Lock_policyE2EE14_M_get_deleterERKSt9type_info,comdat
	.align 2
	.p2align 4
	.weak	_ZNSt23_Sp_counted_ptr_inplaceI6GeraltSaIS0_ELN9__gnu_cxx12_Lock_policyE2EE14_M_get_deleterERKSt9type_info
	.type	_ZNSt23_Sp_counted_ptr_inplaceI6GeraltSaIS0_ELN9__gnu_cxx12_Lock_policyE2EE14_M_get_deleterERKSt9type_info, @function
_ZNSt23_Sp_counted_ptr_inplaceI6GeraltSaIS0_ELN9__gnu_cxx12_Lock_policyE2EE14_M_get_deleterERKSt9type_info:
.LFB13672:
	.cfi_startproc
	endbr64
	leaq	_ZZNSt19_Sp_make_shared_tag5_S_tiEvE5__tag(%rip), %rax
	pushq	%r12
	.cfi_def_cfa_offset 16
	.cfi_offset 12, -16
	leaq	16(%rdi), %r12
	cmpq	%rax, %rsi
	je	.L75
	movq	8(%rsi), %rdi
	leaq	_ZTSSt19_Sp_make_shared_tag(%rip), %rsi
	cmpq	%rsi, %rdi
	je	.L75
	cmpb	$42, (%rdi)
	je	.L77
	call	strcmp@PLT
	testl	%eax, %eax
	movl	$0, %eax
	cmovne	%rax, %r12
.L75:
	movq	%r12, %rax
	popq	%r12
	.cfi_remember_state
	.cfi_def_cfa_offset 8
	ret
	.p2align 4,,10
	.p2align 3
.L77:
	.cfi_restore_state
	xorl	%r12d, %r12d
	movq	%r12, %rax
	popq	%r12
	.cfi_def_cfa_offset 8
	ret
	.cfi_endproc
.LFE13672:
	.size	_ZNSt23_Sp_counted_ptr_inplaceI6GeraltSaIS0_ELN9__gnu_cxx12_Lock_policyE2EE14_M_get_deleterERKSt9type_info, .-_ZNSt23_Sp_counted_ptr_inplaceI6GeraltSaIS0_ELN9__gnu_cxx12_Lock_policyE2EE14_M_get_deleterERKSt9type_info
	.section	.text._ZNSt23_Sp_counted_ptr_inplaceI5AppleSaIS0_ELN9__gnu_cxx12_Lock_policyE2EE14_M_get_deleterERKSt9type_info,"axG",@progbits,_ZNSt23_Sp_counted_ptr_inplaceI5AppleSaIS0_ELN9__gnu_cxx12_Lock_policyE2EE14_M_get_deleterERKSt9type_info,comdat
	.align 2
	.p2align 4
	.weak	_ZNSt23_Sp_counted_ptr_inplaceI5AppleSaIS0_ELN9__gnu_cxx12_Lock_policyE2EE14_M_get_deleterERKSt9type_info
	.type	_ZNSt23_Sp_counted_ptr_inplaceI5AppleSaIS0_ELN9__gnu_cxx12_Lock_policyE2EE14_M_get_deleterERKSt9type_info, @function
_ZNSt23_Sp_counted_ptr_inplaceI5AppleSaIS0_ELN9__gnu_cxx12_Lock_policyE2EE14_M_get_deleterERKSt9type_info:
.LFB13651:
	.cfi_startproc
	endbr64
	leaq	_ZZNSt19_Sp_make_shared_tag5_S_tiEvE5__tag(%rip), %rax
	pushq	%r12
	.cfi_def_cfa_offset 16
	.cfi_offset 12, -16
	leaq	16(%rdi), %r12
	cmpq	%rax, %rsi
	je	.L80
	movq	8(%rsi), %rdi
	leaq	_ZTSSt19_Sp_make_shared_tag(%rip), %rsi
	cmpq	%rsi, %rdi
	je	.L80
	cmpb	$42, (%rdi)
	je	.L82
	call	strcmp@PLT
	testl	%eax, %eax
	movl	$0, %eax
	cmovne	%rax, %r12
.L80:
	movq	%r12, %rax
	popq	%r12
	.cfi_remember_state
	.cfi_def_cfa_offset 8
	ret
	.p2align 4,,10
	.p2align 3
.L82:
	.cfi_restore_state
	xorl	%r12d, %r12d
	movq	%r12, %rax
	popq	%r12
	.cfi_def_cfa_offset 8
	ret
	.cfi_endproc
.LFE13651:
	.size	_ZNSt23_Sp_counted_ptr_inplaceI5AppleSaIS0_ELN9__gnu_cxx12_Lock_policyE2EE14_M_get_deleterERKSt9type_info, .-_ZNSt23_Sp_counted_ptr_inplaceI5AppleSaIS0_ELN9__gnu_cxx12_Lock_policyE2EE14_M_get_deleterERKSt9type_info
	.section	.text._ZNSt23_Sp_counted_ptr_inplaceI12Lemming_heroSaIS0_ELN9__gnu_cxx12_Lock_policyE2EE14_M_get_deleterERKSt9type_info,"axG",@progbits,_ZNSt23_Sp_counted_ptr_inplaceI12Lemming_heroSaIS0_ELN9__gnu_cxx12_Lock_policyE2EE14_M_get_deleterERKSt9type_info,comdat
	.align 2
	.p2align 4
	.weak	_ZNSt23_Sp_counted_ptr_inplaceI12Lemming_heroSaIS0_ELN9__gnu_cxx12_Lock_policyE2EE14_M_get_deleterERKSt9type_info
	.type	_ZNSt23_Sp_counted_ptr_inplaceI12Lemming_heroSaIS0_ELN9__gnu_cxx12_Lock_policyE2EE14_M_get_deleterERKSt9type_info, @function
_ZNSt23_Sp_counted_ptr_inplaceI12Lemming_heroSaIS0_ELN9__gnu_cxx12_Lock_policyE2EE14_M_get_deleterERKSt9type_info:
.LFB13658:
	.cfi_startproc
	endbr64
	leaq	_ZZNSt19_Sp_make_shared_tag5_S_tiEvE5__tag(%rip), %rax
	pushq	%r12
	.cfi_def_cfa_offset 16
	.cfi_offset 12, -16
	leaq	16(%rdi), %r12
	cmpq	%rax, %rsi
	je	.L85
	movq	8(%rsi), %rdi
	leaq	_ZTSSt19_Sp_make_shared_tag(%rip), %rsi
	cmpq	%rsi, %rdi
	je	.L85
	cmpb	$42, (%rdi)
	je	.L87
	call	strcmp@PLT
	testl	%eax, %eax
	movl	$0, %eax
	cmovne	%rax, %r12
.L85:
	movq	%r12, %rax
	popq	%r12
	.cfi_remember_state
	.cfi_def_cfa_offset 8
	ret
	.p2align 4,,10
	.p2align 3
.L87:
	.cfi_restore_state
	xorl	%r12d, %r12d
	movq	%r12, %rax
	popq	%r12
	.cfi_def_cfa_offset 8
	ret
	.cfi_endproc
.LFE13658:
	.size	_ZNSt23_Sp_counted_ptr_inplaceI12Lemming_heroSaIS0_ELN9__gnu_cxx12_Lock_policyE2EE14_M_get_deleterERKSt9type_info, .-_ZNSt23_Sp_counted_ptr_inplaceI12Lemming_heroSaIS0_ELN9__gnu_cxx12_Lock_policyE2EE14_M_get_deleterERKSt9type_info
	.section	.text._ZN10Rigid_body15update_positionER6Engine,"axG",@progbits,_ZN10Rigid_body15update_positionER6Engine,comdat
	.align 2
	.p2align 4
	.weak	_ZN10Rigid_body15update_positionER6Engine
	.type	_ZN10Rigid_body15update_positionER6Engine, @function
_ZN10Rigid_body15update_positionER6Engine:
.LFB12034:
	.cfi_startproc
	endbr64
	pushq	%rbx
	.cfi_def_cfa_offset 16
	.cfi_offset 3, -16
	movq	%rdi, %rbx
	movq	%rsi, %rdi
	call	_ZN6Engine14get_delta_timeEv@PLT
	cmpb	$0, 192(%rbx)
	movss	144(%rbx), %xmm2
	movapd	%xmm0, %xmm3
	jne	.L91
	movss	148(%rbx), %xmm0
.L92:
	cvtss2sd	%xmm2, %xmm2
	mulsd	%xmm3, %xmm2
	cvtss2sd	%xmm0, %xmm0
	pxor	%xmm1, %xmm1
	mulsd	%xmm3, %xmm0
	cvtss2sd	60(%rbx), %xmm1
	addsd	%xmm2, %xmm1
	pxor	%xmm2, %xmm2
	cvtss2sd	64(%rbx), %xmm2
	addsd	%xmm0, %xmm2
	cvtsd2ss	%xmm1, %xmm1
	cvtsd2ss	%xmm2, %xmm2
	unpcklps	%xmm2, %xmm1
	movlps	%xmm1, 60(%rbx)
	popq	%rbx
	.cfi_remember_state
	.cfi_def_cfa_offset 8
	ret
	.p2align 4,,10
	.p2align 3
.L91:
	.cfi_restore_state
	cvtsd2ss	%xmm0, %xmm0
	mulss	196(%rbx), %xmm0
	movss	156(%rbx), %xmm4
	addss	148(%rbx), %xmm0
	comiss	.LC3(%rip), %xmm4
	movss	%xmm0, 148(%rbx)
	jbe	.L92
	movaps	%xmm0, %xmm5
	movaps	%xmm2, %xmm1
	mulss	%xmm0, %xmm5
	mulss	%xmm2, %xmm1
	addss	%xmm5, %xmm1
	comiss	152(%rbx), %xmm1
	jbe	.L92
	mulss	%xmm4, %xmm0
	movaps	%xmm1, %xmm5
	mulss	%xmm2, %xmm4
	rsqrtss	%xmm5, %xmm5
	mulss	%xmm5, %xmm1
	mulss	%xmm5, %xmm1
	mulss	.LC5(%rip), %xmm5
	addss	.LC4(%rip), %xmm1
	mulss	%xmm5, %xmm1
	mulss	%xmm1, %xmm4
	mulss	%xmm1, %xmm0
	movaps	%xmm4, %xmm2
	movss	%xmm4, 144(%rbx)
	movss	%xmm0, 148(%rbx)
	jmp	.L92
	.cfi_endproc
.LFE12034:
	.size	_ZN10Rigid_body15update_positionER6Engine, .-_ZN10Rigid_body15update_positionER6Engine
	.section	.text._ZN5Apple15update_positionER6Engine,"axG",@progbits,_ZN5Apple15update_positionER6Engine,comdat
	.align 2
	.p2align 4
	.weak	_ZN5Apple15update_positionER6Engine
	.type	_ZN5Apple15update_positionER6Engine, @function
_ZN5Apple15update_positionER6Engine:
.LFB12053:
	.cfi_startproc
	endbr64
	pushq	%rbp
	.cfi_def_cfa_offset 16
	.cfi_offset 6, -16
	movq	%rsi, %rbp
	pushq	%rbx
	.cfi_def_cfa_offset 24
	.cfi_offset 3, -24
	movq	%rdi, %rbx
	movq	%rbx, %rsi
	subq	$40, %rsp
	.cfi_def_cfa_offset 64
	movq	%fs:40, %rax
	movq	%rax, 24(%rsp)
	xorl	%eax, %eax
	leaq	12(%rsp), %rdi
	call	_ZNK6Entity14get_position3DEv@PLT
	movss	16(%rsp), %xmm0
	comiss	.LC6(%rip), %xmm0
	jbe	.L100
	movq	%rbx, %rdi
	call	_ZN6Entity7destroyEv@PLT
.L100:
	movq	%rbp, %rdi
	call	_ZN6Engine14get_delta_timeEv@PLT
	cmpb	$0, 192(%rbx)
	movss	144(%rbx), %xmm2
	movapd	%xmm0, %xmm3
	jne	.L102
	movss	148(%rbx), %xmm0
.L103:
	cvtss2sd	%xmm2, %xmm2
	mulsd	%xmm3, %xmm2
	cvtss2sd	%xmm0, %xmm0
	pxor	%xmm1, %xmm1
	mulsd	%xmm3, %xmm0
	cvtss2sd	60(%rbx), %xmm1
	addsd	%xmm2, %xmm1
	pxor	%xmm2, %xmm2
	cvtss2sd	64(%rbx), %xmm2
	addsd	%xmm0, %xmm2
	cvtsd2ss	%xmm1, %xmm1
	cvtsd2ss	%xmm2, %xmm2
	unpcklps	%xmm2, %xmm1
	movlps	%xmm1, 60(%rbx)
	movq	24(%rsp), %rax
	subq	%fs:40, %rax
	jne	.L112
	addq	$40, %rsp
	.cfi_remember_state
	.cfi_def_cfa_offset 24
	popq	%rbx
	.cfi_def_cfa_offset 16
	popq	%rbp
	.cfi_def_cfa_offset 8
	ret
	.p2align 4,,10
	.p2align 3
.L102:
	.cfi_restore_state
	cvtsd2ss	%xmm0, %xmm0
	mulss	196(%rbx), %xmm0
	movss	156(%rbx), %xmm4
	addss	148(%rbx), %xmm0
	comiss	.LC3(%rip), %xmm4
	movss	%xmm0, 148(%rbx)
	jbe	.L103
	movaps	%xmm0, %xmm5
	movaps	%xmm2, %xmm1
	mulss	%xmm0, %xmm5
	mulss	%xmm2, %xmm1
	addss	%xmm5, %xmm1
	comiss	152(%rbx), %xmm1
	jbe	.L103
	mulss	%xmm4, %xmm0
	movaps	%xmm1, %xmm5
	mulss	%xmm2, %xmm4
	rsqrtss	%xmm5, %xmm5
	mulss	%xmm5, %xmm1
	mulss	%xmm5, %xmm1
	mulss	.LC5(%rip), %xmm5
	addss	.LC4(%rip), %xmm1
	mulss	%xmm5, %xmm1
	mulss	%xmm1, %xmm4
	mulss	%xmm1, %xmm0
	movaps	%xmm4, %xmm2
	movss	%xmm4, 144(%rbx)
	movss	%xmm0, 148(%rbx)
	jmp	.L103
.L112:
	call	__stack_chk_fail@PLT
	.cfi_endproc
.LFE12053:
	.size	_ZN5Apple15update_positionER6Engine, .-_ZN5Apple15update_positionER6Engine
	.section	.rodata._ZN16Geralt_eats_game21on_entity_destructionER6EngineSt10shared_ptrI6EntityE.str1.1,"aMS",@progbits,1
.LC7:
	.string	"Apple"
	.section	.text._ZN16Geralt_eats_game21on_entity_destructionER6EngineSt10shared_ptrI6EntityE,"axG",@progbits,_ZN16Geralt_eats_game21on_entity_destructionER6EngineSt10shared_ptrI6EntityE,comdat
	.align 2
	.p2align 4
	.weak	_ZN16Geralt_eats_game21on_entity_destructionER6EngineSt10shared_ptrI6EntityE
	.type	_ZN16Geralt_eats_game21on_entity_destructionER6EngineSt10shared_ptrI6EntityE, @function
_ZN16Geralt_eats_game21on_entity_destructionER6EngineSt10shared_ptrI6EntityE:
.LFB12149:
	.cfi_startproc
	endbr64
	pushq	%r13
	.cfi_def_cfa_offset 16
	.cfi_offset 13, -16
	pushq	%r12
	.cfi_def_cfa_offset 24
	.cfi_offset 12, -24
	pushq	%rbp
	.cfi_def_cfa_offset 32
	.cfi_offset 6, -32
	pushq	%rbx
	.cfi_def_cfa_offset 40
	.cfi_offset 3, -40
	movq	%rdi, %rbx
	subq	$56, %rsp
	.cfi_def_cfa_offset 96
	movq	(%rdx), %rsi
	movq	%fs:40, %rax
	movq	%rax, 40(%rsp)
	xorl	%eax, %eax
	movq	%rsp, %rdi
	call	_ZNK6Entity15get_entity_nameB5cxx11Ev@PLT
	movq	8(%rsp), %rbp
	movq	(%rsp), %r12
	cmpq	$5, %rbp
	ja	.L131
	testq	%rbp, %rbp
	jne	.L132
	leaq	16(%rsp), %rax
	cmpq	%rax, %r12
	je	.L113
	movq	16(%rsp), %rax
	movq	%r12, %rdi
	leaq	1(%rax), %rsi
	call	_ZdlPvm@PLT
.L113:
	movq	40(%rsp), %rax
	subq	%fs:40, %rax
	jne	.L133
	addq	$56, %rsp
	.cfi_remember_state
	.cfi_def_cfa_offset 40
	popq	%rbx
	.cfi_def_cfa_offset 32
	popq	%rbp
	.cfi_def_cfa_offset 24
	popq	%r12
	.cfi_def_cfa_offset 16
	popq	%r13
	.cfi_def_cfa_offset 8
	ret
	.p2align 4,,10
	.p2align 3
.L131:
	.cfi_restore_state
	movl	$5, %edx
	leaq	.LC7(%rip), %rsi
	movq	%r12, %rdi
	call	memcmp@PLT
	movl	%eax, %r13d
	testl	%eax, %eax
	jne	.L116
	subq	$5, %rbp
	movl	$2147483647, %r13d
	cmpq	$2147483647, %rbp
	jle	.L134
.L116:
	leaq	16(%rsp), %rax
	cmpq	%rax, %r12
	je	.L113
.L121:
	movq	16(%rsp), %rax
	movq	%r12, %rdi
	leaq	1(%rax), %rsi
	call	_ZdlPvm@PLT
.L119:
	testl	%r13d, %r13d
	jne	.L113
	subl	$1, 64(%rbx)
	jmp	.L113
	.p2align 4,,10
	.p2align 3
.L132:
	movq	%rbp, %rdx
	leaq	.LC7(%rip), %rsi
	movq	%r12, %rdi
	call	memcmp@PLT
	movl	%eax, %r13d
	testl	%eax, %eax
	jne	.L116
	subq	$5, %rbp
.L124:
	leaq	16(%rsp), %rax
	movl	%ebp, %r13d
	cmpq	%rax, %r12
	jne	.L121
	jmp	.L119
	.p2align 4,,10
	.p2align 3
.L134:
	cmpq	$-2147483648, %rbp
	jge	.L124
	movl	$-2147483648, %r13d
	jmp	.L116
.L133:
	call	__stack_chk_fail@PLT
	.cfi_endproc
.LFE12149:
	.size	_ZN16Geralt_eats_game21on_entity_destructionER6EngineSt10shared_ptrI6EntityE, .-_ZN16Geralt_eats_game21on_entity_destructionER6EngineSt10shared_ptrI6EntityE
	.section	.text._ZNSt23_Sp_counted_ptr_inplaceI10Rigid_bodySaIS0_ELN9__gnu_cxx12_Lock_policyE2EE10_M_disposeEv,"axG",@progbits,_ZNSt23_Sp_counted_ptr_inplaceI10Rigid_bodySaIS0_ELN9__gnu_cxx12_Lock_policyE2EE10_M_disposeEv,comdat
	.align 2
	.p2align 4
	.weak	_ZNSt23_Sp_counted_ptr_inplaceI10Rigid_bodySaIS0_ELN9__gnu_cxx12_Lock_policyE2EE10_M_disposeEv
	.type	_ZNSt23_Sp_counted_ptr_inplaceI10Rigid_bodySaIS0_ELN9__gnu_cxx12_Lock_policyE2EE10_M_disposeEv, @function
_ZNSt23_Sp_counted_ptr_inplaceI10Rigid_bodySaIS0_ELN9__gnu_cxx12_Lock_policyE2EE10_M_disposeEv:
.LFB13663:
	.cfi_startproc
	endbr64
	pushq	%rbp
	.cfi_def_cfa_offset 16
	.cfi_offset 6, -16
	leaq	16+_ZTV6Entity(%rip), %rax
	pushq	%rbx
	.cfi_def_cfa_offset 24
	.cfi_offset 3, -24
	movq	%rdi, %rbx
	subq	$8, %rsp
	.cfi_def_cfa_offset 32
	movq	%rax, 16(%rdi)
	movq	128(%rdi), %rdi
	leaq	144(%rbx), %rax
	cmpq	%rax, %rdi
	je	.L136
	movq	144(%rbx), %rax
	leaq	1(%rax), %rsi
	call	_ZdlPvm@PLT
.L136:
	movq	96(%rbx), %rdi
	leaq	112(%rbx), %rax
	cmpq	%rax, %rdi
	je	.L137
	movq	112(%rbx), %rax
	leaq	1(%rax), %rsi
	call	_ZdlPvm@PLT
.L137:
	movq	48(%rbx), %rbp
	testq	%rbp, %rbp
	je	.L139
	cmpb	$0, __libc_single_threaded(%rip)
	je	.L140
	movl	8(%rbp), %eax
	leal	-1(%rax), %edx
	movl	%edx, 8(%rbp)
.L141:
	cmpl	$1, %eax
	je	.L153
.L139:
	movq	32(%rbx), %rbp
	testq	%rbp, %rbp
	je	.L135
	cmpb	$0, __libc_single_threaded(%rip)
	je	.L147
	movl	8(%rbp), %eax
	leal	-1(%rax), %edx
	movl	%edx, 8(%rbp)
.L148:
	cmpl	$1, %eax
	je	.L154
.L135:
	addq	$8, %rsp
	.cfi_remember_state
	.cfi_def_cfa_offset 24
	popq	%rbx
	.cfi_def_cfa_offset 16
	popq	%rbp
	.cfi_def_cfa_offset 8
	ret
	.p2align 4,,10
	.p2align 3
.L153:
	.cfi_restore_state
	movq	0(%rbp), %rax
	movq	%rbp, %rdi
	call	*16(%rax)
	cmpb	$0, __libc_single_threaded(%rip)
	je	.L143
	movl	12(%rbp), %eax
	leal	-1(%rax), %edx
	movl	%edx, 12(%rbp)
.L144:
	cmpl	$1, %eax
	jne	.L139
	movq	0(%rbp), %rax
	movq	%rbp, %rdi
	call	*24(%rax)
	jmp	.L139
	.p2align 4,,10
	.p2align 3
.L154:
	movq	0(%rbp), %rax
	movq	%rbp, %rdi
	call	*16(%rax)
	cmpb	$0, __libc_single_threaded(%rip)
	je	.L150
	movl	12(%rbp), %eax
	leal	-1(%rax), %edx
	movl	%edx, 12(%rbp)
.L151:
	cmpl	$1, %eax
	jne	.L135
	movq	0(%rbp), %rax
	movq	%rbp, %rdi
	movq	24(%rax), %rax
	addq	$8, %rsp
	.cfi_remember_state
	.cfi_def_cfa_offset 24
	popq	%rbx
	.cfi_def_cfa_offset 16
	popq	%rbp
	.cfi_def_cfa_offset 8
	jmp	*%rax
	.p2align 4,,10
	.p2align 3
.L147:
	.cfi_restore_state
	movl	$-1, %eax
	lock xaddl	%eax, 8(%rbp)
	jmp	.L148
	.p2align 4,,10
	.p2align 3
.L140:
	movl	$-1, %eax
	lock xaddl	%eax, 8(%rbp)
	jmp	.L141
	.p2align 4,,10
	.p2align 3
.L143:
	movl	$-1, %eax
	lock xaddl	%eax, 12(%rbp)
	jmp	.L144
	.p2align 4,,10
	.p2align 3
.L150:
	movl	$-1, %eax
	lock xaddl	%eax, 12(%rbp)
	jmp	.L151
	.cfi_endproc
.LFE13663:
	.size	_ZNSt23_Sp_counted_ptr_inplaceI10Rigid_bodySaIS0_ELN9__gnu_cxx12_Lock_policyE2EE10_M_disposeEv, .-_ZNSt23_Sp_counted_ptr_inplaceI10Rigid_bodySaIS0_ELN9__gnu_cxx12_Lock_policyE2EE10_M_disposeEv
	.section	.text._ZNSt23_Sp_counted_ptr_inplaceI6GeraltSaIS0_ELN9__gnu_cxx12_Lock_policyE2EE10_M_disposeEv,"axG",@progbits,_ZNSt23_Sp_counted_ptr_inplaceI6GeraltSaIS0_ELN9__gnu_cxx12_Lock_policyE2EE10_M_disposeEv,comdat
	.align 2
	.p2align 4
	.weak	_ZNSt23_Sp_counted_ptr_inplaceI6GeraltSaIS0_ELN9__gnu_cxx12_Lock_policyE2EE10_M_disposeEv
	.type	_ZNSt23_Sp_counted_ptr_inplaceI6GeraltSaIS0_ELN9__gnu_cxx12_Lock_policyE2EE10_M_disposeEv, @function
_ZNSt23_Sp_counted_ptr_inplaceI6GeraltSaIS0_ELN9__gnu_cxx12_Lock_policyE2EE10_M_disposeEv:
.LFB13670:
	.cfi_startproc
	endbr64
	pushq	%rbp
	.cfi_def_cfa_offset 16
	.cfi_offset 6, -16
	leaq	16+_ZTV6Geralt(%rip), %rax
	pushq	%rbx
	.cfi_def_cfa_offset 24
	.cfi_offset 3, -24
	movq	%rdi, %rbx
	subq	$8, %rsp
	.cfi_def_cfa_offset 32
	movq	288(%rdi), %rbp
	movq	%rax, 16(%rdi)
	testq	%rbp, %rbp
	je	.L157
	cmpb	$0, __libc_single_threaded(%rip)
	je	.L158
	movl	8(%rbp), %eax
	leal	-1(%rax), %edx
	movl	%edx, 8(%rbp)
.L159:
	cmpl	$1, %eax
	je	.L201
.L157:
	movq	272(%rbx), %rbp
	testq	%rbp, %rbp
	je	.L164
	cmpb	$0, __libc_single_threaded(%rip)
	je	.L165
	movl	8(%rbp), %eax
	leal	-1(%rax), %edx
	movl	%edx, 8(%rbp)
.L166:
	cmpl	$1, %eax
	je	.L202
.L164:
	movq	248(%rbx), %rbp
	testq	%rbp, %rbp
	je	.L171
	cmpb	$0, __libc_single_threaded(%rip)
	je	.L172
	movl	8(%rbp), %eax
	leal	-1(%rax), %edx
	movl	%edx, 8(%rbp)
.L173:
	cmpl	$1, %eax
	je	.L203
.L171:
	movq	232(%rbx), %rbp
	testq	%rbp, %rbp
	je	.L178
	cmpb	$0, __libc_single_threaded(%rip)
	je	.L179
	movl	8(%rbp), %eax
	leal	-1(%rax), %edx
	movl	%edx, 8(%rbp)
.L180:
	cmpl	$1, %eax
	je	.L204
.L178:
	leaq	16+_ZTV6Entity(%rip), %rax
	movq	128(%rbx), %rdi
	movq	%rax, 16(%rbx)
	leaq	144(%rbx), %rax
	cmpq	%rax, %rdi
	je	.L184
	movq	144(%rbx), %rax
	leaq	1(%rax), %rsi
	call	_ZdlPvm@PLT
.L184:
	movq	96(%rbx), %rdi
	leaq	112(%rbx), %rax
	cmpq	%rax, %rdi
	je	.L185
	movq	112(%rbx), %rax
	leaq	1(%rax), %rsi
	call	_ZdlPvm@PLT
.L185:
	movq	48(%rbx), %rbp
	testq	%rbp, %rbp
	je	.L187
	cmpb	$0, __libc_single_threaded(%rip)
	je	.L188
	movl	8(%rbp), %eax
	leal	-1(%rax), %edx
	movl	%edx, 8(%rbp)
.L189:
	cmpl	$1, %eax
	je	.L205
.L187:
	movq	32(%rbx), %rbp
	testq	%rbp, %rbp
	je	.L155
	cmpb	$0, __libc_single_threaded(%rip)
	je	.L195
	movl	8(%rbp), %eax
	leal	-1(%rax), %edx
	movl	%edx, 8(%rbp)
.L196:
	cmpl	$1, %eax
	je	.L206
.L155:
	addq	$8, %rsp
	.cfi_remember_state
	.cfi_def_cfa_offset 24
	popq	%rbx
	.cfi_def_cfa_offset 16
	popq	%rbp
	.cfi_def_cfa_offset 8
	ret
	.p2align 4,,10
	.p2align 3
.L201:
	.cfi_restore_state
	movq	0(%rbp), %rax
	movq	%rbp, %rdi
	call	*16(%rax)
	cmpb	$0, __libc_single_threaded(%rip)
	je	.L161
	movl	12(%rbp), %eax
	leal	-1(%rax), %edx
	movl	%edx, 12(%rbp)
.L162:
	cmpl	$1, %eax
	jne	.L157
	movq	0(%rbp), %rax
	movq	%rbp, %rdi
	call	*24(%rax)
	jmp	.L157
	.p2align 4,,10
	.p2align 3
.L202:
	movq	0(%rbp), %rax
	movq	%rbp, %rdi
	call	*16(%rax)
	cmpb	$0, __libc_single_threaded(%rip)
	je	.L168
	movl	12(%rbp), %eax
	leal	-1(%rax), %edx
	movl	%edx, 12(%rbp)
.L169:
	cmpl	$1, %eax
	jne	.L164
	movq	0(%rbp), %rax
	movq	%rbp, %rdi
	call	*24(%rax)
	jmp	.L164
	.p2align 4,,10
	.p2align 3
.L203:
	movq	0(%rbp), %rax
	movq	%rbp, %rdi
	call	*16(%rax)
	cmpb	$0, __libc_single_threaded(%rip)
	je	.L175
	movl	12(%rbp), %eax
	leal	-1(%rax), %edx
	movl	%edx, 12(%rbp)
.L176:
	cmpl	$1, %eax
	jne	.L171
	movq	0(%rbp), %rax
	movq	%rbp, %rdi
	call	*24(%rax)
	jmp	.L171
	.p2align 4,,10
	.p2align 3
.L204:
	movq	0(%rbp), %rax
	movq	%rbp, %rdi
	call	*16(%rax)
	cmpb	$0, __libc_single_threaded(%rip)
	je	.L182
	movl	12(%rbp), %eax
	leal	-1(%rax), %edx
	movl	%edx, 12(%rbp)
.L183:
	cmpl	$1, %eax
	jne	.L178
	movq	0(%rbp), %rax
	movq	%rbp, %rdi
	call	*24(%rax)
	jmp	.L178
	.p2align 4,,10
	.p2align 3
.L205:
	movq	0(%rbp), %rax
	movq	%rbp, %rdi
	call	*16(%rax)
	cmpb	$0, __libc_single_threaded(%rip)
	je	.L191
	movl	12(%rbp), %eax
	leal	-1(%rax), %edx
	movl	%edx, 12(%rbp)
.L192:
	cmpl	$1, %eax
	jne	.L187
	movq	0(%rbp), %rax
	movq	%rbp, %rdi
	call	*24(%rax)
	jmp	.L187
	.p2align 4,,10
	.p2align 3
.L206:
	movq	0(%rbp), %rax
	movq	%rbp, %rdi
	call	*16(%rax)
	cmpb	$0, __libc_single_threaded(%rip)
	je	.L198
	movl	12(%rbp), %eax
	leal	-1(%rax), %edx
	movl	%edx, 12(%rbp)
.L199:
	cmpl	$1, %eax
	jne	.L155
	movq	0(%rbp), %rax
	movq	%rbp, %rdi
	movq	24(%rax), %rax
	addq	$8, %rsp
	.cfi_remember_state
	.cfi_def_cfa_offset 24
	popq	%rbx
	.cfi_def_cfa_offset 16
	popq	%rbp
	.cfi_def_cfa_offset 8
	jmp	*%rax
	.p2align 4,,10
	.p2align 3
.L165:
	.cfi_restore_state
	movl	$-1, %eax
	lock xaddl	%eax, 8(%rbp)
	jmp	.L166
	.p2align 4,,10
	.p2align 3
.L179:
	movl	$-1, %eax
	lock xaddl	%eax, 8(%rbp)
	jmp	.L180
	.p2align 4,,10
	.p2align 3
.L188:
	movl	$-1, %eax
	lock xaddl	%eax, 8(%rbp)
	jmp	.L189
	.p2align 4,,10
	.p2align 3
.L195:
	movl	$-1, %eax
	lock xaddl	%eax, 8(%rbp)
	jmp	.L196
	.p2align 4,,10
	.p2align 3
.L158:
	movl	$-1, %eax
	lock xaddl	%eax, 8(%rbp)
	jmp	.L159
	.p2align 4,,10
	.p2align 3
.L172:
	movl	$-1, %eax
	lock xaddl	%eax, 8(%rbp)
	jmp	.L173
	.p2align 4,,10
	.p2align 3
.L161:
	movl	$-1, %eax
	lock xaddl	%eax, 12(%rbp)
	jmp	.L162
	.p2align 4,,10
	.p2align 3
.L198:
	movl	$-1, %eax
	lock xaddl	%eax, 12(%rbp)
	jmp	.L199
	.p2align 4,,10
	.p2align 3
.L168:
	movl	$-1, %eax
	lock xaddl	%eax, 12(%rbp)
	jmp	.L169
	.p2align 4,,10
	.p2align 3
.L175:
	movl	$-1, %eax
	lock xaddl	%eax, 12(%rbp)
	jmp	.L176
	.p2align 4,,10
	.p2align 3
.L182:
	movl	$-1, %eax
	lock xaddl	%eax, 12(%rbp)
	jmp	.L183
	.p2align 4,,10
	.p2align 3
.L191:
	movl	$-1, %eax
	lock xaddl	%eax, 12(%rbp)
	jmp	.L192
	.cfi_endproc
.LFE13670:
	.size	_ZNSt23_Sp_counted_ptr_inplaceI6GeraltSaIS0_ELN9__gnu_cxx12_Lock_policyE2EE10_M_disposeEv, .-_ZNSt23_Sp_counted_ptr_inplaceI6GeraltSaIS0_ELN9__gnu_cxx12_Lock_policyE2EE10_M_disposeEv
	.section	.text._ZNSt23_Sp_counted_ptr_inplaceI5AppleSaIS0_ELN9__gnu_cxx12_Lock_policyE2EE10_M_disposeEv,"axG",@progbits,_ZNSt23_Sp_counted_ptr_inplaceI5AppleSaIS0_ELN9__gnu_cxx12_Lock_policyE2EE10_M_disposeEv,comdat
	.align 2
	.p2align 4
	.weak	_ZNSt23_Sp_counted_ptr_inplaceI5AppleSaIS0_ELN9__gnu_cxx12_Lock_policyE2EE10_M_disposeEv
	.type	_ZNSt23_Sp_counted_ptr_inplaceI5AppleSaIS0_ELN9__gnu_cxx12_Lock_policyE2EE10_M_disposeEv, @function
_ZNSt23_Sp_counted_ptr_inplaceI5AppleSaIS0_ELN9__gnu_cxx12_Lock_policyE2EE10_M_disposeEv:
.LFB13649:
	.cfi_startproc
	endbr64
	pushq	%rbp
	.cfi_def_cfa_offset 16
	.cfi_offset 6, -16
	leaq	16+_ZTV5Apple(%rip), %rax
	pushq	%rbx
	.cfi_def_cfa_offset 24
	.cfi_offset 3, -24
	movq	%rdi, %rbx
	subq	$8, %rsp
	.cfi_def_cfa_offset 32
	movq	280(%rdi), %rbp
	movq	%rax, 16(%rdi)
	testq	%rbp, %rbp
	je	.L209
	cmpb	$0, __libc_single_threaded(%rip)
	je	.L210
	movl	8(%rbp), %eax
	leal	-1(%rax), %edx
	movl	%edx, 8(%rbp)
.L211:
	cmpl	$1, %eax
	je	.L253
.L209:
	movq	264(%rbx), %rbp
	testq	%rbp, %rbp
	je	.L216
	cmpb	$0, __libc_single_threaded(%rip)
	je	.L217
	movl	8(%rbp), %eax
	leal	-1(%rax), %edx
	movl	%edx, 8(%rbp)
.L218:
	cmpl	$1, %eax
	je	.L254
.L216:
	movq	240(%rbx), %rbp
	testq	%rbp, %rbp
	je	.L223
	cmpb	$0, __libc_single_threaded(%rip)
	je	.L224
	movl	8(%rbp), %eax
	leal	-1(%rax), %edx
	movl	%edx, 8(%rbp)
.L225:
	cmpl	$1, %eax
	je	.L255
.L223:
	movq	224(%rbx), %rbp
	testq	%rbp, %rbp
	je	.L230
	cmpb	$0, __libc_single_threaded(%rip)
	je	.L231
	movl	8(%rbp), %eax
	leal	-1(%rax), %edx
	movl	%edx, 8(%rbp)
.L232:
	cmpl	$1, %eax
	je	.L256
.L230:
	leaq	16+_ZTV6Entity(%rip), %rax
	movq	128(%rbx), %rdi
	movq	%rax, 16(%rbx)
	leaq	144(%rbx), %rax
	cmpq	%rax, %rdi
	je	.L236
	movq	144(%rbx), %rax
	leaq	1(%rax), %rsi
	call	_ZdlPvm@PLT
.L236:
	movq	96(%rbx), %rdi
	leaq	112(%rbx), %rax
	cmpq	%rax, %rdi
	je	.L237
	movq	112(%rbx), %rax
	leaq	1(%rax), %rsi
	call	_ZdlPvm@PLT
.L237:
	movq	48(%rbx), %rbp
	testq	%rbp, %rbp
	je	.L239
	cmpb	$0, __libc_single_threaded(%rip)
	je	.L240
	movl	8(%rbp), %eax
	leal	-1(%rax), %edx
	movl	%edx, 8(%rbp)
.L241:
	cmpl	$1, %eax
	je	.L257
.L239:
	movq	32(%rbx), %rbp
	testq	%rbp, %rbp
	je	.L207
	cmpb	$0, __libc_single_threaded(%rip)
	je	.L247
	movl	8(%rbp), %eax
	leal	-1(%rax), %edx
	movl	%edx, 8(%rbp)
.L248:
	cmpl	$1, %eax
	je	.L258
.L207:
	addq	$8, %rsp
	.cfi_remember_state
	.cfi_def_cfa_offset 24
	popq	%rbx
	.cfi_def_cfa_offset 16
	popq	%rbp
	.cfi_def_cfa_offset 8
	ret
	.p2align 4,,10
	.p2align 3
.L253:
	.cfi_restore_state
	movq	0(%rbp), %rax
	movq	%rbp, %rdi
	call	*16(%rax)
	cmpb	$0, __libc_single_threaded(%rip)
	je	.L213
	movl	12(%rbp), %eax
	leal	-1(%rax), %edx
	movl	%edx, 12(%rbp)
.L214:
	cmpl	$1, %eax
	jne	.L209
	movq	0(%rbp), %rax
	movq	%rbp, %rdi
	call	*24(%rax)
	jmp	.L209
	.p2align 4,,10
	.p2align 3
.L254:
	movq	0(%rbp), %rax
	movq	%rbp, %rdi
	call	*16(%rax)
	cmpb	$0, __libc_single_threaded(%rip)
	je	.L220
	movl	12(%rbp), %eax
	leal	-1(%rax), %edx
	movl	%edx, 12(%rbp)
.L221:
	cmpl	$1, %eax
	jne	.L216
	movq	0(%rbp), %rax
	movq	%rbp, %rdi
	call	*24(%rax)
	jmp	.L216
	.p2align 4,,10
	.p2align 3
.L255:
	movq	0(%rbp), %rax
	movq	%rbp, %rdi
	call	*16(%rax)
	cmpb	$0, __libc_single_threaded(%rip)
	je	.L227
	movl	12(%rbp), %eax
	leal	-1(%rax), %edx
	movl	%edx, 12(%rbp)
.L228:
	cmpl	$1, %eax
	jne	.L223
	movq	0(%rbp), %rax
	movq	%rbp, %rdi
	call	*24(%rax)
	jmp	.L223
	.p2align 4,,10
	.p2align 3
.L256:
	movq	0(%rbp), %rax
	movq	%rbp, %rdi
	call	*16(%rax)
	cmpb	$0, __libc_single_threaded(%rip)
	je	.L234
	movl	12(%rbp), %eax
	leal	-1(%rax), %edx
	movl	%edx, 12(%rbp)
.L235:
	cmpl	$1, %eax
	jne	.L230
	movq	0(%rbp), %rax
	movq	%rbp, %rdi
	call	*24(%rax)
	jmp	.L230
	.p2align 4,,10
	.p2align 3
.L257:
	movq	0(%rbp), %rax
	movq	%rbp, %rdi
	call	*16(%rax)
	cmpb	$0, __libc_single_threaded(%rip)
	je	.L243
	movl	12(%rbp), %eax
	leal	-1(%rax), %edx
	movl	%edx, 12(%rbp)
.L244:
	cmpl	$1, %eax
	jne	.L239
	movq	0(%rbp), %rax
	movq	%rbp, %rdi
	call	*24(%rax)
	jmp	.L239
	.p2align 4,,10
	.p2align 3
.L258:
	movq	0(%rbp), %rax
	movq	%rbp, %rdi
	call	*16(%rax)
	cmpb	$0, __libc_single_threaded(%rip)
	je	.L250
	movl	12(%rbp), %eax
	leal	-1(%rax), %edx
	movl	%edx, 12(%rbp)
.L251:
	cmpl	$1, %eax
	jne	.L207
	movq	0(%rbp), %rax
	movq	%rbp, %rdi
	movq	24(%rax), %rax
	addq	$8, %rsp
	.cfi_remember_state
	.cfi_def_cfa_offset 24
	popq	%rbx
	.cfi_def_cfa_offset 16
	popq	%rbp
	.cfi_def_cfa_offset 8
	jmp	*%rax
	.p2align 4,,10
	.p2align 3
.L217:
	.cfi_restore_state
	movl	$-1, %eax
	lock xaddl	%eax, 8(%rbp)
	jmp	.L218
	.p2align 4,,10
	.p2align 3
.L231:
	movl	$-1, %eax
	lock xaddl	%eax, 8(%rbp)
	jmp	.L232
	.p2align 4,,10
	.p2align 3
.L240:
	movl	$-1, %eax
	lock xaddl	%eax, 8(%rbp)
	jmp	.L241
	.p2align 4,,10
	.p2align 3
.L247:
	movl	$-1, %eax
	lock xaddl	%eax, 8(%rbp)
	jmp	.L248
	.p2align 4,,10
	.p2align 3
.L210:
	movl	$-1, %eax
	lock xaddl	%eax, 8(%rbp)
	jmp	.L211
	.p2align 4,,10
	.p2align 3
.L224:
	movl	$-1, %eax
	lock xaddl	%eax, 8(%rbp)
	jmp	.L225
	.p2align 4,,10
	.p2align 3
.L213:
	movl	$-1, %eax
	lock xaddl	%eax, 12(%rbp)
	jmp	.L214
	.p2align 4,,10
	.p2align 3
.L250:
	movl	$-1, %eax
	lock xaddl	%eax, 12(%rbp)
	jmp	.L251
	.p2align 4,,10
	.p2align 3
.L220:
	movl	$-1, %eax
	lock xaddl	%eax, 12(%rbp)
	jmp	.L221
	.p2align 4,,10
	.p2align 3
.L227:
	movl	$-1, %eax
	lock xaddl	%eax, 12(%rbp)
	jmp	.L228
	.p2align 4,,10
	.p2align 3
.L234:
	movl	$-1, %eax
	lock xaddl	%eax, 12(%rbp)
	jmp	.L235
	.p2align 4,,10
	.p2align 3
.L243:
	movl	$-1, %eax
	lock xaddl	%eax, 12(%rbp)
	jmp	.L244
	.cfi_endproc
.LFE13649:
	.size	_ZNSt23_Sp_counted_ptr_inplaceI5AppleSaIS0_ELN9__gnu_cxx12_Lock_policyE2EE10_M_disposeEv, .-_ZNSt23_Sp_counted_ptr_inplaceI5AppleSaIS0_ELN9__gnu_cxx12_Lock_policyE2EE10_M_disposeEv
	.section	.text._ZNSt23_Sp_counted_ptr_inplaceI12Lemming_heroSaIS0_ELN9__gnu_cxx12_Lock_policyE2EE10_M_disposeEv,"axG",@progbits,_ZNSt23_Sp_counted_ptr_inplaceI12Lemming_heroSaIS0_ELN9__gnu_cxx12_Lock_policyE2EE10_M_disposeEv,comdat
	.align 2
	.p2align 4
	.weak	_ZNSt23_Sp_counted_ptr_inplaceI12Lemming_heroSaIS0_ELN9__gnu_cxx12_Lock_policyE2EE10_M_disposeEv
	.type	_ZNSt23_Sp_counted_ptr_inplaceI12Lemming_heroSaIS0_ELN9__gnu_cxx12_Lock_policyE2EE10_M_disposeEv, @function
_ZNSt23_Sp_counted_ptr_inplaceI12Lemming_heroSaIS0_ELN9__gnu_cxx12_Lock_policyE2EE10_M_disposeEv:
.LFB13656:
	.cfi_startproc
	endbr64
	pushq	%rbp
	.cfi_def_cfa_offset 16
	.cfi_offset 6, -16
	leaq	16+_ZTV12Lemming_hero(%rip), %rax
	pushq	%rbx
	.cfi_def_cfa_offset 24
	.cfi_offset 3, -24
	movq	%rdi, %rbx
	subq	$8, %rsp
	.cfi_def_cfa_offset 32
	movq	%rax, 16(%rdi)
	movq	352(%rdi), %rdi
	leaq	368(%rbx), %rax
	cmpq	%rax, %rdi
	je	.L260
	movq	368(%rbx), %rax
	leaq	1(%rax), %rsi
	call	_ZdlPvm@PLT
.L260:
	movq	328(%rbx), %rbp
	testq	%rbp, %rbp
	je	.L262
	cmpb	$0, __libc_single_threaded(%rip)
	je	.L263
	movl	8(%rbp), %eax
	leal	-1(%rax), %edx
	movl	%edx, 8(%rbp)
.L264:
	cmpl	$1, %eax
	je	.L320
.L262:
	movq	312(%rbx), %rbp
	testq	%rbp, %rbp
	je	.L269
	cmpb	$0, __libc_single_threaded(%rip)
	je	.L270
	movl	8(%rbp), %eax
	leal	-1(%rax), %edx
	movl	%edx, 8(%rbp)
.L271:
	cmpl	$1, %eax
	je	.L321
.L269:
	movq	288(%rbx), %rbp
	testq	%rbp, %rbp
	je	.L276
	cmpb	$0, __libc_single_threaded(%rip)
	je	.L277
	movl	8(%rbp), %eax
	leal	-1(%rax), %edx
	movl	%edx, 8(%rbp)
.L278:
	cmpl	$1, %eax
	je	.L322
.L276:
	movq	272(%rbx), %rbp
	testq	%rbp, %rbp
	je	.L283
	cmpb	$0, __libc_single_threaded(%rip)
	je	.L284
	movl	8(%rbp), %eax
	leal	-1(%rax), %edx
	movl	%edx, 8(%rbp)
.L285:
	cmpl	$1, %eax
	je	.L323
.L283:
	movq	248(%rbx), %rbp
	testq	%rbp, %rbp
	je	.L290
	cmpb	$0, __libc_single_threaded(%rip)
	je	.L291
	movl	8(%rbp), %eax
	leal	-1(%rax), %edx
	movl	%edx, 8(%rbp)
.L292:
	cmpl	$1, %eax
	je	.L324
.L290:
	movq	232(%rbx), %rbp
	testq	%rbp, %rbp
	je	.L297
	cmpb	$0, __libc_single_threaded(%rip)
	je	.L298
	movl	8(%rbp), %eax
	leal	-1(%rax), %edx
	movl	%edx, 8(%rbp)
.L299:
	cmpl	$1, %eax
	je	.L325
.L297:
	leaq	16+_ZTV6Entity(%rip), %rax
	movq	128(%rbx), %rdi
	movq	%rax, 16(%rbx)
	leaq	144(%rbx), %rax
	cmpq	%rax, %rdi
	je	.L303
	movq	144(%rbx), %rax
	leaq	1(%rax), %rsi
	call	_ZdlPvm@PLT
.L303:
	movq	96(%rbx), %rdi
	leaq	112(%rbx), %rax
	cmpq	%rax, %rdi
	je	.L304
	movq	112(%rbx), %rax
	leaq	1(%rax), %rsi
	call	_ZdlPvm@PLT
.L304:
	movq	48(%rbx), %rbp
	testq	%rbp, %rbp
	je	.L306
	cmpb	$0, __libc_single_threaded(%rip)
	je	.L307
	movl	8(%rbp), %eax
	leal	-1(%rax), %edx
	movl	%edx, 8(%rbp)
.L308:
	cmpl	$1, %eax
	je	.L326
.L306:
	movq	32(%rbx), %rbp
	testq	%rbp, %rbp
	je	.L259
	cmpb	$0, __libc_single_threaded(%rip)
	je	.L314
	movl	8(%rbp), %eax
	leal	-1(%rax), %edx
	movl	%edx, 8(%rbp)
.L315:
	cmpl	$1, %eax
	je	.L327
.L259:
	addq	$8, %rsp
	.cfi_remember_state
	.cfi_def_cfa_offset 24
	popq	%rbx
	.cfi_def_cfa_offset 16
	popq	%rbp
	.cfi_def_cfa_offset 8
	ret
	.p2align 4,,10
	.p2align 3
.L320:
	.cfi_restore_state
	movq	0(%rbp), %rax
	movq	%rbp, %rdi
	call	*16(%rax)
	cmpb	$0, __libc_single_threaded(%rip)
	je	.L266
	movl	12(%rbp), %eax
	leal	-1(%rax), %edx
	movl	%edx, 12(%rbp)
.L267:
	cmpl	$1, %eax
	jne	.L262
	movq	0(%rbp), %rax
	movq	%rbp, %rdi
	call	*24(%rax)
	jmp	.L262
	.p2align 4,,10
	.p2align 3
.L321:
	movq	0(%rbp), %rax
	movq	%rbp, %rdi
	call	*16(%rax)
	cmpb	$0, __libc_single_threaded(%rip)
	je	.L273
	movl	12(%rbp), %eax
	leal	-1(%rax), %edx
	movl	%edx, 12(%rbp)
.L274:
	cmpl	$1, %eax
	jne	.L269
	movq	0(%rbp), %rax
	movq	%rbp, %rdi
	call	*24(%rax)
	jmp	.L269
	.p2align 4,,10
	.p2align 3
.L322:
	movq	0(%rbp), %rax
	movq	%rbp, %rdi
	call	*16(%rax)
	cmpb	$0, __libc_single_threaded(%rip)
	je	.L280
	movl	12(%rbp), %eax
	leal	-1(%rax), %edx
	movl	%edx, 12(%rbp)
.L281:
	cmpl	$1, %eax
	jne	.L276
	movq	0(%rbp), %rax
	movq	%rbp, %rdi
	call	*24(%rax)
	jmp	.L276
	.p2align 4,,10
	.p2align 3
.L323:
	movq	0(%rbp), %rax
	movq	%rbp, %rdi
	call	*16(%rax)
	cmpb	$0, __libc_single_threaded(%rip)
	je	.L287
	movl	12(%rbp), %eax
	leal	-1(%rax), %edx
	movl	%edx, 12(%rbp)
.L288:
	cmpl	$1, %eax
	jne	.L283
	movq	0(%rbp), %rax
	movq	%rbp, %rdi
	call	*24(%rax)
	jmp	.L283
	.p2align 4,,10
	.p2align 3
.L324:
	movq	0(%rbp), %rax
	movq	%rbp, %rdi
	call	*16(%rax)
	cmpb	$0, __libc_single_threaded(%rip)
	je	.L294
	movl	12(%rbp), %eax
	leal	-1(%rax), %edx
	movl	%edx, 12(%rbp)
.L295:
	cmpl	$1, %eax
	jne	.L290
	movq	0(%rbp), %rax
	movq	%rbp, %rdi
	call	*24(%rax)
	jmp	.L290
	.p2align 4,,10
	.p2align 3
.L326:
	movq	0(%rbp), %rax
	movq	%rbp, %rdi
	call	*16(%rax)
	cmpb	$0, __libc_single_threaded(%rip)
	je	.L310
	movl	12(%rbp), %eax
	leal	-1(%rax), %edx
	movl	%edx, 12(%rbp)
.L311:
	cmpl	$1, %eax
	jne	.L306
	movq	0(%rbp), %rax
	movq	%rbp, %rdi
	call	*24(%rax)
	jmp	.L306
	.p2align 4,,10
	.p2align 3
.L325:
	movq	0(%rbp), %rax
	movq	%rbp, %rdi
	call	*16(%rax)
	cmpb	$0, __libc_single_threaded(%rip)
	je	.L301
	movl	12(%rbp), %eax
	leal	-1(%rax), %edx
	movl	%edx, 12(%rbp)
.L302:
	cmpl	$1, %eax
	jne	.L297
	movq	0(%rbp), %rax
	movq	%rbp, %rdi
	call	*24(%rax)
	jmp	.L297
	.p2align 4,,10
	.p2align 3
.L327:
	movq	0(%rbp), %rax
	movq	%rbp, %rdi
	call	*16(%rax)
	cmpb	$0, __libc_single_threaded(%rip)
	je	.L317
	movl	12(%rbp), %eax
	leal	-1(%rax), %edx
	movl	%edx, 12(%rbp)
.L318:
	cmpl	$1, %eax
	jne	.L259
	movq	0(%rbp), %rax
	movq	%rbp, %rdi
	movq	24(%rax), %rax
	addq	$8, %rsp
	.cfi_remember_state
	.cfi_def_cfa_offset 24
	popq	%rbx
	.cfi_def_cfa_offset 16
	popq	%rbp
	.cfi_def_cfa_offset 8
	jmp	*%rax
	.p2align 4,,10
	.p2align 3
.L298:
	.cfi_restore_state
	movl	$-1, %eax
	lock xaddl	%eax, 8(%rbp)
	jmp	.L299
	.p2align 4,,10
	.p2align 3
.L270:
	movl	$-1, %eax
	lock xaddl	%eax, 8(%rbp)
	jmp	.L271
	.p2align 4,,10
	.p2align 3
.L277:
	movl	$-1, %eax
	lock xaddl	%eax, 8(%rbp)
	jmp	.L278
	.p2align 4,,10
	.p2align 3
.L314:
	movl	$-1, %eax
	lock xaddl	%eax, 8(%rbp)
	jmp	.L315
	.p2align 4,,10
	.p2align 3
.L263:
	movl	$-1, %eax
	lock xaddl	%eax, 8(%rbp)
	jmp	.L264
	.p2align 4,,10
	.p2align 3
.L284:
	movl	$-1, %eax
	lock xaddl	%eax, 8(%rbp)
	jmp	.L285
	.p2align 4,,10
	.p2align 3
.L291:
	movl	$-1, %eax
	lock xaddl	%eax, 8(%rbp)
	jmp	.L292
	.p2align 4,,10
	.p2align 3
.L307:
	movl	$-1, %eax
	lock xaddl	%eax, 8(%rbp)
	jmp	.L308
	.p2align 4,,10
	.p2align 3
.L266:
	movl	$-1, %eax
	lock xaddl	%eax, 12(%rbp)
	jmp	.L267
	.p2align 4,,10
	.p2align 3
.L317:
	movl	$-1, %eax
	lock xaddl	%eax, 12(%rbp)
	jmp	.L318
	.p2align 4,,10
	.p2align 3
.L273:
	movl	$-1, %eax
	lock xaddl	%eax, 12(%rbp)
	jmp	.L274
	.p2align 4,,10
	.p2align 3
.L280:
	movl	$-1, %eax
	lock xaddl	%eax, 12(%rbp)
	jmp	.L281
	.p2align 4,,10
	.p2align 3
.L287:
	movl	$-1, %eax
	lock xaddl	%eax, 12(%rbp)
	jmp	.L288
	.p2align 4,,10
	.p2align 3
.L310:
	movl	$-1, %eax
	lock xaddl	%eax, 12(%rbp)
	jmp	.L311
	.p2align 4,,10
	.p2align 3
.L294:
	movl	$-1, %eax
	lock xaddl	%eax, 12(%rbp)
	jmp	.L295
	.p2align 4,,10
	.p2align 3
.L301:
	movl	$-1, %eax
	lock xaddl	%eax, 12(%rbp)
	jmp	.L302
	.cfi_endproc
.LFE13656:
	.size	_ZNSt23_Sp_counted_ptr_inplaceI12Lemming_heroSaIS0_ELN9__gnu_cxx12_Lock_policyE2EE10_M_disposeEv, .-_ZNSt23_Sp_counted_ptr_inplaceI12Lemming_heroSaIS0_ELN9__gnu_cxx12_Lock_policyE2EE10_M_disposeEv
	.section	.text._ZN7TextureD2Ev,"axG",@progbits,_ZN7TextureD5Ev,comdat
	.align 2
	.p2align 4
	.weak	_ZN7TextureD2Ev
	.type	_ZN7TextureD2Ev, @function
_ZN7TextureD2Ev:
.LFB11982:
	.cfi_startproc
	endbr64
	pushq	%rbp
	.cfi_def_cfa_offset 16
	.cfi_offset 6, -16
	pushq	%rbx
	.cfi_def_cfa_offset 24
	.cfi_offset 3, -24
	movq	%rdi, %rbx
	subq	$8, %rsp
	.cfi_def_cfa_offset 32
	movq	24(%rdi), %rbp
	testq	%rbp, %rbp
	je	.L330
	cmpb	$0, __libc_single_threaded(%rip)
	je	.L331
	movl	8(%rbp), %eax
	leal	-1(%rax), %edx
	movl	%edx, 8(%rbp)
.L332:
	cmpl	$1, %eax
	je	.L344
.L330:
	movq	8(%rbx), %rbp
	testq	%rbp, %rbp
	je	.L328
	cmpb	$0, __libc_single_threaded(%rip)
	je	.L338
	movl	8(%rbp), %eax
	leal	-1(%rax), %edx
	movl	%edx, 8(%rbp)
.L339:
	cmpl	$1, %eax
	je	.L345
.L328:
	addq	$8, %rsp
	.cfi_remember_state
	.cfi_def_cfa_offset 24
	popq	%rbx
	.cfi_def_cfa_offset 16
	popq	%rbp
	.cfi_def_cfa_offset 8
	ret
	.p2align 4,,10
	.p2align 3
.L344:
	.cfi_restore_state
	movq	0(%rbp), %rax
	movq	%rbp, %rdi
	call	*16(%rax)
	cmpb	$0, __libc_single_threaded(%rip)
	je	.L334
	movl	12(%rbp), %eax
	leal	-1(%rax), %edx
	movl	%edx, 12(%rbp)
.L335:
	cmpl	$1, %eax
	jne	.L330
	movq	0(%rbp), %rax
	movq	%rbp, %rdi
	call	*24(%rax)
	jmp	.L330
	.p2align 4,,10
	.p2align 3
.L345:
	movq	0(%rbp), %rax
	movq	%rbp, %rdi
	call	*16(%rax)
	cmpb	$0, __libc_single_threaded(%rip)
	je	.L341
	movl	12(%rbp), %eax
	leal	-1(%rax), %edx
	movl	%edx, 12(%rbp)
.L342:
	cmpl	$1, %eax
	jne	.L328
	movq	0(%rbp), %rax
	movq	%rbp, %rdi
	movq	24(%rax), %rax
	addq	$8, %rsp
	.cfi_remember_state
	.cfi_def_cfa_offset 24
	popq	%rbx
	.cfi_def_cfa_offset 16
	popq	%rbp
	.cfi_def_cfa_offset 8
	jmp	*%rax
	.p2align 4,,10
	.p2align 3
.L338:
	.cfi_restore_state
	movl	$-1, %eax
	lock xaddl	%eax, 8(%rbp)
	jmp	.L339
	.p2align 4,,10
	.p2align 3
.L331:
	movl	$-1, %eax
	lock xaddl	%eax, 8(%rbp)
	jmp	.L332
	.p2align 4,,10
	.p2align 3
.L334:
	movl	$-1, %eax
	lock xaddl	%eax, 12(%rbp)
	jmp	.L335
	.p2align 4,,10
	.p2align 3
.L341:
	movl	$-1, %eax
	lock xaddl	%eax, 12(%rbp)
	jmp	.L342
	.cfi_endproc
.LFE11982:
	.size	_ZN7TextureD2Ev, .-_ZN7TextureD2Ev
	.weak	_ZN7TextureD1Ev
	.set	_ZN7TextureD1Ev,_ZN7TextureD2Ev
	.section	.text._ZN5Apple11on_event_upER6EngineN8EngineIO10InputEventE,"axG",@progbits,_ZN5Apple11on_event_upER6EngineN8EngineIO10InputEventE,comdat
	.align 2
	.p2align 4
	.weak	_ZN5Apple11on_event_upER6EngineN8EngineIO10InputEventE
	.type	_ZN5Apple11on_event_upER6EngineN8EngineIO10InputEventE, @function
_ZN5Apple11on_event_upER6EngineN8EngineIO10InputEventE:
.LFB12055:
	.cfi_startproc
	.cfi_personality 0x9b,DW.ref.__gxx_personality_v0
	.cfi_lsda 0x1b,.LLSDA12055
	endbr64
	pushq	%r12
	.cfi_def_cfa_offset 16
	.cfi_offset 12, -16
	pushq	%rbp
	.cfi_def_cfa_offset 24
	.cfi_offset 6, -24
	subq	$56, %rsp
	.cfi_def_cfa_offset 80
	movq	%fs:40, %rax
	movq	%rax, 40(%rsp)
	xorl	%eax, %eax
	cmpl	$65536, %edx
	je	.L366
.L346:
	movq	40(%rsp), %rax
	subq	%fs:40, %rax
	jne	.L367
	addq	$56, %rsp
	.cfi_remember_state
	.cfi_def_cfa_offset 24
	popq	%rbp
	.cfi_def_cfa_offset 16
	popq	%r12
	.cfi_def_cfa_offset 8
	ret
	.p2align 4,,10
	.p2align 3
.L366:
	.cfi_restore_state
	movq	%rsp, %r12
	leaq	200(%rdi), %rsi
	movq	%rdi, %rbp
	movq	%r12, %rdi
.LEHB3:
	call	_ZN7TextureC1ERKS_@PLT
.LEHE3:
	movq	%r12, %rsi
	movq	%rbp, %rdi
.LEHB4:
	call	_ZN6Entity18set_active_textureE7Texture@PLT
.LEHE4:
	movq	24(%rsp), %rbp
	testq	%rbp, %rbp
	je	.L349
	cmpb	$0, __libc_single_threaded(%rip)
	je	.L350
	movl	8(%rbp), %eax
	leal	-1(%rax), %edx
	movl	%edx, 8(%rbp)
.L351:
	cmpl	$1, %eax
	je	.L368
.L349:
	movq	8(%rsp), %rbp
	testq	%rbp, %rbp
	je	.L346
	cmpb	$0, __libc_single_threaded(%rip)
	je	.L357
	movl	8(%rbp), %eax
	leal	-1(%rax), %edx
	movl	%edx, 8(%rbp)
.L358:
	cmpl	$1, %eax
	jne	.L346
	movq	0(%rbp), %rax
	movq	%rbp, %rdi
	call	*16(%rax)
	cmpb	$0, __libc_single_threaded(%rip)
	je	.L360
	movl	12(%rbp), %eax
	leal	-1(%rax), %edx
	movl	%edx, 12(%rbp)
.L361:
	cmpl	$1, %eax
	jne	.L346
	movq	0(%rbp), %rax
	movq	%rbp, %rdi
	call	*24(%rax)
	jmp	.L346
	.p2align 4,,10
	.p2align 3
.L368:
	movq	0(%rbp), %rax
	movq	%rbp, %rdi
	call	*16(%rax)
	cmpb	$0, __libc_single_threaded(%rip)
	je	.L353
	movl	12(%rbp), %eax
	leal	-1(%rax), %edx
	movl	%edx, 12(%rbp)
.L354:
	cmpl	$1, %eax
	jne	.L349
	movq	0(%rbp), %rax
	movq	%rbp, %rdi
	call	*24(%rax)
	jmp	.L349
	.p2align 4,,10
	.p2align 3
.L350:
	movl	$-1, %eax
	lock xaddl	%eax, 8(%rbp)
	jmp	.L351
	.p2align 4,,10
	.p2align 3
.L357:
	movl	$-1, %eax
	lock xaddl	%eax, 8(%rbp)
	jmp	.L358
	.p2align 4,,10
	.p2align 3
.L360:
	movl	$-1, %eax
	lock xaddl	%eax, 12(%rbp)
	jmp	.L361
	.p2align 4,,10
	.p2align 3
.L353:
	movl	$-1, %eax
	lock xaddl	%eax, 12(%rbp)
	jmp	.L354
.L367:
	call	__stack_chk_fail@PLT
.L364:
	endbr64
	movq	%rax, %rbp
.L362:
	movq	%r12, %rdi
	call	_ZN7TextureD1Ev
	movq	%rbp, %rdi
.LEHB5:
	call	_Unwind_Resume@PLT
.LEHE5:
	.cfi_endproc
.LFE12055:
	.section	.gcc_except_table._ZN5Apple11on_event_upER6EngineN8EngineIO10InputEventE,"aG",@progbits,_ZN5Apple11on_event_upER6EngineN8EngineIO10InputEventE,comdat
.LLSDA12055:
	.byte	0xff
	.byte	0xff
	.byte	0x1
	.uleb128 .LLSDACSE12055-.LLSDACSB12055
.LLSDACSB12055:
	.uleb128 .LEHB3-.LFB12055
	.uleb128 .LEHE3-.LEHB3
	.uleb128 0
	.uleb128 0
	.uleb128 .LEHB4-.LFB12055
	.uleb128 .LEHE4-.LEHB4
	.uleb128 .L364-.LFB12055
	.uleb128 0
	.uleb128 .LEHB5-.LFB12055
	.uleb128 .LEHE5-.LEHB5
	.uleb128 0
	.uleb128 0
.LLSDACSE12055:
	.section	.text._ZN5Apple11on_event_upER6EngineN8EngineIO10InputEventE,"axG",@progbits,_ZN5Apple11on_event_upER6EngineN8EngineIO10InputEventE,comdat
	.size	_ZN5Apple11on_event_upER6EngineN8EngineIO10InputEventE, .-_ZN5Apple11on_event_upER6EngineN8EngineIO10InputEventE
	.section	.text._ZN5Apple13on_event_downER6EngineN8EngineIO10InputEventE,"axG",@progbits,_ZN5Apple13on_event_downER6EngineN8EngineIO10InputEventE,comdat
	.align 2
	.p2align 4
	.weak	_ZN5Apple13on_event_downER6EngineN8EngineIO10InputEventE
	.type	_ZN5Apple13on_event_downER6EngineN8EngineIO10InputEventE, @function
_ZN5Apple13on_event_downER6EngineN8EngineIO10InputEventE:
.LFB12054:
	.cfi_startproc
	.cfi_personality 0x9b,DW.ref.__gxx_personality_v0
	.cfi_lsda 0x1b,.LLSDA12054
	endbr64
	pushq	%r12
	.cfi_def_cfa_offset 16
	.cfi_offset 12, -16
	pushq	%rbp
	.cfi_def_cfa_offset 24
	.cfi_offset 6, -24
	movq	%rdi, %rbp
	subq	$56, %rsp
	.cfi_def_cfa_offset 80
	movq	%fs:40, %rax
	movq	%rax, 40(%rsp)
	xorl	%eax, %eax
	cmpl	$131072, %edx
	je	.L394
	cmpl	$65536, %edx
	je	.L395
.L369:
	movq	40(%rsp), %rax
	subq	%fs:40, %rax
	jne	.L393
	addq	$56, %rsp
	.cfi_remember_state
	.cfi_def_cfa_offset 24
	popq	%rbp
	.cfi_def_cfa_offset 16
	popq	%r12
	.cfi_def_cfa_offset 8
	ret
	.p2align 4,,10
	.p2align 3
.L394:
	.cfi_restore_state
.LEHB6:
	call	_ZNK6Entity18contains_the_mouseER6Engine@PLT
	testb	%al, %al
	je	.L369
	movq	40(%rsp), %rax
	subq	%fs:40, %rax
	jne	.L393
	addq	$56, %rsp
	.cfi_remember_state
	.cfi_def_cfa_offset 24
	movq	%rbp, %rdi
	popq	%rbp
	.cfi_def_cfa_offset 16
	popq	%r12
	.cfi_def_cfa_offset 8
	jmp	_ZN6Entity7destroyEv@PLT
	.p2align 4,,10
	.p2align 3
.L395:
	.cfi_restore_state
	movq	%rsp, %r12
	leaq	240(%rdi), %rsi
	movq	%r12, %rdi
	call	_ZN7TextureC1ERKS_@PLT
.LEHE6:
	movq	%r12, %rsi
	movq	%rbp, %rdi
.LEHB7:
	call	_ZN6Entity18set_active_textureE7Texture@PLT
.LEHE7:
	movq	24(%rsp), %rbp
	testq	%rbp, %rbp
	je	.L376
	cmpb	$0, __libc_single_threaded(%rip)
	je	.L377
	movl	8(%rbp), %eax
	leal	-1(%rax), %edx
	movl	%edx, 8(%rbp)
.L378:
	cmpl	$1, %eax
	je	.L396
.L376:
	movq	8(%rsp), %rbp
	testq	%rbp, %rbp
	je	.L369
	cmpb	$0, __libc_single_threaded(%rip)
	je	.L384
	movl	8(%rbp), %eax
	leal	-1(%rax), %edx
	movl	%edx, 8(%rbp)
.L385:
	cmpl	$1, %eax
	jne	.L369
	movq	0(%rbp), %rax
	movq	%rbp, %rdi
	call	*16(%rax)
	cmpb	$0, __libc_single_threaded(%rip)
	je	.L387
	movl	12(%rbp), %eax
	leal	-1(%rax), %edx
	movl	%edx, 12(%rbp)
.L388:
	cmpl	$1, %eax
	jne	.L369
	movq	0(%rbp), %rax
	movq	%rbp, %rdi
	call	*24(%rax)
	jmp	.L369
	.p2align 4,,10
	.p2align 3
.L396:
	movq	0(%rbp), %rax
	movq	%rbp, %rdi
	call	*16(%rax)
	cmpb	$0, __libc_single_threaded(%rip)
	je	.L380
	movl	12(%rbp), %eax
	leal	-1(%rax), %edx
	movl	%edx, 12(%rbp)
.L381:
	cmpl	$1, %eax
	jne	.L376
	movq	0(%rbp), %rax
	movq	%rbp, %rdi
	call	*24(%rax)
	jmp	.L376
	.p2align 4,,10
	.p2align 3
.L377:
	movl	$-1, %eax
	lock xaddl	%eax, 8(%rbp)
	jmp	.L378
	.p2align 4,,10
	.p2align 3
.L384:
	movl	$-1, %eax
	lock xaddl	%eax, 8(%rbp)
	jmp	.L385
	.p2align 4,,10
	.p2align 3
.L387:
	movl	$-1, %eax
	lock xaddl	%eax, 12(%rbp)
	jmp	.L388
	.p2align 4,,10
	.p2align 3
.L380:
	movl	$-1, %eax
	lock xaddl	%eax, 12(%rbp)
	jmp	.L381
.L393:
	call	__stack_chk_fail@PLT
.L391:
	endbr64
	movq	%rax, %rbp
.L389:
	movq	%r12, %rdi
	call	_ZN7TextureD1Ev
	movq	%rbp, %rdi
.LEHB8:
	call	_Unwind_Resume@PLT
.LEHE8:
	.cfi_endproc
.LFE12054:
	.section	.gcc_except_table._ZN5Apple13on_event_downER6EngineN8EngineIO10InputEventE,"aG",@progbits,_ZN5Apple13on_event_downER6EngineN8EngineIO10InputEventE,comdat
.LLSDA12054:
	.byte	0xff
	.byte	0xff
	.byte	0x1
	.uleb128 .LLSDACSE12054-.LLSDACSB12054
.LLSDACSB12054:
	.uleb128 .LEHB6-.LFB12054
	.uleb128 .LEHE6-.LEHB6
	.uleb128 0
	.uleb128 0
	.uleb128 .LEHB7-.LFB12054
	.uleb128 .LEHE7-.LEHB7
	.uleb128 .L391-.LFB12054
	.uleb128 0
	.uleb128 .LEHB8-.LFB12054
	.uleb128 .LEHE8-.LEHB8
	.uleb128 0
	.uleb128 0
.LLSDACSE12054:
	.section	.text._ZN5Apple13on_event_downER6EngineN8EngineIO10InputEventE,"axG",@progbits,_ZN5Apple13on_event_downER6EngineN8EngineIO10InputEventE,comdat
	.size	_ZN5Apple13on_event_downER6EngineN8EngineIO10InputEventE, .-_ZN5Apple13on_event_downER6EngineN8EngineIO10InputEventE
	.section	.text._ZN6EntityD2Ev,"axG",@progbits,_ZN6EntityD5Ev,comdat
	.align 2
	.p2align 4
	.weak	_ZN6EntityD2Ev
	.type	_ZN6EntityD2Ev, @function
_ZN6EntityD2Ev:
.LFB11985:
	.cfi_startproc
	endbr64
	pushq	%rbp
	.cfi_def_cfa_offset 16
	.cfi_offset 6, -16
	leaq	16+_ZTV6Entity(%rip), %rax
	pushq	%rbx
	.cfi_def_cfa_offset 24
	.cfi_offset 3, -24
	movq	%rdi, %rbx
	subq	$8, %rsp
	.cfi_def_cfa_offset 32
	movq	%rax, (%rdi)
	movq	112(%rdi), %rdi
	leaq	128(%rbx), %rax
	cmpq	%rax, %rdi
	je	.L398
	movq	128(%rbx), %rax
	leaq	1(%rax), %rsi
	call	_ZdlPvm@PLT
.L398:
	movq	80(%rbx), %rdi
	leaq	96(%rbx), %rax
	cmpq	%rax, %rdi
	je	.L399
	movq	96(%rbx), %rax
	leaq	1(%rax), %rsi
	call	_ZdlPvm@PLT
.L399:
	movq	32(%rbx), %rbp
	testq	%rbp, %rbp
	je	.L401
	cmpb	$0, __libc_single_threaded(%rip)
	je	.L402
	movl	8(%rbp), %eax
	leal	-1(%rax), %edx
	movl	%edx, 8(%rbp)
.L403:
	cmpl	$1, %eax
	je	.L415
.L401:
	movq	16(%rbx), %rbp
	testq	%rbp, %rbp
	je	.L397
	cmpb	$0, __libc_single_threaded(%rip)
	je	.L409
	movl	8(%rbp), %eax
	leal	-1(%rax), %edx
	movl	%edx, 8(%rbp)
.L410:
	cmpl	$1, %eax
	je	.L416
.L397:
	addq	$8, %rsp
	.cfi_remember_state
	.cfi_def_cfa_offset 24
	popq	%rbx
	.cfi_def_cfa_offset 16
	popq	%rbp
	.cfi_def_cfa_offset 8
	ret
	.p2align 4,,10
	.p2align 3
.L415:
	.cfi_restore_state
	movq	0(%rbp), %rax
	movq	%rbp, %rdi
	call	*16(%rax)
	cmpb	$0, __libc_single_threaded(%rip)
	je	.L405
	movl	12(%rbp), %eax
	leal	-1(%rax), %edx
	movl	%edx, 12(%rbp)
.L406:
	cmpl	$1, %eax
	jne	.L401
	movq	0(%rbp), %rax
	movq	%rbp, %rdi
	call	*24(%rax)
	jmp	.L401
	.p2align 4,,10
	.p2align 3
.L416:
	movq	0(%rbp), %rax
	movq	%rbp, %rdi
	call	*16(%rax)
	cmpb	$0, __libc_single_threaded(%rip)
	je	.L412
	movl	12(%rbp), %eax
	leal	-1(%rax), %edx
	movl	%edx, 12(%rbp)
.L413:
	cmpl	$1, %eax
	jne	.L397
	movq	0(%rbp), %rax
	movq	%rbp, %rdi
	movq	24(%rax), %rax
	addq	$8, %rsp
	.cfi_remember_state
	.cfi_def_cfa_offset 24
	popq	%rbx
	.cfi_def_cfa_offset 16
	popq	%rbp
	.cfi_def_cfa_offset 8
	jmp	*%rax
	.p2align 4,,10
	.p2align 3
.L409:
	.cfi_restore_state
	movl	$-1, %eax
	lock xaddl	%eax, 8(%rbp)
	jmp	.L410
	.p2align 4,,10
	.p2align 3
.L402:
	movl	$-1, %eax
	lock xaddl	%eax, 8(%rbp)
	jmp	.L403
	.p2align 4,,10
	.p2align 3
.L405:
	movl	$-1, %eax
	lock xaddl	%eax, 12(%rbp)
	jmp	.L406
	.p2align 4,,10
	.p2align 3
.L412:
	movl	$-1, %eax
	lock xaddl	%eax, 12(%rbp)
	jmp	.L413
	.cfi_endproc
.LFE11985:
	.size	_ZN6EntityD2Ev, .-_ZN6EntityD2Ev
	.weak	_ZN6EntityD1Ev
	.set	_ZN6EntityD1Ev,_ZN6EntityD2Ev
	.section	.text._ZN6EngineD2Ev,"axG",@progbits,_ZN6EngineD5Ev,comdat
	.align 2
	.p2align 4
	.weak	_ZN6EngineD2Ev
	.type	_ZN6EngineD2Ev, @function
_ZN6EngineD2Ev:
.LFB12164:
	.cfi_startproc
	endbr64
	pushq	%r13
	.cfi_def_cfa_offset 16
	.cfi_offset 13, -16
	pushq	%r12
	.cfi_def_cfa_offset 24
	.cfi_offset 12, -24
	pushq	%rbp
	.cfi_def_cfa_offset 32
	.cfi_offset 6, -32
	pushq	%rbx
	.cfi_def_cfa_offset 40
	.cfi_offset 3, -40
	movq	%rdi, %rbx
	subq	$8, %rsp
	.cfi_def_cfa_offset 48
	movq	168(%rdi), %r13
	movq	160(%rdi), %rbp
	cmpq	%rbp, %r13
	jne	.L426
	jmp	.L418
	.p2align 4,,10
	.p2align 3
.L420:
	addq	$16, %rbp
	cmpq	%rbp, %r13
	je	.L473
.L426:
	movq	8(%rbp), %r12
	testq	%r12, %r12
	je	.L420
	cmpb	$0, __libc_single_threaded(%rip)
	je	.L421
	movl	8(%r12), %eax
	leal	-1(%rax), %edx
	movl	%edx, 8(%r12)
.L422:
	cmpl	$1, %eax
	jne	.L420
	movq	(%r12), %rax
	movq	%r12, %rdi
	call	*16(%rax)
	cmpb	$0, __libc_single_threaded(%rip)
	je	.L424
	movl	12(%r12), %eax
	leal	-1(%rax), %edx
	movl	%edx, 12(%r12)
.L425:
	cmpl	$1, %eax
	jne	.L420
	movq	(%r12), %rax
	addq	$16, %rbp
	movq	%r12, %rdi
	call	*24(%rax)
	cmpq	%rbp, %r13
	jne	.L426
	.p2align 4,,10
	.p2align 3
.L473:
	movq	160(%rbx), %rbp
.L418:
	testq	%rbp, %rbp
	je	.L427
	movq	176(%rbx), %rsi
	movq	%rbp, %rdi
	subq	%rbp, %rsi
	call	_ZdlPvm@PLT
.L427:
	movq	48(%rbx), %rbp
	testq	%rbp, %rbp
	jne	.L428
	jmp	.L447
	.p2align 4,,10
	.p2align 3
.L432:
	movq	48(%rbp), %r12
	testq	%r12, %r12
	je	.L439
	cmpb	$0, __libc_single_threaded(%rip)
	je	.L440
	movl	8(%r12), %eax
	leal	-1(%rax), %edx
	movl	%edx, 8(%r12)
.L441:
	cmpl	$1, %eax
	je	.L474
.L439:
	movq	8(%rbp), %rdi
	leaq	24(%rbp), %rax
	cmpq	%rax, %rdi
	je	.L445
	movq	24(%rbp), %rax
	leaq	1(%rax), %rsi
	call	_ZdlPvm@PLT
.L445:
	movl	$88, %esi
	movq	%rbp, %rdi
	call	_ZdlPvm@PLT
	testq	%r13, %r13
	je	.L447
	movq	%r13, %rbp
.L428:
	movq	64(%rbp), %r12
	movq	0(%rbp), %r13
	testq	%r12, %r12
	je	.L432
	cmpb	$0, __libc_single_threaded(%rip)
	je	.L433
	movl	8(%r12), %eax
	leal	-1(%rax), %edx
	movl	%edx, 8(%r12)
.L434:
	cmpl	$1, %eax
	jne	.L432
	movq	(%r12), %rax
	movq	%r12, %rdi
	call	*16(%rax)
	cmpb	$0, __libc_single_threaded(%rip)
	je	.L436
	movl	12(%r12), %eax
	leal	-1(%rax), %edx
	movl	%edx, 12(%r12)
.L437:
	cmpl	$1, %eax
	jne	.L432
	movq	(%r12), %rax
	movq	%r12, %rdi
	call	*24(%rax)
	jmp	.L432
	.p2align 4,,10
	.p2align 3
.L421:
	movl	$-1, %eax
	lock xaddl	%eax, 8(%r12)
	jmp	.L422
	.p2align 4,,10
	.p2align 3
.L474:
	movq	(%r12), %rax
	movq	%r12, %rdi
	call	*16(%rax)
	cmpb	$0, __libc_single_threaded(%rip)
	je	.L443
	movl	12(%r12), %eax
	leal	-1(%rax), %edx
	movl	%edx, 12(%r12)
.L444:
	cmpl	$1, %eax
	jne	.L439
	movq	(%r12), %rax
	movq	%r12, %rdi
	call	*24(%rax)
	jmp	.L439
	.p2align 4,,10
	.p2align 3
.L433:
	movl	$-1, %eax
	lock xaddl	%eax, 8(%r12)
	jmp	.L434
	.p2align 4,,10
	.p2align 3
.L440:
	movl	$-1, %eax
	lock xaddl	%eax, 8(%r12)
	jmp	.L441
	.p2align 4,,10
	.p2align 3
.L447:
	movq	40(%rbx), %rax
	movq	32(%rbx), %rdi
	xorl	%esi, %esi
	leaq	0(,%rax,8), %rdx
	call	memset@PLT
	movq	32(%rbx), %rdi
	leaq	80(%rbx), %rax
	movq	$0, 56(%rbx)
	movq	$0, 48(%rbx)
	movq	40(%rbx), %rsi
	cmpq	%rax, %rdi
	je	.L429
	salq	$3, %rsi
	call	_ZdlPvm@PLT
.L429:
	movq	24(%rbx), %rbp
	testq	%rbp, %rbp
	je	.L449
	cmpb	$0, __libc_single_threaded(%rip)
	je	.L450
	movl	8(%rbp), %eax
	leal	-1(%rax), %edx
	movl	%edx, 8(%rbp)
.L451:
	cmpl	$1, %eax
	je	.L475
.L449:
	movq	8(%rbx), %rbp
	testq	%rbp, %rbp
	je	.L417
	cmpb	$0, __libc_single_threaded(%rip)
	je	.L457
	movl	8(%rbp), %eax
	leal	-1(%rax), %edx
	movl	%edx, 8(%rbp)
.L458:
	cmpl	$1, %eax
	je	.L476
.L417:
	addq	$8, %rsp
	.cfi_remember_state
	.cfi_def_cfa_offset 40
	popq	%rbx
	.cfi_def_cfa_offset 32
	popq	%rbp
	.cfi_def_cfa_offset 24
	popq	%r12
	.cfi_def_cfa_offset 16
	popq	%r13
	.cfi_def_cfa_offset 8
	ret
	.p2align 4,,10
	.p2align 3
.L424:
	.cfi_restore_state
	movl	$-1, %eax
	lock xaddl	%eax, 12(%r12)
	jmp	.L425
	.p2align 4,,10
	.p2align 3
.L443:
	movl	$-1, %eax
	lock xaddl	%eax, 12(%r12)
	jmp	.L444
	.p2align 4,,10
	.p2align 3
.L436:
	movl	$-1, %eax
	lock xaddl	%eax, 12(%r12)
	jmp	.L437
	.p2align 4,,10
	.p2align 3
.L475:
	movq	0(%rbp), %rax
	movq	%rbp, %rdi
	call	*16(%rax)
	cmpb	$0, __libc_single_threaded(%rip)
	je	.L453
	movl	12(%rbp), %eax
	leal	-1(%rax), %edx
	movl	%edx, 12(%rbp)
.L454:
	cmpl	$1, %eax
	jne	.L449
	movq	0(%rbp), %rax
	movq	%rbp, %rdi
	call	*24(%rax)
	jmp	.L449
	.p2align 4,,10
	.p2align 3
.L476:
	movq	0(%rbp), %rax
	movq	%rbp, %rdi
	call	*16(%rax)
	cmpb	$0, __libc_single_threaded(%rip)
	je	.L460
	movl	12(%rbp), %eax
	leal	-1(%rax), %edx
	movl	%edx, 12(%rbp)
.L461:
	cmpl	$1, %eax
	jne	.L417
	movq	0(%rbp), %rax
	movq	%rbp, %rdi
	movq	24(%rax), %rax
	addq	$8, %rsp
	.cfi_remember_state
	.cfi_def_cfa_offset 40
	popq	%rbx
	.cfi_def_cfa_offset 32
	popq	%rbp
	.cfi_def_cfa_offset 24
	popq	%r12
	.cfi_def_cfa_offset 16
	popq	%r13
	.cfi_def_cfa_offset 8
	jmp	*%rax
	.p2align 4,,10
	.p2align 3
.L457:
	.cfi_restore_state
	movl	$-1, %eax
	lock xaddl	%eax, 8(%rbp)
	jmp	.L458
	.p2align 4,,10
	.p2align 3
.L450:
	movl	$-1, %eax
	lock xaddl	%eax, 8(%rbp)
	jmp	.L451
.L453:
	movl	$-1, %eax
	lock xaddl	%eax, 12(%rbp)
	jmp	.L454
.L460:
	movl	$-1, %eax
	lock xaddl	%eax, 12(%rbp)
	jmp	.L461
	.cfi_endproc
.LFE12164:
	.size	_ZN6EngineD2Ev, .-_ZN6EngineD2Ev
	.weak	_ZN6EngineD1Ev
	.set	_ZN6EngineD1Ev,_ZN6EngineD2Ev
	.section	.text._ZNSt6vectorISt10shared_ptrI6EntityESaIS2_EED2Ev,"axG",@progbits,_ZNSt6vectorISt10shared_ptrI6EntityESaIS2_EED5Ev,comdat
	.align 2
	.p2align 4
	.weak	_ZNSt6vectorISt10shared_ptrI6EntityESaIS2_EED2Ev
	.type	_ZNSt6vectorISt10shared_ptrI6EntityESaIS2_EED2Ev, @function
_ZNSt6vectorISt10shared_ptrI6EntityESaIS2_EED2Ev:
.LFB12605:
	.cfi_startproc
	endbr64
	pushq	%r13
	.cfi_def_cfa_offset 16
	.cfi_offset 13, -16
	movq	%rdi, %r13
	pushq	%r12
	.cfi_def_cfa_offset 24
	.cfi_offset 12, -24
	pushq	%rbp
	.cfi_def_cfa_offset 32
	.cfi_offset 6, -32
	pushq	%rbx
	.cfi_def_cfa_offset 40
	.cfi_offset 3, -40
	subq	$8, %rsp
	.cfi_def_cfa_offset 48
	movq	8(%rdi), %rbx
	movq	(%rdi), %rbp
	cmpq	%rbp, %rbx
	jne	.L486
	jmp	.L478
	.p2align 4,,10
	.p2align 3
.L480:
	addq	$16, %rbp
	cmpq	%rbp, %rbx
	je	.L490
.L486:
	movq	8(%rbp), %r12
	testq	%r12, %r12
	je	.L480
	cmpb	$0, __libc_single_threaded(%rip)
	je	.L481
	movl	8(%r12), %eax
	leal	-1(%rax), %edx
	movl	%edx, 8(%r12)
.L482:
	cmpl	$1, %eax
	jne	.L480
	movq	(%r12), %rax
	movq	%r12, %rdi
	call	*16(%rax)
	cmpb	$0, __libc_single_threaded(%rip)
	je	.L484
	movl	12(%r12), %eax
	leal	-1(%rax), %edx
	movl	%edx, 12(%r12)
.L485:
	cmpl	$1, %eax
	jne	.L480
	movq	(%r12), %rax
	addq	$16, %rbp
	movq	%r12, %rdi
	call	*24(%rax)
	cmpq	%rbp, %rbx
	jne	.L486
	.p2align 4,,10
	.p2align 3
.L490:
	movq	0(%r13), %rbp
.L478:
	testq	%rbp, %rbp
	je	.L477
	movq	16(%r13), %rsi
	addq	$8, %rsp
	.cfi_remember_state
	.cfi_def_cfa_offset 40
	movq	%rbp, %rdi
	popq	%rbx
	.cfi_def_cfa_offset 32
	subq	%rbp, %rsi
	popq	%rbp
	.cfi_def_cfa_offset 24
	popq	%r12
	.cfi_def_cfa_offset 16
	popq	%r13
	.cfi_def_cfa_offset 8
	jmp	_ZdlPvm@PLT
	.p2align 4,,10
	.p2align 3
.L481:
	.cfi_restore_state
	movl	$-1, %eax
	lock xaddl	%eax, 8(%r12)
	jmp	.L482
	.p2align 4,,10
	.p2align 3
.L484:
	movl	$-1, %eax
	lock xaddl	%eax, 12(%r12)
	jmp	.L485
	.p2align 4,,10
	.p2align 3
.L477:
	addq	$8, %rsp
	.cfi_def_cfa_offset 40
	popq	%rbx
	.cfi_def_cfa_offset 32
	popq	%rbp
	.cfi_def_cfa_offset 24
	popq	%r12
	.cfi_def_cfa_offset 16
	popq	%r13
	.cfi_def_cfa_offset 8
	ret
	.cfi_endproc
.LFE12605:
	.size	_ZNSt6vectorISt10shared_ptrI6EntityESaIS2_EED2Ev, .-_ZNSt6vectorISt10shared_ptrI6EntityESaIS2_EED2Ev
	.weak	_ZNSt6vectorISt10shared_ptrI6EntityESaIS2_EED1Ev
	.set	_ZNSt6vectorISt10shared_ptrI6EntityESaIS2_EED1Ev,_ZNSt6vectorISt10shared_ptrI6EntityESaIS2_EED2Ev
	.section	.text._ZN16Geralt_eats_gameC2Ev,"axG",@progbits,_ZN16Geralt_eats_gameC5Ev,comdat
	.align 2
	.p2align 4
	.weak	_ZN16Geralt_eats_gameC2Ev
	.type	_ZN16Geralt_eats_gameC2Ev, @function
_ZN16Geralt_eats_gameC2Ev:
.LFB12113:
	.cfi_startproc
	endbr64
	movabsq	$7304685129458410823, %rdx
	subq	$56, %rsp
	.cfi_def_cfa_offset 64
	movq	%fs:40, %rax
	movq	%rax, 40(%rsp)
	xorl	%eax, %eax
	movl	$29793, %eax
	movq	%rdx, 16(%rsp)
	movw	%ax, 24(%rsp)
	leaq	48(%rdi), %rax
	movq	%rax, 32(%rdi)
	leaq	16+_ZTV16Geralt_eats_game(%rip), %rax
	movq	%rax, (%rdi)
	movq	.LC8(%rip), %rax
	movq	%rdx, 48(%rdi)
	movl	$29793, %edx
	movb	$115, 26(%rsp)
	movq	$0, 8(%rdi)
	movq	$0, 16(%rdi)
	movq	$0, 24(%rdi)
	movw	%dx, 56(%rdi)
	movb	$115, 58(%rdi)
	movq	$11, 40(%rdi)
	movb	$0, 59(%rdi)
	movq	%rax, 64(%rdi)
	movq	40(%rsp), %rax
	subq	%fs:40, %rax
	jne	.L494
	addq	$56, %rsp
	.cfi_remember_state
	.cfi_def_cfa_offset 8
	ret
.L494:
	.cfi_restore_state
	call	__stack_chk_fail@PLT
	.cfi_endproc
.LFE12113:
	.size	_ZN16Geralt_eats_gameC2Ev, .-_ZN16Geralt_eats_gameC2Ev
	.weak	_ZN16Geralt_eats_gameC1Ev
	.set	_ZN16Geralt_eats_gameC1Ev,_ZN16Geralt_eats_gameC2Ev
	.section	.rodata.str1.1,"aMS",@progbits,1
.LC9:
	.string	"Error: "
	.section	.text.unlikely,"ax",@progbits
.LCOLDB10:
	.section	.text.startup,"ax",@progbits
.LHOTB10:
	.p2align 4
	.globl	main
	.type	main, @function
main:
.LFB12150:
	.cfi_startproc
	.cfi_personality 0x9b,DW.ref.__gxx_personality_v0
	.cfi_lsda 0x1b,.LLSDA12150
	endbr64
	pushq	%r12
	.cfi_def_cfa_offset 16
	.cfi_offset 12, -16
	movl	$72, %edi
	pushq	%rbp
	.cfi_def_cfa_offset 24
	.cfi_offset 6, -24
	pushq	%rbx
	.cfi_def_cfa_offset 32
	.cfi_offset 3, -32
	subq	$208, %rsp
	.cfi_def_cfa_offset 240
	movq	%fs:40, %rax
	movq	%rax, 200(%rsp)
	xorl	%eax, %eax
.LEHB9:
	call	_Znwm@PLT
	movq	%rax, %rbp
	movq	%rax, %rdi
	movq	%rsp, %r12
	call	_ZN16Geralt_eats_gameC1Ev
	movq	%rbp, %rsi
	movq	%r12, %rdi
	call	_ZN6EngineC1EP4Game@PLT
.LEHE9:
	movq	%r12, %rdi
.LEHB10:
	call	_ZN6Engine5startEv@PLT
.LEHE10:
	movq	%r12, %rdi
	call	_ZN6EngineD1Ev
.L499:
	movq	200(%rsp), %rax
	subq	%fs:40, %rax
	jne	.L507
	addq	$208, %rsp
	.cfi_remember_state
	.cfi_def_cfa_offset 32
	xorl	%eax, %eax
	popq	%rbx
	.cfi_def_cfa_offset 24
	popq	%rbp
	.cfi_def_cfa_offset 16
	popq	%r12
	.cfi_def_cfa_offset 8
	ret
.L507:
	.cfi_restore_state
	call	__stack_chk_fail@PLT
.L503:
	endbr64
	movq	%rax, %rbp
	movq	%rdx, %rbx
	jmp	.L496
.L502:
	endbr64
	movq	%rax, %rdi
	movq	%rdx, %rax
	jmp	.L497
	.section	.gcc_except_table,"a",@progbits
	.align 4
.LLSDA12150:
	.byte	0xff
	.byte	0x9b
	.uleb128 .LLSDATT12150-.LLSDATTD12150
.LLSDATTD12150:
	.byte	0x1
	.uleb128 .LLSDACSE12150-.LLSDACSB12150
.LLSDACSB12150:
	.uleb128 .LEHB9-.LFB12150
	.uleb128 .LEHE9-.LEHB9
	.uleb128 .L502-.LFB12150
	.uleb128 0x1
	.uleb128 .LEHB10-.LFB12150
	.uleb128 .LEHE10-.LEHB10
	.uleb128 .L503-.LFB12150
	.uleb128 0x3
.LLSDACSE12150:
	.byte	0x1
	.byte	0
	.byte	0
	.byte	0x7d
	.align 4
	.long	DW.ref._ZTISt9exception-.
.LLSDATT12150:
	.section	.text.startup
	.cfi_endproc
	.section	.text.unlikely
	.cfi_startproc
	.cfi_personality 0x9b,DW.ref.__gxx_personality_v0
	.cfi_lsda 0x1b,.LLSDAC12150
	.type	main.cold, @function
main.cold:
.LFSB12150:
.L496:
	.cfi_def_cfa_offset 240
	.cfi_offset 3, -32
	.cfi_offset 6, -24
	.cfi_offset 12, -16
	movq	%r12, %rdi
	call	_ZN6EngineD1Ev
	movq	%rbp, %rdi
	movq	%rbx, %rax
.L497:
	subq	$1, %rax
	jne	.L508
	call	__cxa_begin_catch@PLT
	leaq	_ZSt4cout(%rip), %r12
	movl	$7, %edx
	leaq	.LC9(%rip), %rsi
	movq	%r12, %rdi
	movq	%rax, %rbp
.LEHB11:
	call	_ZSt16__ostream_insertIcSt11char_traitsIcEERSt13basic_ostreamIT_T0_ES6_PKS3_l@PLT
	movq	0(%rbp), %rax
	movq	%rbp, %rdi
	call	*16(%rax)
	movq	%r12, %rdi
	movq	%rax, %rsi
	call	_ZStlsISt11char_traitsIcEERSt13basic_ostreamIcT_ES5_PKc@PLT
	movq	%rax, %rdi
	movq	%rsp, %rsi
	movl	$1, %edx
	movb	$10, (%rsp)
	call	_ZSt16__ostream_insertIcSt11char_traitsIcEERSt13basic_ostreamIT_T0_ES6_PKS3_l@PLT
.LEHE11:
	call	__cxa_end_catch@PLT
	jmp	.L499
.L508:
.LEHB12:
	call	_Unwind_Resume@PLT
.L504:
	endbr64
	movq	%rax, %rbp
	call	__cxa_end_catch@PLT
	movq	%rbp, %rdi
	call	_Unwind_Resume@PLT
.LEHE12:
	.cfi_endproc
.LFE12150:
	.section	.gcc_except_table
	.align 4
.LLSDAC12150:
	.byte	0xff
	.byte	0x9b
	.uleb128 .LLSDATTC12150-.LLSDATTDC12150
.LLSDATTDC12150:
	.byte	0x1
	.uleb128 .LLSDACSEC12150-.LLSDACSBC12150
.LLSDACSBC12150:
	.uleb128 .LEHB11-.LCOLDB10
	.uleb128 .LEHE11-.LEHB11
	.uleb128 .L504-.LCOLDB10
	.uleb128 0
	.uleb128 .LEHB12-.LCOLDB10
	.uleb128 .LEHE12-.LEHB12
	.uleb128 0
	.uleb128 0
.LLSDACSEC12150:
	.byte	0x1
	.byte	0
	.byte	0
	.byte	0x7d
	.align 4
	.long	DW.ref._ZTISt9exception-.
.LLSDATTC12150:
	.section	.text.unlikely
	.section	.text.startup
	.size	main, .-main
	.section	.text.unlikely
	.size	main.cold, .-main.cold
.LCOLDE10:
	.section	.text.startup
.LHOTE10:
	.section	.text._ZNSt16_Sp_counted_baseILN9__gnu_cxx12_Lock_policyE2EE10_M_releaseEv,"axG",@progbits,_ZNSt16_Sp_counted_baseILN9__gnu_cxx12_Lock_policyE2EE10_M_releaseEv,comdat
	.align 2
	.p2align 4
	.weak	_ZNSt16_Sp_counted_baseILN9__gnu_cxx12_Lock_policyE2EE10_M_releaseEv
	.type	_ZNSt16_Sp_counted_baseILN9__gnu_cxx12_Lock_policyE2EE10_M_releaseEv, @function
_ZNSt16_Sp_counted_baseILN9__gnu_cxx12_Lock_policyE2EE10_M_releaseEv:
.LFB12843:
	.cfi_startproc
	endbr64
	cmpb	$0, __libc_single_threaded(%rip)
	pushq	%rbp
	.cfi_def_cfa_offset 16
	.cfi_offset 6, -16
	movq	%rdi, %rbp
	je	.L510
	movl	8(%rdi), %eax
	leal	-1(%rax), %edx
	movl	%edx, 8(%rdi)
.L511:
	cmpl	$1, %eax
	je	.L518
.L509:
	popq	%rbp
	.cfi_remember_state
	.cfi_def_cfa_offset 8
	ret
	.p2align 4,,10
	.p2align 3
.L518:
	.cfi_restore_state
	movq	0(%rbp), %rax
	movq	%rbp, %rdi
	call	*16(%rax)
	cmpb	$0, __libc_single_threaded(%rip)
	je	.L514
	movl	12(%rbp), %eax
	leal	-1(%rax), %edx
	movl	%edx, 12(%rbp)
.L515:
	cmpl	$1, %eax
	jne	.L509
	movq	0(%rbp), %rax
	movq	%rbp, %rdi
	popq	%rbp
	.cfi_remember_state
	.cfi_def_cfa_offset 8
	movq	24(%rax), %rax
	jmp	*%rax
	.p2align 4,,10
	.p2align 3
.L510:
	.cfi_restore_state
	movl	$-1, %eax
	lock xaddl	%eax, 8(%rdi)
	jmp	.L511
	.p2align 4,,10
	.p2align 3
.L514:
	movl	$-1, %eax
	lock xaddl	%eax, 12(%rbp)
	jmp	.L515
	.cfi_endproc
.LFE12843:
	.size	_ZNSt16_Sp_counted_baseILN9__gnu_cxx12_Lock_policyE2EE10_M_releaseEv, .-_ZNSt16_Sp_counted_baseILN9__gnu_cxx12_Lock_policyE2EE10_M_releaseEv
	.section	.rodata._ZN12Lemming_hero15update_positionER6Engine.str1.1,"aMS",@progbits,1
.LC14:
	.string	"Grounded with min:"
.LC15:
	.string	", max: "
	.section	.text._ZN12Lemming_hero15update_positionER6Engine,"axG",@progbits,_ZN12Lemming_hero15update_positionER6Engine,comdat
	.align 2
	.p2align 4
	.weak	_ZN12Lemming_hero15update_positionER6Engine
	.type	_ZN12Lemming_hero15update_positionER6Engine, @function
_ZN12Lemming_hero15update_positionER6Engine:
.LFB12100:
	.cfi_startproc
	.cfi_personality 0x9b,DW.ref.__gxx_personality_v0
	.cfi_lsda 0x1b,.LLSDA12100
	endbr64
	pushq	%rbp
	.cfi_def_cfa_offset 16
	.cfi_offset 6, -16
	movq	%rsp, %rbp
	.cfi_def_cfa_register 6
	pushq	%r15
	pushq	%r14
	.cfi_offset 15, -24
	.cfi_offset 14, -32
	movq	%rsi, %r14
	pushq	%r13
	.cfi_offset 13, -40
	leaq	-80(%rbp), %r13
	pushq	%r12
	.cfi_offset 12, -48
	leaq	-144(%rbp), %r12
	pushq	%rbx
	.cfi_offset 3, -56
	movq	%rdi, %rbx
	movq	%r12, %rdx
	movq	%rbx, %rsi
	subq	$168, %rsp
	movq	%fs:40, %rax
	movq	%rax, -56(%rbp)
	xorl	%eax, %eax
	movq	160(%rdi), %rax
	leaq	-176(%rbp), %rdi
	movq	%rax, -144(%rbp)
.LEHB13:
	call	_ZNK6Entity14local_to_worldE6Point2IfE@PLT
.LEHE13:
	movaps	.LC12(%rip), %xmm0
	movl	$31076, %ecx
	movq	%rbx, %rdi
	movq	-176(%rbp), %rax
	movb	$0, -104(%rbp)
	movups	%xmm0, -136(%rbp)
	movaps	.LC13(%rip), %xmm0
	movq	%rax, -144(%rbp)
	movabsq	$8026082370797398354, %rax
	movups	%xmm0, -120(%rbp)
	pxor	%xmm0, %xmm0
	movq	%r13, -96(%rbp)
	movq	%rax, -80(%rbp)
	movw	%cx, -72(%rbp)
	movq	$10, -88(%rbp)
	movb	$0, -70(%rbp)
	movaps	%xmm0, -160(%rbp)
.LEHB14:
	call	_ZNK6Entity13get_entity_idEv@PLT
	movl	%eax, %edx
	subq	$8, %rsp
	leaq	-160(%rbp), %rax
	movq	%r12, %rsi
	pushq	%rax
	leaq	-96(%rbp), %rcx
	leaq	-180(%rbp), %r9
	movq	%r14, %rdi
	leaq	-184(%rbp), %r8
	.cfi_escape 0x2e,0x10
	call	_ZN6Engine12intesect_rayER3RayiRKNSt7__cxx1112basic_stringIcSt11char_traitsIcESaIcEEERfSA_RSt10shared_ptrI6EntityE@PLT
.LEHE14:
	movq	-96(%rbp), %rdi
	movl	%eax, %r12d
	movq	%r14, %r15
	popq	%rax
	popq	%rdx
	cmpq	%r13, %rdi
	je	.L520
	movq	-80(%rbp), %rax
	leaq	1(%rax), %rsi
	call	_ZdlPvm@PLT
.L520:
	movl	-180(%rbp), %r13d
	testb	%r12b, %r12b
	jne	.L645
.L578:
	movq	-152(%rbp), %r13
	xorl	%r12d, %r12d
	testq	%r13, %r13
	je	.L638
	cmpb	$0, __libc_single_threaded(%rip)
	je	.L528
.L655:
	movl	8(%r13), %eax
	leal	-1(%rax), %edx
	movl	%edx, 8(%r13)
	cmpl	$1, %eax
	je	.L646
.L531:
	testb	%r12b, %r12b
	je	.L638
.L527:
	movl	$1, 548(%rbx)
	movl	$1, %r12d
	movb	$1, 200(%rbx)
.L541:
	pxor	%xmm0, %xmm0
	movss	156(%rbx), %xmm2
	pxor	%xmm1, %xmm1
	movss	.LC20(%rip), %xmm3
	cvtsi2sdl	552(%rbx), %xmm0
	mulsd	.LC0(%rip), %xmm0
	movss	%xmm3, 148(%rbx)
	cvtsd2ss	%xmm0, %xmm1
	pxor	%xmm0, %xmm0
	movaps	%xmm1, %xmm5
	movss	%xmm1, -200(%rbp)
	comiss	%xmm0, %xmm2
	movss	%xmm1, 144(%rbx)
	jbe	.L551
	mulss	%xmm1, %xmm1
	addss	.LC19(%rip), %xmm1
	comiss	152(%rbx), %xmm1
	ja	.L647
.L551:
	testb	%r12b, %r12b
	je	.L547
	comiss	148(%rbx), %xmm0
	jb	.L648
.L547:
	movq	%r15, %rdi
.LEHB15:
	call	_ZNK6Engine16is_up_arrow_downEv@PLT
	testb	%al, %al
	je	.L558
	cmpb	$0, 200(%rbx)
	jne	.L649
.L558:
	movq	%r15, %rdi
	call	_ZNK6Engine18is_down_arrow_downEv@PLT
	movq	%r15, %rdi
	call	_ZNK6Engine18is_left_arrow_downEv@PLT
	testb	%al, %al
	je	.L562
	movl	$-1, 552(%rbx)
.L562:
	movq	%r15, %rdi
	call	_ZNK6Engine19is_right_arrow_downEv@PLT
	testb	%al, %al
	je	.L563
	movl	$1, 552(%rbx)
.L563:
	movq	%r15, %rdi
	call	_ZNK6Engine19is_right_arrow_downEv@PLT
	testb	%al, %al
	jne	.L650
.L565:
	movq	%r15, %rdi
	call	_ZNK6Engine19is_right_arrow_downEv@PLT
	testb	%al, %al
	je	.L651
.L568:
	movq	%r15, %rdi
	call	_ZN6Engine14get_delta_timeEv@PLT
.LEHE15:
	cmpb	$0, 192(%rbx)
	movss	144(%rbx), %xmm1
	movapd	%xmm0, %xmm3
	jne	.L570
	movss	148(%rbx), %xmm0
.L571:
	cvtss2sd	%xmm1, %xmm1
	mulsd	%xmm3, %xmm1
	cvtss2sd	%xmm0, %xmm0
	pxor	%xmm2, %xmm2
	mulsd	%xmm3, %xmm0
	cvtss2sd	60(%rbx), %xmm2
	addsd	%xmm1, %xmm2
	pxor	%xmm1, %xmm1
	cvtss2sd	64(%rbx), %xmm1
	addsd	%xmm0, %xmm1
	cvtsd2ss	%xmm2, %xmm2
	movss	%xmm2, 60(%rbx)
	cvtsd2ss	%xmm1, %xmm1
	movss	%xmm1, 64(%rbx)
	movq	-56(%rbp), %rax
	subq	%fs:40, %rax
	jne	.L652
	leaq	-40(%rbp), %rsp
	popq	%rbx
	popq	%r12
	popq	%r13
	popq	%r14
	popq	%r15
	popq	%rbp
	.cfi_remember_state
	.cfi_def_cfa 7, 8
	ret
	.p2align 4,,10
	.p2align 3
.L638:
	.cfi_restore_state
	movl	548(%rbx), %eax
	movb	$0, 200(%rbx)
	cmpl	$2, %eax
	jne	.L653
	movss	156(%rbx), %xmm1
	pxor	%xmm0, %xmm0
	movq	.LC16(%rip), %rax
	comiss	%xmm0, %xmm1
	movq	%rax, 144(%rbx)
	jbe	.L548
	movss	.LC17(%rip), %xmm2
	comiss	152(%rbx), %xmm2
	ja	.L642
	.p2align 4,,10
	.p2align 3
.L548:
	movss	%xmm0, -200(%rbp)
	jmp	.L547
	.p2align 4,,10
	.p2align 3
.L645:
	movq	-176(%rbp), %rax
	movq	-160(%rbp), %rdi
	leaq	-168(%rbp), %rsi
	movq	%rax, -168(%rbp)
.LEHB16:
	.cfi_escape 0x2e,0
	call	_ZNK6Entity8containsE6Point2IfE@PLT
	testb	%al, %al
	je	.L522
	pxor	%xmm7, %xmm7
	movsd	%xmm7, -200(%rbp)
.L577:
	leaq	_ZSt4cout(%rip), %r13
	movl	$18, %edx
	leaq	.LC14(%rip), %rsi
	movq	%r13, %rdi
	call	_ZSt16__ostream_insertIcSt11char_traitsIcEERSt13basic_ostreamIT_T0_ES6_PKS3_l@PLT
	movsd	-200(%rbp), %xmm0
	movq	%r13, %rdi
	call	_ZNSo9_M_insertIdEERSoT_@PLT
	movl	$7, %edx
	leaq	.LC15(%rip), %rsi
	movq	%rax, %rdi
	movq	%rax, %r13
	call	_ZSt16__ostream_insertIcSt11char_traitsIcEERSt13basic_ostreamIT_T0_ES6_PKS3_l@PLT
	pxor	%xmm0, %xmm0
	movq	%r13, %rdi
	cvtss2sd	-180(%rbp), %xmm0
	call	_ZNSo9_M_insertIdEERSoT_@PLT
	movq	%rax, %r13
	movq	(%rax), %rax
	movq	-24(%rax), %rax
	movq	240(%r13,%rax), %r14
	testq	%r14, %r14
	je	.L654
	cmpb	$0, 56(%r14)
	je	.L524
	movsbl	67(%r14), %esi
.L525:
	movq	%r13, %rdi
	call	_ZNSo3putEc@PLT
	movq	%rax, %rdi
	call	_ZNSo5flushEv@PLT
.LEHE16:
	movq	-152(%rbp), %r13
	testq	%r13, %r13
	je	.L527
	cmpb	$0, __libc_single_threaded(%rip)
	jne	.L655
	jmp	.L528
	.p2align 4,,10
	.p2align 3
.L522:
	movsd	.LC23(%rip), %xmm0
	movd	%r13d, %xmm7
	pxor	%xmm6, %xmm6
	cvtss2sd	%xmm7, %xmm6
	movsd	%xmm6, -200(%rbp)
	comisd	%xmm6, %xmm0
	jbe	.L578
	jmp	.L577
	.p2align 4,,10
	.p2align 3
.L570:
	cvtsd2ss	%xmm0, %xmm0
	mulss	196(%rbx), %xmm0
	movss	156(%rbx), %xmm4
	addss	148(%rbx), %xmm0
	comiss	.LC3(%rip), %xmm4
	movss	%xmm0, 148(%rbx)
	jbe	.L571
	movaps	%xmm0, %xmm5
	movaps	%xmm1, %xmm2
	mulss	%xmm0, %xmm5
	mulss	%xmm1, %xmm2
	addss	%xmm5, %xmm2
	comiss	152(%rbx), %xmm2
	jbe	.L571
	mulss	%xmm4, %xmm0
	movaps	%xmm2, %xmm5
	mulss	%xmm1, %xmm4
	rsqrtss	%xmm5, %xmm5
	mulss	%xmm5, %xmm2
	mulss	%xmm5, %xmm2
	mulss	.LC5(%rip), %xmm5
	addss	.LC4(%rip), %xmm2
	mulss	%xmm5, %xmm2
	mulss	%xmm2, %xmm4
	mulss	%xmm2, %xmm0
	movaps	%xmm4, %xmm1
	movss	%xmm4, 144(%rbx)
	movss	%xmm0, 148(%rbx)
	jmp	.L571
	.p2align 4,,10
	.p2align 3
.L651:
	movq	%r15, %rdi
.LEHB17:
	call	_ZNK6Engine18is_left_arrow_downEv@PLT
	testb	%al, %al
	jne	.L568
	movl	$0, 552(%rbx)
	jmp	.L568
	.p2align 4,,10
	.p2align 3
.L650:
	movq	%r15, %rdi
	call	_ZNK6Engine18is_left_arrow_downEv@PLT
.LEHE17:
	testb	%al, %al
	je	.L565
	movl	$0, 552(%rbx)
	jmp	.L565
	.p2align 4,,10
	.p2align 3
.L648:
	movl	$0x00000000, 148(%rbx)
	comiss	%xmm0, %xmm2
	jbe	.L547
	movss	-200(%rbp), %xmm4
	movaps	%xmm4, %xmm0
	mulss	%xmm4, %xmm0
	comiss	152(%rbx), %xmm0
	jbe	.L547
	mulss	%xmm4, %xmm2
	movaps	%xmm0, %xmm1
	rsqrtss	%xmm1, %xmm1
	mulss	%xmm1, %xmm0
	mulss	%xmm1, %xmm0
	mulss	.LC5(%rip), %xmm1
	addss	.LC4(%rip), %xmm0
	mulss	%xmm1, %xmm0
	mulss	%xmm0, %xmm2
	movss	%xmm2, -200(%rbp)
	movss	%xmm2, 144(%rbx)
	jmp	.L547
	.p2align 4,,10
	.p2align 3
.L528:
	movl	$-1, %eax
	lock xaddl	%eax, 8(%r13)
	cmpl	$1, %eax
	jne	.L531
.L646:
	movq	0(%r13), %rax
	movq	%r13, %rdi
	call	*16(%rax)
	cmpb	$0, __libc_single_threaded(%rip)
	je	.L532
	movl	12(%r13), %eax
	leal	-1(%rax), %edx
	movl	%edx, 12(%r13)
.L533:
	cmpl	$1, %eax
	jne	.L531
	movq	0(%r13), %rax
	movq	%r13, %rdi
	call	*24(%rax)
	jmp	.L531
	.p2align 4,,10
	.p2align 3
.L524:
	movq	%r14, %rdi
.LEHB18:
	call	_ZNKSt5ctypeIcE13_M_widen_initEv@PLT
	movq	(%r14), %rax
	leaq	_ZNKSt5ctypeIcE8do_widenEc(%rip), %rdx
	movl	$10, %esi
	movq	48(%rax), %rax
	cmpq	%rdx, %rax
	je	.L525
	movq	%r14, %rdi
	call	*%rax
	movsbl	%al, %esi
	jmp	.L525
	.p2align 4,,10
	.p2align 3
.L542:
	movss	156(%rbx), %xmm1
	pxor	%xmm0, %xmm0
	movq	.LC18(%rip), %rax
	comiss	%xmm0, %xmm1
	movq	%rax, 144(%rbx)
	jbe	.L548
	movss	.LC19(%rip), %xmm2
	comiss	152(%rbx), %xmm2
	jbe	.L548
.L642:
	movss	%xmm1, 148(%rbx)
	jmp	.L548
	.p2align 4,,10
	.p2align 3
.L649:
	movss	156(%rbx), %xmm2
	comiss	.LC3(%rip), %xmm2
	movl	$0xbf800000, 148(%rbx)
	movss	-200(%rbp), %xmm7
	movaps	%xmm7, %xmm0
	movss	%xmm7, 144(%rbx)
	jbe	.L559
	mulss	%xmm7, %xmm0
	addss	.LC6(%rip), %xmm0
	comiss	152(%rbx), %xmm0
	ja	.L656
.L559:
	movb	$0, 200(%rbx)
	jmp	.L558
	.p2align 4,,10
	.p2align 3
.L653:
	cmpl	$6, %eax
	je	.L542
	cmpl	$1, %eax
	je	.L541
	movss	144(%rbx), %xmm7
	movss	%xmm7, -200(%rbp)
	jmp	.L547
	.p2align 4,,10
	.p2align 3
.L532:
	movl	$-1, %eax
	lock xaddl	%eax, 12(%r13)
	jmp	.L533
	.p2align 4,,10
	.p2align 3
.L647:
	mulss	%xmm2, %xmm3
	movaps	%xmm1, %xmm4
	rsqrtss	%xmm4, %xmm4
	mulss	%xmm4, %xmm1
	mulss	%xmm4, %xmm1
	mulss	.LC5(%rip), %xmm4
	addss	.LC4(%rip), %xmm1
	mulss	%xmm4, %xmm1
	movaps	%xmm5, %xmm4
	mulss	%xmm2, %xmm4
	mulss	%xmm1, %xmm3
	mulss	%xmm1, %xmm4
	movss	%xmm3, 148(%rbx)
	movss	%xmm4, -200(%rbp)
	movss	%xmm4, 144(%rbx)
	jmp	.L551
	.p2align 4,,10
	.p2align 3
.L656:
	movaps	%xmm0, %xmm3
	movaps	%xmm0, %xmm1
	movaps	%xmm7, %xmm0
	mulss	%xmm2, %xmm0
	rsqrtss	%xmm3, %xmm3
	mulss	%xmm3, %xmm1
	mulss	%xmm3, %xmm1
	mulss	.LC5(%rip), %xmm3
	addss	.LC4(%rip), %xmm1
	mulss	%xmm3, %xmm1
	mulss	%xmm1, %xmm0
	mulss	%xmm1, %xmm2
	xorps	.LC22(%rip), %xmm2
	unpcklps	%xmm2, %xmm0
	movlps	%xmm0, 144(%rbx)
	jmp	.L559
.L652:
	call	__stack_chk_fail@PLT
.L654:
	call	_ZSt16__throw_bad_castv@PLT
.LEHE18:
.L584:
	endbr64
	movq	%rax, %rbx
	jmp	.L537
.L583:
	endbr64
	movq	%rax, %rbx
	jmp	.L539
.L537:
	movq	-96(%rbp), %rdi
	cmpq	%r13, %rdi
	je	.L539
	movq	-80(%rbp), %rax
	leaq	1(%rax), %rsi
	call	_ZdlPvm@PLT
.L539:
	movq	-152(%rbp), %rdi
	testq	%rdi, %rdi
	je	.L540
	call	_ZNSt16_Sp_counted_baseILN9__gnu_cxx12_Lock_policyE2EE10_M_releaseEv
.L540:
	movq	%rbx, %rdi
.LEHB19:
	call	_Unwind_Resume@PLT
.LEHE19:
	.cfi_endproc
.LFE12100:
	.section	.gcc_except_table
.LLSDA12100:
	.byte	0xff
	.byte	0xff
	.byte	0x1
	.uleb128 .LLSDACSE12100-.LLSDACSB12100
.LLSDACSB12100:
	.uleb128 .LEHB13-.LFB12100
	.uleb128 .LEHE13-.LEHB13
	.uleb128 0
	.uleb128 0
	.uleb128 .LEHB14-.LFB12100
	.uleb128 .LEHE14-.LEHB14
	.uleb128 .L584-.LFB12100
	.uleb128 0
	.uleb128 .LEHB15-.LFB12100
	.uleb128 .LEHE15-.LEHB15
	.uleb128 0
	.uleb128 0
	.uleb128 .LEHB16-.LFB12100
	.uleb128 .LEHE16-.LEHB16
	.uleb128 .L583-.LFB12100
	.uleb128 0
	.uleb128 .LEHB17-.LFB12100
	.uleb128 .LEHE17-.LEHB17
	.uleb128 0
	.uleb128 0
	.uleb128 .LEHB18-.LFB12100
	.uleb128 .LEHE18-.LEHB18
	.uleb128 .L583-.LFB12100
	.uleb128 0
	.uleb128 .LEHB19-.LFB12100
	.uleb128 .LEHE19-.LEHB19
	.uleb128 0
	.uleb128 0
.LLSDACSE12100:
	.section	.text._ZN12Lemming_hero15update_positionER6Engine,"axG",@progbits,_ZN12Lemming_hero15update_positionER6Engine,comdat
	.size	_ZN12Lemming_hero15update_positionER6Engine, .-_ZN12Lemming_hero15update_positionER6Engine
	.section	.text.unlikely
	.align 2
.LCOLDB25:
	.text
.LHOTB25:
	.align 2
	.p2align 4
	.type	_ZN10Rigid_body8distanceER6Engine3RaySt10shared_ptrI6EntityERfS6_S6_.isra.0, @function
_ZN10Rigid_body8distanceER6Engine3RaySt10shared_ptrI6EntityERfS6_S6_.isra.0:
.LFB13763:
	.cfi_startproc
	.cfi_personality 0x9b,DW.ref.__gxx_personality_v0
	.cfi_lsda 0x1b,.LLSDA13763
	pushq	%r15
	.cfi_def_cfa_offset 16
	.cfi_offset 15, -16
	pushq	%r14
	.cfi_def_cfa_offset 24
	.cfi_offset 14, -24
	movq	%rdi, %r14
	pushq	%r13
	.cfi_def_cfa_offset 32
	.cfi_offset 13, -32
	movq	%r8, %r13
	pushq	%r12
	.cfi_def_cfa_offset 40
	.cfi_offset 12, -40
	movq	%rcx, %r12
	pushq	%rbp
	.cfi_def_cfa_offset 48
	.cfi_offset 6, -48
	movq	%rsi, %rbp
	pushq	%rbx
	.cfi_def_cfa_offset 56
	.cfi_offset 3, -56
	movq	%rdx, %rbx
	subq	$72, %rsp
	.cfi_def_cfa_offset 128
	movdqu	(%rdx), %xmm3
	movq	%r9, 8(%rsp)
	movq	%fs:40, %rax
	movq	%rax, 56(%rsp)
	movq	8(%rdx), %rax
	movaps	%xmm3, 32(%rsp)
	testq	%rax, %rax
	je	.L658
	cmpb	$0, __libc_single_threaded(%rip)
	je	.L659
	addl	$1, 8(%rax)
.L658:
	leaq	32(%rsp), %r15
	movq	%r13, %r8
	movq	%r12, %rcx
	movq	%rbp, %rsi
	movq	%r15, %rdx
	movq	%r14, %rdi
.LEHB20:
	call	_ZN6Engine19intesect_ray_entityER3RaySt10shared_ptrI6EntityERfS5_@PLT
.LEHE20:
	movq	40(%rsp), %rdi
	movl	%eax, %r8d
	testq	%rdi, %rdi
	je	.L661
	cmpb	$0, __libc_single_threaded(%rip)
	je	.L662
	movl	8(%rdi), %eax
	leal	-1(%rax), %edx
	movl	%edx, 8(%rdi)
.L663:
	cmpl	$1, %eax
	je	.L758
.L661:
	testb	%r8b, %r8b
	je	.L667
	pxor	%xmm4, %xmm4
	comiss	0(%r13), %xmm4
	movss	%xmm4, 16(%rsp)
	jnb	.L667
	movq	0(%rbp), %rax
	movq	(%rbx), %rdi
	movq	%r15, %rsi
	movb	%r8b, 31(%rsp)
	movq	%rax, 32(%rsp)
.LEHB21:
	call	_ZNK6Entity8containsE6Point2IfE@PLT
.LEHE21:
	testb	%al, %al
	jne	.L708
	movss	(%r12), %xmm0
	movss	16(%rsp), %xmm6
	movzbl	31(%rsp), %r8d
	comiss	%xmm0, %xmm6
	ja	.L712
	movq	8(%rsp), %rax
	movss	%xmm0, (%rax)
.L707:
	movdqu	(%rbx), %xmm6
	movq	8(%rbx), %rax
	movaps	%xmm6, 32(%rsp)
	testq	%rax, %rax
	je	.L670
	cmpb	$0, __libc_single_threaded(%rip)
	je	.L671
	addl	$1, 8(%rax)
.L670:
	movss	0(%r13), %xmm1
	movq	%r15, %rcx
	pxor	%xmm0, %xmm0
	movq	%r13, %rdx
	movq	%rbp, %rsi
	movq	%r14, %rdi
.LEHB22:
	call	_ZNK6Engine19ray_march_alpha_endER3RayRfffSt10shared_ptrI6EntityE@PLT
.LEHE22:
	movq	40(%rsp), %r13
	testq	%r13, %r13
	je	.L673
	cmpb	$0, __libc_single_threaded(%rip)
	je	.L674
	movl	8(%r13), %eax
	leal	-1(%rax), %edx
	movl	%edx, 8(%r13)
.L675:
	cmpl	$1, %eax
	jne	.L673
	movq	0(%r13), %rax
	movq	%r13, %rdi
	call	*16(%rax)
	cmpb	$0, __libc_single_threaded(%rip)
	je	.L677
	movl	12(%r13), %eax
	leal	-1(%rax), %edx
	movl	%edx, 12(%r13)
.L678:
	cmpl	$1, %eax
	jne	.L673
	movq	0(%r13), %rax
	movq	%r13, %rdi
	call	*24(%rax)
	.p2align 4,,10
	.p2align 3
.L673:
	movss	(%r12), %xmm1
	movss	16(%rsp), %xmm2
	movdqu	(%rbx), %xmm0
	comiss	%xmm1, %xmm2
	movhlps	%xmm0, %xmm7
	movq	%xmm7, %rax
	ja	.L759
	movaps	%xmm0, 32(%rsp)
	testq	%rax, %rax
	je	.L690
	cmpb	$0, __libc_single_threaded(%rip)
	je	.L691
	addl	$1, 8(%rax)
.L690:
	movq	%r15, %rcx
	pxor	%xmm0, %xmm0
	movq	%r12, %rdx
	movq	%rbp, %rsi
	movq	%r14, %rdi
.LEHB23:
	call	_ZNK6Engine19ray_march_alpha_endER3RayRfffSt10shared_ptrI6EntityE@PLT
.LEHE23:
	movq	40(%rsp), %rbp
	testq	%rbp, %rbp
	je	.L693
	cmpb	$0, __libc_single_threaded(%rip)
	je	.L694
	movl	8(%rbp), %eax
	leal	-1(%rax), %edx
	movl	%edx, 8(%rbp)
.L695:
	cmpl	$1, %eax
	je	.L760
.L693:
	movl	$1, %r8d
	jmp	.L657
	.p2align 4,,10
	.p2align 3
.L667:
	movq	0(%rbp), %rax
	movq	(%rbx), %rdi
	movq	%r15, %rsi
	movq	%rax, 32(%rsp)
.LEHB24:
	call	_ZNK6Entity8containsE6Point2IfE@PLT
.LEHE24:
	movl	%eax, %r8d
	testb	%al, %al
	je	.L761
	movq	8(%rsp), %rax
	xorl	%r8d, %r8d
	movl	$0x00000000, (%rax)
.L657:
	movq	56(%rsp), %rax
	subq	%fs:40, %rax
	jne	.L762
	addq	$72, %rsp
	.cfi_remember_state
	.cfi_def_cfa_offset 56
	movl	%r8d, %eax
	popq	%rbx
	.cfi_def_cfa_offset 48
	popq	%rbp
	.cfi_def_cfa_offset 40
	popq	%r12
	.cfi_def_cfa_offset 32
	popq	%r13
	.cfi_def_cfa_offset 24
	popq	%r14
	.cfi_def_cfa_offset 16
	popq	%r15
	.cfi_def_cfa_offset 8
	ret
	.p2align 4,,10
	.p2align 3
.L761:
	.cfi_restore_state
	movss	(%r12), %xmm0
	pxor	%xmm5, %xmm5
	movss	%xmm5, 16(%rsp)
	comiss	%xmm0, %xmm5
	ja	.L712
	movq	8(%rsp), %rax
	movss	%xmm0, (%rax)
	jmp	.L657
	.p2align 4,,10
	.p2align 3
.L659:
	lock addl	$1, 8(%rax)
	jmp	.L658
	.p2align 4,,10
	.p2align 3
.L712:
	movss	0(%r13), %xmm0
	movq	8(%rsp), %rax
	movss	%xmm0, (%rax)
	testb	%r8b, %r8b
	je	.L657
	jmp	.L707
	.p2align 4,,10
	.p2align 3
.L758:
	movq	(%rdi), %rax
	movb	%r8b, 31(%rsp)
	movq	%rdi, 16(%rsp)
	call	*16(%rax)
	cmpb	$0, __libc_single_threaded(%rip)
	movq	16(%rsp), %rdi
	movzbl	31(%rsp), %r8d
	je	.L665
	movl	12(%rdi), %eax
	leal	-1(%rax), %edx
	movl	%edx, 12(%rdi)
.L666:
	cmpl	$1, %eax
	jne	.L661
	movq	(%rdi), %rax
	movb	%r8b, 16(%rsp)
	call	*24(%rax)
	movzbl	16(%rsp), %r8d
	jmp	.L661
	.p2align 4,,10
	.p2align 3
.L662:
	movl	$-1, %eax
	lock xaddl	%eax, 8(%rdi)
	jmp	.L663
	.p2align 4,,10
	.p2align 3
.L708:
	movq	8(%rsp), %rax
	movl	$0x00000000, (%rax)
	jmp	.L707
	.p2align 4,,10
	.p2align 3
.L759:
	movq	12(%rbp), %xmm2
	movss	20(%rbp), %xmm1
	movaps	%xmm0, 32(%rsp)
	movq	.LC24(%rip), %xmm7
	xorps	.LC22(%rip), %xmm1
	xorps	%xmm7, %xmm2
	movss	%xmm1, 20(%rbp)
	movlps	%xmm2, 12(%rbp)
	movss	(%r12), %xmm1
	xorps	.LC22(%rip), %xmm1
	movss	%xmm1, (%r12)
	testq	%rax, %rax
	je	.L681
	cmpb	$0, __libc_single_threaded(%rip)
	je	.L682
	addl	$1, 8(%rax)
.L681:
	movq	%r15, %rcx
	pxor	%xmm0, %xmm0
	movq	%r12, %rdx
	movq	%rbp, %rsi
	movq	%r14, %rdi
.LEHB25:
	call	_ZNK6Engine19ray_march_alpha_endER3RayRfffSt10shared_ptrI6EntityE@PLT
.LEHE25:
	movq	40(%rsp), %rbp
	testq	%rbp, %rbp
	je	.L684
	cmpb	$0, __libc_single_threaded(%rip)
	je	.L685
	movl	8(%rbp), %eax
	leal	-1(%rax), %edx
	movl	%edx, 8(%rbp)
.L686:
	cmpl	$1, %eax
	jne	.L684
	movq	0(%rbp), %rax
	movq	%rbp, %rdi
	call	*16(%rax)
	cmpb	$0, __libc_single_threaded(%rip)
	je	.L688
	movl	12(%rbp), %eax
	leal	-1(%rax), %edx
	movl	%edx, 12(%rbp)
.L689:
	cmpl	$1, %eax
	jne	.L684
	movq	0(%rbp), %rax
	movq	%rbp, %rdi
	call	*24(%rax)
	.p2align 4,,10
	.p2align 3
.L684:
	movss	(%r12), %xmm0
	xorps	.LC22(%rip), %xmm0
	movl	$1, %r8d
	movss	%xmm0, (%r12)
	jmp	.L657
	.p2align 4,,10
	.p2align 3
.L671:
	lock addl	$1, 8(%rax)
	jmp	.L670
	.p2align 4,,10
	.p2align 3
.L665:
	movl	$-1, %eax
	lock xaddl	%eax, 12(%rdi)
	jmp	.L666
	.p2align 4,,10
	.p2align 3
.L674:
	movl	$-1, %eax
	lock xaddl	%eax, 8(%r13)
	jmp	.L675
	.p2align 4,,10
	.p2align 3
.L685:
	movl	$-1, %eax
	lock xaddl	%eax, 8(%rbp)
	jmp	.L686
	.p2align 4,,10
	.p2align 3
.L677:
	movl	$-1, %eax
	lock xaddl	%eax, 12(%r13)
	jmp	.L678
	.p2align 4,,10
	.p2align 3
.L691:
	lock addl	$1, 8(%rax)
	movss	(%r12), %xmm1
	jmp	.L690
	.p2align 4,,10
	.p2align 3
.L760:
	movq	0(%rbp), %rax
	movq	%rbp, %rdi
	call	*16(%rax)
	cmpb	$0, __libc_single_threaded(%rip)
	je	.L697
	movl	12(%rbp), %eax
	leal	-1(%rax), %edx
	movl	%edx, 12(%rbp)
.L698:
	cmpl	$1, %eax
	jne	.L693
	movq	0(%rbp), %rax
	movq	%rbp, %rdi
	call	*24(%rax)
	jmp	.L693
	.p2align 4,,10
	.p2align 3
.L694:
	movl	$-1, %eax
	lock xaddl	%eax, 8(%rbp)
	jmp	.L695
	.p2align 4,,10
	.p2align 3
.L682:
	lock addl	$1, 8(%rax)
	movss	(%r12), %xmm1
	jmp	.L681
	.p2align 4,,10
	.p2align 3
.L697:
	movl	$-1, %eax
	lock xaddl	%eax, 12(%rbp)
	jmp	.L698
.L688:
	movl	$-1, %eax
	lock xaddl	%eax, 12(%rbp)
	jmp	.L689
.L762:
	call	__stack_chk_fail@PLT
.L717:
	endbr64
	movq	%rax, %rbp
	jmp	.L703
.L716:
	endbr64
	movq	%rax, %rbp
	jmp	.L705
.L719:
	endbr64
	movq	%rax, %rbp
	jmp	.L699
.L718:
	endbr64
	movq	%rax, %rbp
	jmp	.L701
	.section	.gcc_except_table
.LLSDA13763:
	.byte	0xff
	.byte	0xff
	.byte	0x1
	.uleb128 .LLSDACSE13763-.LLSDACSB13763
.LLSDACSB13763:
	.uleb128 .LEHB20-.LFB13763
	.uleb128 .LEHE20-.LEHB20
	.uleb128 .L719-.LFB13763
	.uleb128 0
	.uleb128 .LEHB21-.LFB13763
	.uleb128 .LEHE21-.LEHB21
	.uleb128 0
	.uleb128 0
	.uleb128 .LEHB22-.LFB13763
	.uleb128 .LEHE22-.LEHB22
	.uleb128 .L718-.LFB13763
	.uleb128 0
	.uleb128 .LEHB23-.LFB13763
	.uleb128 .LEHE23-.LEHB23
	.uleb128 .L716-.LFB13763
	.uleb128 0
	.uleb128 .LEHB24-.LFB13763
	.uleb128 .LEHE24-.LEHB24
	.uleb128 0
	.uleb128 0
	.uleb128 .LEHB25-.LFB13763
	.uleb128 .LEHE25-.LEHB25
	.uleb128 .L717-.LFB13763
	.uleb128 0
.LLSDACSE13763:
	.text
	.cfi_endproc
	.section	.text.unlikely
	.cfi_startproc
	.cfi_personality 0x9b,DW.ref.__gxx_personality_v0
	.cfi_lsda 0x1b,.LLSDAC13763
	.type	_ZN10Rigid_body8distanceER6Engine3RaySt10shared_ptrI6EntityERfS6_S6_.isra.0.cold, @function
_ZN10Rigid_body8distanceER6Engine3RaySt10shared_ptrI6EntityERfS6_S6_.isra.0.cold:
.LFSB13763:
.L703:
	.cfi_def_cfa_offset 128
	.cfi_offset 3, -56
	.cfi_offset 6, -48
	.cfi_offset 12, -40
	.cfi_offset 13, -32
	.cfi_offset 14, -24
	.cfi_offset 15, -16
	movq	40(%rsp), %rdi
	testq	%rdi, %rdi
	je	.L704
	call	_ZNSt16_Sp_counted_baseILN9__gnu_cxx12_Lock_policyE2EE10_M_releaseEv
.L704:
	movq	%rbp, %rdi
.LEHB26:
	call	_Unwind_Resume@PLT
.L705:
	movq	40(%rsp), %rdi
	testq	%rdi, %rdi
	je	.L706
	call	_ZNSt16_Sp_counted_baseILN9__gnu_cxx12_Lock_policyE2EE10_M_releaseEv
.L706:
	movq	%rbp, %rdi
	call	_Unwind_Resume@PLT
.L699:
	movq	40(%rsp), %rdi
	testq	%rdi, %rdi
	je	.L700
	call	_ZNSt16_Sp_counted_baseILN9__gnu_cxx12_Lock_policyE2EE10_M_releaseEv
.L700:
	movq	%rbp, %rdi
	call	_Unwind_Resume@PLT
.L701:
	movq	40(%rsp), %rdi
	testq	%rdi, %rdi
	je	.L702
	call	_ZNSt16_Sp_counted_baseILN9__gnu_cxx12_Lock_policyE2EE10_M_releaseEv
.L702:
	movq	%rbp, %rdi
	call	_Unwind_Resume@PLT
.LEHE26:
	.cfi_endproc
.LFE13763:
	.section	.gcc_except_table
.LLSDAC13763:
	.byte	0xff
	.byte	0xff
	.byte	0x1
	.uleb128 .LLSDACSEC13763-.LLSDACSBC13763
.LLSDACSBC13763:
	.uleb128 .LEHB26-.LCOLDB25
	.uleb128 .LEHE26-.LEHB26
	.uleb128 0
	.uleb128 0
.LLSDACSEC13763:
	.section	.text.unlikely
	.text
	.size	_ZN10Rigid_body8distanceER6Engine3RaySt10shared_ptrI6EntityERfS6_S6_.isra.0, .-_ZN10Rigid_body8distanceER6Engine3RaySt10shared_ptrI6EntityERfS6_S6_.isra.0
	.section	.text.unlikely
	.size	_ZN10Rigid_body8distanceER6Engine3RaySt10shared_ptrI6EntityERfS6_S6_.isra.0.cold, .-_ZN10Rigid_body8distanceER6Engine3RaySt10shared_ptrI6EntityERfS6_S6_.isra.0.cold
.LCOLDE25:
	.text
.LHOTE25:
	.section	.rodata._ZN10Rigid_body12on_collisionER6EngineSt10shared_ptrI6EntityE.str1.1,"aMS",@progbits,1
.LC26:
	.string	"Rigid_body"
	.section	.text._ZN10Rigid_body12on_collisionER6EngineSt10shared_ptrI6EntityE,"axG",@progbits,_ZN10Rigid_body12on_collisionER6EngineSt10shared_ptrI6EntityE,comdat
	.align 2
	.p2align 4
	.weak	_ZN10Rigid_body12on_collisionER6EngineSt10shared_ptrI6EntityE
	.type	_ZN10Rigid_body12on_collisionER6EngineSt10shared_ptrI6EntityE, @function
_ZN10Rigid_body12on_collisionER6EngineSt10shared_ptrI6EntityE:
.LFB12033:
	.cfi_startproc
	.cfi_personality 0x9b,DW.ref.__gxx_personality_v0
	.cfi_lsda 0x1b,.LLSDA12033
	endbr64
	pushq	%r15
	.cfi_def_cfa_offset 16
	.cfi_offset 15, -16
	pxor	%xmm3, %xmm3
	pushq	%r14
	.cfi_def_cfa_offset 24
	.cfi_offset 14, -24
	pushq	%r13
	.cfi_def_cfa_offset 32
	.cfi_offset 13, -32
	pushq	%r12
	.cfi_def_cfa_offset 40
	.cfi_offset 12, -40
	pushq	%rbp
	.cfi_def_cfa_offset 48
	.cfi_offset 6, -48
	pushq	%rbx
	.cfi_def_cfa_offset 56
	.cfi_offset 3, -56
	subq	$216, %rsp
	.cfi_def_cfa_offset 272
	movss	144(%rdi), %xmm0
	movss	148(%rdi), %xmm1
	movq	%fs:40, %rax
	movq	%rax, 200(%rsp)
	xorl	%eax, %eax
	mulss	%xmm0, %xmm0
	mulss	%xmm1, %xmm1
	addss	%xmm1, %xmm0
	comiss	%xmm3, %xmm0
	jne	.L991
.L763:
	movq	200(%rsp), %rax
	subq	%fs:40, %rax
	jne	.L992
	addq	$216, %rsp
	.cfi_remember_state
	.cfi_def_cfa_offset 56
	popq	%rbx
	.cfi_def_cfa_offset 48
	popq	%rbp
	.cfi_def_cfa_offset 40
	popq	%r12
	.cfi_def_cfa_offset 32
	popq	%r13
	.cfi_def_cfa_offset 24
	popq	%r14
	.cfi_def_cfa_offset 16
	popq	%r15
	.cfi_def_cfa_offset 8
	ret
	.p2align 4,,10
	.p2align 3
.L991:
	.cfi_restore_state
	movq	%rsi, %r15
	movq	(%rdx), %rsi
	movq	%rdi, %rbx
	movq	%rdx, %rbp
	leaq	160(%rsp), %rdi
.LEHB27:
	call	_ZNK6Entity9get_classB5cxx11Ev@PLT
.LEHE27:
	movq	168(%rsp), %r12
	movq	160(%rsp), %r13
	cmpq	$10, %r12
	ja	.L993
	testq	%r12, %r12
	jne	.L994
.L769:
	leaq	176(%rsp), %rax
	cmpq	%rax, %r13
	je	.L763
	movq	176(%rsp), %rax
	movq	%r13, %rdi
	leaq	1(%rax), %rsi
	call	_ZdlPvm@PLT
	jmp	.L763
	.p2align 4,,10
	.p2align 3
.L994:
	movq	%r12, %rdx
	leaq	.LC26(%rip), %rsi
	movq	%r13, %rdi
	call	memcmp@PLT
	testl	%eax, %eax
	jne	.L769
	subq	$10, %r12
	jmp	.L900
	.p2align 4,,10
	.p2align 3
.L993:
	movabsq	$8026082370797398354, %rax
	cmpq	%rax, 0(%r13)
	jne	.L769
	cmpw	$31076, 8(%r13)
	jne	.L769
	subq	$10, %r12
	cmpq	$2147483647, %r12
	jg	.L769
	cmpq	$-2147483648, %r12
	jl	.L769
	.p2align 4,,10
	.p2align 3
.L900:
	testl	%r12d, %r12d
	jne	.L769
	leaq	176(%rsp), %rax
	cmpq	%rax, %r13
	jne	.L995
.L774:
	movss	144(%rbx), %xmm6
	movss	148(%rbx), %xmm7
	movq	8(%rbp), %r12
	movq	0(%rbp), %r14
	movss	%xmm6, 56(%rsp)
	movss	%xmm7, 44(%rsp)
	testq	%r12, %r12
	je	.L776
	cmpb	$0, __libc_single_threaded(%rip)
	je	.L777
	addl	$1, 8(%r12)
.L776:
	movq	168(%rbx), %rax
	leaq	112(%rsp), %r13
	movq	%rbx, %rsi
	movq	%r13, %rdx
	movq	%rax, 112(%rsp)
	leaq	88(%rsp), %rax
	movq	%rax, %rdi
	movq	%rax, 24(%rsp)
.LEHB28:
	call	_ZNK6Entity14local_to_worldE6Point2IfE@PLT
.LEHE28:
	movq	%r14, %xmm0
	movq	%r12, %xmm6
	movq	88(%rsp), %rax
	punpcklqdq	%xmm6, %xmm0
	movaps	%xmm0, 96(%rsp)
	testq	%r12, %r12
	je	.L778
	cmpb	$0, __libc_single_threaded(%rip)
	je	.L779
	addl	$1, 8(%r12)
.L778:
	movq	%rax, 112(%rsp)
	leaq	80(%rsp), %r14
	movq	%r13, %rsi
	movq	%r15, %rdi
	movaps	.LC27(%rip), %xmm0
	leaq	96(%rsp), %rax
	leaq	84(%rsp), %r9
	movq	%r14, %r8
	leaq	76(%rsp), %rcx
	movq	%rax, %rdx
	movq	%r9, 16(%rsp)
	movups	%xmm0, 120(%rsp)
	movaps	.LC28(%rip), %xmm0
	movb	$0, 152(%rsp)
	movq	%rcx, 8(%rsp)
	movq	%rax, 32(%rsp)
	movups	%xmm0, 136(%rsp)
.LEHB29:
	call	_ZN10Rigid_body8distanceER6Engine3RaySt10shared_ptrI6EntityERfS6_S6_.isra.0
.LEHE29:
	movq	104(%rsp), %rdi
	testq	%rdi, %rdi
	je	.L781
	cmpb	$0, __libc_single_threaded(%rip)
	je	.L782
	movl	8(%rdi), %edx
	leal	-1(%rdx), %ecx
	movl	%ecx, 8(%rdi)
.L783:
	cmpl	$1, %edx
	je	.L996
.L781:
	testb	%al, %al
	je	.L788
	movsd	.LC23(%rip), %xmm1
	pxor	%xmm0, %xmm0
	cvtss2sd	84(%rsp), %xmm0
	comisd	%xmm0, %xmm1
	jbe	.L788
	testq	%r12, %r12
	je	.L895
.L896:
	cmpb	$0, __libc_single_threaded(%rip)
	je	.L793
	movl	8(%r12), %edx
	leal	-1(%rdx), %ecx
	movl	%ecx, 8(%r12)
.L794:
	cmpl	$1, %edx
	je	.L997
.L796:
	testb	%al, %al
	je	.L800
.L895:
	movss	64(%rbx), %xmm0
	subss	76(%rsp), %xmm0
	movl	$0x00000000, 44(%rsp)
	movss	%xmm0, 64(%rbx)
.L800:
	movq	0(%rbp), %rax
	movq	8(%rbp), %r12
	movq	%rax, 48(%rsp)
	testq	%r12, %r12
	je	.L801
	cmpb	$0, __libc_single_threaded(%rip)
	je	.L802
	addl	$1, 8(%r12)
.L801:
	movq	160(%rbx), %rax
	movq	24(%rsp), %rdi
	movq	%r13, %rdx
	movq	%rbx, %rsi
	movq	%rax, 112(%rsp)
.LEHB30:
	call	_ZNK6Entity14local_to_worldE6Point2IfE@PLT
.LEHE30:
	movq	48(%rsp), %xmm0
	movq	%r12, %xmm7
	movq	88(%rsp), %rax
	punpcklqdq	%xmm7, %xmm0
	movaps	%xmm0, 96(%rsp)
	testq	%r12, %r12
	je	.L803
	cmpb	$0, __libc_single_threaded(%rip)
	je	.L804
	addl	$1, 8(%r12)
.L803:
	movaps	.LC12(%rip), %xmm0
	movq	%r14, %r8
	movq	%r13, %rsi
	movq	%r15, %rdi
	movq	16(%rsp), %r9
	movq	8(%rsp), %rcx
	movq	%rax, 112(%rsp)
	movups	%xmm0, 120(%rsp)
	movq	32(%rsp), %rdx
	movaps	.LC13(%rip), %xmm0
	movb	$0, 152(%rsp)
	movups	%xmm0, 136(%rsp)
.LEHB31:
	call	_ZN10Rigid_body8distanceER6Engine3RaySt10shared_ptrI6EntityERfS6_S6_.isra.0
.LEHE31:
	movq	104(%rsp), %rdi
	testq	%rdi, %rdi
	je	.L806
	cmpb	$0, __libc_single_threaded(%rip)
	je	.L807
	movl	8(%rdi), %edx
	leal	-1(%rdx), %ecx
	movl	%ecx, 8(%rdi)
.L808:
	cmpl	$1, %edx
	je	.L998
.L806:
	testb	%al, %al
	je	.L813
	movsd	.LC23(%rip), %xmm1
	pxor	%xmm0, %xmm0
	cvtss2sd	84(%rsp), %xmm0
	comisd	%xmm0, %xmm1
	jbe	.L813
	testq	%r12, %r12
	je	.L891
.L892:
	cmpb	$0, __libc_single_threaded(%rip)
	je	.L818
	movl	8(%r12), %edx
	leal	-1(%rdx), %ecx
	movl	%ecx, 8(%r12)
.L819:
	cmpl	$1, %edx
	je	.L999
.L821:
	testb	%al, %al
	je	.L825
.L891:
	movss	64(%rbx), %xmm0
	addss	76(%rsp), %xmm0
	movl	$0x00000000, 44(%rsp)
	movss	%xmm0, 64(%rbx)
.L825:
	movq	0(%rbp), %rax
	movq	8(%rbp), %r12
	movq	%rax, 48(%rsp)
	testq	%r12, %r12
	je	.L826
	cmpb	$0, __libc_single_threaded(%rip)
	je	.L827
	addl	$1, 8(%r12)
.L826:
	movq	176(%rbx), %rax
	movq	24(%rsp), %rdi
	movq	%r13, %rdx
	movq	%rbx, %rsi
	movq	%rax, 112(%rsp)
.LEHB32:
	call	_ZNK6Entity14local_to_worldE6Point2IfE@PLT
.LEHE32:
	movq	48(%rsp), %xmm0
	movq	%r12, %xmm6
	movq	88(%rsp), %rax
	punpcklqdq	%xmm6, %xmm0
	movaps	%xmm0, 96(%rsp)
	testq	%r12, %r12
	je	.L828
	cmpb	$0, __libc_single_threaded(%rip)
	je	.L829
	addl	$1, 8(%r12)
.L828:
	movaps	.LC29(%rip), %xmm0
	movq	%r14, %r8
	movq	%r13, %rsi
	movq	%r15, %rdi
	movq	16(%rsp), %r9
	movq	8(%rsp), %rcx
	movq	%rax, 112(%rsp)
	movups	%xmm0, 120(%rsp)
	movq	32(%rsp), %rdx
	movaps	.LC30(%rip), %xmm0
	movb	$0, 152(%rsp)
	movups	%xmm0, 136(%rsp)
.LEHB33:
	call	_ZN10Rigid_body8distanceER6Engine3RaySt10shared_ptrI6EntityERfS6_S6_.isra.0
.LEHE33:
	movq	104(%rsp), %rdi
	testq	%rdi, %rdi
	je	.L831
	cmpb	$0, __libc_single_threaded(%rip)
	je	.L832
	movl	8(%rdi), %edx
	leal	-1(%rdx), %ecx
	movl	%ecx, 8(%rdi)
.L833:
	cmpl	$1, %edx
	je	.L1000
.L831:
	testb	%al, %al
	je	.L838
	movsd	.LC23(%rip), %xmm1
	pxor	%xmm0, %xmm0
	cvtss2sd	84(%rsp), %xmm0
	comisd	%xmm0, %xmm1
	jbe	.L838
	testq	%r12, %r12
	je	.L889
.L887:
	cmpb	$0, __libc_single_threaded(%rip)
	je	.L843
	movl	8(%r12), %edx
	leal	-1(%rdx), %ecx
	movl	%ecx, 8(%r12)
.L844:
	cmpl	$1, %edx
	je	.L1001
.L846:
	testb	%al, %al
	je	.L850
.L889:
	movss	60(%rbx), %xmm0
	subss	76(%rsp), %xmm0
	movl	$0x00000000, 56(%rsp)
	movss	%xmm0, 60(%rbx)
.L850:
	movq	0(%rbp), %r12
	movq	8(%rbp), %rbp
	testq	%rbp, %rbp
	je	.L851
	cmpb	$0, __libc_single_threaded(%rip)
	je	.L852
	addl	$1, 8(%rbp)
.L851:
	movq	184(%rbx), %rax
	movq	24(%rsp), %rdi
	movq	%r13, %rdx
	movq	%rbx, %rsi
	movq	%rax, 112(%rsp)
.LEHB34:
	call	_ZNK6Entity14local_to_worldE6Point2IfE@PLT
.LEHE34:
	movq	%r12, %xmm0
	movq	%rbp, %xmm7
	movq	88(%rsp), %rax
	punpcklqdq	%xmm7, %xmm0
	movaps	%xmm0, 96(%rsp)
	testq	%rbp, %rbp
	je	.L853
	cmpb	$0, __libc_single_threaded(%rip)
	je	.L854
	addl	$1, 8(%rbp)
.L853:
	movaps	.LC31(%rip), %xmm0
	movq	%r14, %r8
	movq	%r13, %rsi
	movq	%r15, %rdi
	movq	16(%rsp), %r9
	movq	8(%rsp), %rcx
	movq	%rax, 112(%rsp)
	movups	%xmm0, 120(%rsp)
	movq	32(%rsp), %rdx
	movaps	.LC32(%rip), %xmm0
	movb	$0, 152(%rsp)
	movups	%xmm0, 136(%rsp)
.LEHB35:
	call	_ZN10Rigid_body8distanceER6Engine3RaySt10shared_ptrI6EntityERfS6_S6_.isra.0
.LEHE35:
	movq	104(%rsp), %r13
	movl	%eax, %r12d
	testq	%r13, %r13
	je	.L856
	cmpb	$0, __libc_single_threaded(%rip)
	je	.L857
	movl	8(%r13), %eax
	leal	-1(%rax), %edx
	movl	%edx, 8(%r13)
.L858:
	cmpl	$1, %eax
	je	.L1002
.L856:
	testb	%r12b, %r12b
	je	.L863
	movsd	.LC23(%rip), %xmm1
	pxor	%xmm0, %xmm0
	cvtss2sd	84(%rsp), %xmm0
	comisd	%xmm0, %xmm1
	jbe	.L863
	testq	%rbp, %rbp
	je	.L883
.L884:
	cmpb	$0, __libc_single_threaded(%rip)
	je	.L868
	movl	8(%rbp), %eax
	leal	-1(%rax), %edx
	movl	%edx, 8(%rbp)
.L869:
	cmpl	$1, %eax
	je	.L1003
.L871:
	testb	%r12b, %r12b
	je	.L875
.L883:
	movss	60(%rbx), %xmm0
	addss	76(%rsp), %xmm0
	movl	$0x00000000, 56(%rsp)
	movss	%xmm0, 60(%rbx)
.L875:
	movss	56(%rsp), %xmm5
	pxor	%xmm3, %xmm3
	movss	156(%rbx), %xmm2
	movss	44(%rsp), %xmm4
	comiss	%xmm3, %xmm2
	movaps	%xmm5, %xmm1
	movaps	%xmm2, %xmm0
	unpcklps	%xmm4, %xmm1
	shufps	$0xe0, %xmm0, %xmm0
	movlps	%xmm1, 144(%rbx)
	mulps	%xmm0, %xmm1
	jbe	.L763
	movaps	%xmm5, %xmm0
	movaps	%xmm4, %xmm2
	mulss	%xmm5, %xmm0
	mulss	%xmm4, %xmm2
	addss	%xmm2, %xmm0
	comiss	152(%rbx), %xmm0
	jbe	.L763
	movaps	%xmm0, %xmm2
	rsqrtss	%xmm2, %xmm2
	mulss	%xmm2, %xmm0
	mulss	%xmm2, %xmm0
	mulss	.LC5(%rip), %xmm2
	addss	.LC4(%rip), %xmm0
	mulss	%xmm2, %xmm0
	shufps	$0xe0, %xmm0, %xmm0
	mulps	%xmm1, %xmm0
	movlps	%xmm0, 144(%rbx)
	jmp	.L763
	.p2align 4,,10
	.p2align 3
.L863:
	xorl	%r12d, %r12d
	testq	%rbp, %rbp
	jne	.L884
	jmp	.L875
	.p2align 4,,10
	.p2align 3
.L788:
	xorl	%eax, %eax
	testq	%r12, %r12
	jne	.L896
	jmp	.L800
	.p2align 4,,10
	.p2align 3
.L813:
	xorl	%eax, %eax
	testq	%r12, %r12
	jne	.L892
	jmp	.L825
	.p2align 4,,10
	.p2align 3
.L838:
	xorl	%eax, %eax
	testq	%r12, %r12
	jne	.L887
	jmp	.L850
	.p2align 4,,10
	.p2align 3
.L829:
	lock addl	$1, 8(%r12)
	jmp	.L828
	.p2align 4,,10
	.p2align 3
.L827:
	lock addl	$1, 8(%r12)
	jmp	.L826
	.p2align 4,,10
	.p2align 3
.L852:
	lock addl	$1, 8(%rbp)
	jmp	.L851
	.p2align 4,,10
	.p2align 3
.L854:
	lock addl	$1, 8(%rbp)
	jmp	.L853
	.p2align 4,,10
	.p2align 3
.L802:
	lock addl	$1, 8(%r12)
	jmp	.L801
	.p2align 4,,10
	.p2align 3
.L804:
	lock addl	$1, 8(%r12)
	jmp	.L803
	.p2align 4,,10
	.p2align 3
.L777:
	lock addl	$1, 8(%r12)
	jmp	.L776
	.p2align 4,,10
	.p2align 3
.L779:
	lock addl	$1, 8(%r12)
	jmp	.L778
	.p2align 4,,10
	.p2align 3
.L1003:
	movq	0(%rbp), %rax
	movq	%rbp, %rdi
	call	*16(%rax)
	cmpb	$0, __libc_single_threaded(%rip)
	je	.L872
	movl	12(%rbp), %eax
	leal	-1(%rax), %edx
	movl	%edx, 12(%rbp)
.L873:
	cmpl	$1, %eax
	jne	.L871
	movq	0(%rbp), %rax
	movq	%rbp, %rdi
	call	*24(%rax)
	jmp	.L871
	.p2align 4,,10
	.p2align 3
.L1002:
	movq	0(%r13), %rax
	movq	%r13, %rdi
	call	*16(%rax)
	cmpb	$0, __libc_single_threaded(%rip)
	je	.L860
	movl	12(%r13), %eax
	leal	-1(%rax), %edx
	movl	%edx, 12(%r13)
.L861:
	cmpl	$1, %eax
	jne	.L856
	movq	0(%r13), %rax
	movq	%r13, %rdi
	call	*24(%rax)
	jmp	.L856
	.p2align 4,,10
	.p2align 3
.L999:
	movq	(%r12), %rdx
	movb	%al, 48(%rsp)
	movq	%r12, %rdi
	call	*16(%rdx)
	cmpb	$0, __libc_single_threaded(%rip)
	movzbl	48(%rsp), %eax
	je	.L822
	movl	12(%r12), %edx
	leal	-1(%rdx), %ecx
	movl	%ecx, 12(%r12)
.L823:
	cmpl	$1, %edx
	jne	.L821
	movq	(%r12), %rdx
	movb	%al, 48(%rsp)
	movq	%r12, %rdi
	call	*24(%rdx)
	movzbl	48(%rsp), %eax
	jmp	.L821
	.p2align 4,,10
	.p2align 3
.L996:
	movq	(%rdi), %rdx
	movb	%al, 63(%rsp)
	movq	%rdi, 48(%rsp)
	call	*16(%rdx)
	cmpb	$0, __libc_single_threaded(%rip)
	movq	48(%rsp), %rdi
	movzbl	63(%rsp), %eax
	je	.L785
	movl	12(%rdi), %edx
	leal	-1(%rdx), %ecx
	movl	%ecx, 12(%rdi)
.L786:
	cmpl	$1, %edx
	jne	.L781
	movq	(%rdi), %rdx
	movb	%al, 48(%rsp)
	call	*24(%rdx)
	movzbl	48(%rsp), %eax
	jmp	.L781
	.p2align 4,,10
	.p2align 3
.L1000:
	movq	(%rdi), %rdx
	movb	%al, 63(%rsp)
	movq	%rdi, 48(%rsp)
	call	*16(%rdx)
	cmpb	$0, __libc_single_threaded(%rip)
	movq	48(%rsp), %rdi
	movzbl	63(%rsp), %eax
	je	.L835
	movl	12(%rdi), %edx
	leal	-1(%rdx), %ecx
	movl	%ecx, 12(%rdi)
.L836:
	cmpl	$1, %edx
	jne	.L831
	movq	(%rdi), %rdx
	movb	%al, 48(%rsp)
	call	*24(%rdx)
	movzbl	48(%rsp), %eax
	jmp	.L831
	.p2align 4,,10
	.p2align 3
.L1001:
	movq	(%r12), %rdx
	movb	%al, 48(%rsp)
	movq	%r12, %rdi
	call	*16(%rdx)
	cmpb	$0, __libc_single_threaded(%rip)
	movzbl	48(%rsp), %eax
	je	.L847
	movl	12(%r12), %edx
	leal	-1(%rdx), %ecx
	movl	%ecx, 12(%r12)
.L848:
	cmpl	$1, %edx
	jne	.L846
	movq	(%r12), %rdx
	movb	%al, 48(%rsp)
	movq	%r12, %rdi
	call	*24(%rdx)
	movzbl	48(%rsp), %eax
	jmp	.L846
	.p2align 4,,10
	.p2align 3
.L997:
	movq	(%r12), %rdx
	movb	%al, 48(%rsp)
	movq	%r12, %rdi
	call	*16(%rdx)
	cmpb	$0, __libc_single_threaded(%rip)
	movzbl	48(%rsp), %eax
	je	.L797
	movl	12(%r12), %edx
	leal	-1(%rdx), %ecx
	movl	%ecx, 12(%r12)
.L798:
	cmpl	$1, %edx
	jne	.L796
	movq	(%r12), %rdx
	movb	%al, 48(%rsp)
	movq	%r12, %rdi
	call	*24(%rdx)
	movzbl	48(%rsp), %eax
	jmp	.L796
	.p2align 4,,10
	.p2align 3
.L998:
	movq	(%rdi), %rdx
	movb	%al, 63(%rsp)
	movq	%rdi, 48(%rsp)
	call	*16(%rdx)
	cmpb	$0, __libc_single_threaded(%rip)
	movq	48(%rsp), %rdi
	movzbl	63(%rsp), %eax
	je	.L810
	movl	12(%rdi), %edx
	leal	-1(%rdx), %ecx
	movl	%ecx, 12(%rdi)
.L811:
	cmpl	$1, %edx
	jne	.L806
	movq	(%rdi), %rdx
	movb	%al, 48(%rsp)
	call	*24(%rdx)
	movzbl	48(%rsp), %eax
	jmp	.L806
	.p2align 4,,10
	.p2align 3
.L868:
	movl	$-1, %eax
	lock xaddl	%eax, 8(%rbp)
	jmp	.L869
	.p2align 4,,10
	.p2align 3
.L857:
	movl	$-1, %eax
	lock xaddl	%eax, 8(%r13)
	jmp	.L858
	.p2align 4,,10
	.p2align 3
.L818:
	movl	$-1, %edx
	lock xaddl	%edx, 8(%r12)
	jmp	.L819
	.p2align 4,,10
	.p2align 3
.L782:
	movl	$-1, %edx
	lock xaddl	%edx, 8(%rdi)
	jmp	.L783
	.p2align 4,,10
	.p2align 3
.L843:
	movl	$-1, %edx
	lock xaddl	%edx, 8(%r12)
	jmp	.L844
	.p2align 4,,10
	.p2align 3
.L793:
	movl	$-1, %edx
	lock xaddl	%edx, 8(%r12)
	jmp	.L794
	.p2align 4,,10
	.p2align 3
.L832:
	movl	$-1, %edx
	lock xaddl	%edx, 8(%rdi)
	jmp	.L833
	.p2align 4,,10
	.p2align 3
.L807:
	movl	$-1, %edx
	lock xaddl	%edx, 8(%rdi)
	jmp	.L808
	.p2align 4,,10
	.p2align 3
.L785:
	movl	$-1, %edx
	lock xaddl	%edx, 12(%rdi)
	jmp	.L786
	.p2align 4,,10
	.p2align 3
.L797:
	movl	$-1, %edx
	lock xaddl	%edx, 12(%r12)
	jmp	.L798
	.p2align 4,,10
	.p2align 3
.L810:
	movl	$-1, %edx
	lock xaddl	%edx, 12(%rdi)
	jmp	.L811
	.p2align 4,,10
	.p2align 3
.L872:
	movl	$-1, %eax
	lock xaddl	%eax, 12(%rbp)
	jmp	.L873
	.p2align 4,,10
	.p2align 3
.L835:
	movl	$-1, %edx
	lock xaddl	%edx, 12(%rdi)
	jmp	.L836
	.p2align 4,,10
	.p2align 3
.L847:
	movl	$-1, %edx
	lock xaddl	%edx, 12(%r12)
	jmp	.L848
	.p2align 4,,10
	.p2align 3
.L860:
	movl	$-1, %eax
	lock xaddl	%eax, 12(%r13)
	jmp	.L861
	.p2align 4,,10
	.p2align 3
.L822:
	movl	$-1, %edx
	lock xaddl	%edx, 12(%r12)
	jmp	.L823
	.p2align 4,,10
	.p2align 3
.L995:
	movq	176(%rsp), %rax
	movq	%r13, %rdi
	leaq	1(%rax), %rsi
	call	_ZdlPvm@PLT
	jmp	.L774
.L992:
	call	__stack_chk_fail@PLT
.L907:
	endbr64
.L986:
	movq	%rax, %rbp
	jmp	.L841
.L911:
	endbr64
.L990:
	movq	%rax, %rbp
.L839:
	movq	104(%rsp), %rdi
	testq	%rdi, %rdi
	je	.L841
	call	_ZNSt16_Sp_counted_baseILN9__gnu_cxx12_Lock_policyE2EE10_M_releaseEv
.L841:
	testq	%r12, %r12
	je	.L881
	movq	%r12, %rdi
	call	_ZNSt16_Sp_counted_baseILN9__gnu_cxx12_Lock_policyE2EE10_M_releaseEv
.L881:
	movq	%rbp, %rdi
.LEHB36:
	call	_Unwind_Resume@PLT
.L912:
	endbr64
	jmp	.L990
.L908:
	endbr64
	jmp	.L986
.L909:
	endbr64
	jmp	.L986
.L913:
	endbr64
	jmp	.L990
.L914:
	endbr64
	movq	%rax, %r12
	jmp	.L864
.L910:
	endbr64
	movq	%rax, %r12
	jmp	.L866
.L864:
	movq	104(%rsp), %rdi
	testq	%rdi, %rdi
	je	.L866
	call	_ZNSt16_Sp_counted_baseILN9__gnu_cxx12_Lock_policyE2EE10_M_releaseEv
.L866:
	testq	%rbp, %rbp
	je	.L882
	movq	%rbp, %rdi
	call	_ZNSt16_Sp_counted_baseILN9__gnu_cxx12_Lock_policyE2EE10_M_releaseEv
.L882:
	movq	%r12, %rdi
	call	_Unwind_Resume@PLT
.LEHE36:
	.cfi_endproc
.LFE12033:
	.section	.gcc_except_table
.LLSDA12033:
	.byte	0xff
	.byte	0xff
	.byte	0x1
	.uleb128 .LLSDACSE12033-.LLSDACSB12033
.LLSDACSB12033:
	.uleb128 .LEHB27-.LFB12033
	.uleb128 .LEHE27-.LEHB27
	.uleb128 0
	.uleb128 0
	.uleb128 .LEHB28-.LFB12033
	.uleb128 .LEHE28-.LEHB28
	.uleb128 .L907-.LFB12033
	.uleb128 0
	.uleb128 .LEHB29-.LFB12033
	.uleb128 .LEHE29-.LEHB29
	.uleb128 .L911-.LFB12033
	.uleb128 0
	.uleb128 .LEHB30-.LFB12033
	.uleb128 .LEHE30-.LEHB30
	.uleb128 .L908-.LFB12033
	.uleb128 0
	.uleb128 .LEHB31-.LFB12033
	.uleb128 .LEHE31-.LEHB31
	.uleb128 .L912-.LFB12033
	.uleb128 0
	.uleb128 .LEHB32-.LFB12033
	.uleb128 .LEHE32-.LEHB32
	.uleb128 .L909-.LFB12033
	.uleb128 0
	.uleb128 .LEHB33-.LFB12033
	.uleb128 .LEHE33-.LEHB33
	.uleb128 .L913-.LFB12033
	.uleb128 0
	.uleb128 .LEHB34-.LFB12033
	.uleb128 .LEHE34-.LEHB34
	.uleb128 .L910-.LFB12033
	.uleb128 0
	.uleb128 .LEHB35-.LFB12033
	.uleb128 .LEHE35-.LEHB35
	.uleb128 .L914-.LFB12033
	.uleb128 0
	.uleb128 .LEHB36-.LFB12033
	.uleb128 .LEHE36-.LEHB36
	.uleb128 0
	.uleb128 0
.LLSDACSE12033:
	.section	.text._ZN10Rigid_body12on_collisionER6EngineSt10shared_ptrI6EntityE,"axG",@progbits,_ZN10Rigid_body12on_collisionER6EngineSt10shared_ptrI6EntityE,comdat
	.size	_ZN10Rigid_body12on_collisionER6EngineSt10shared_ptrI6EntityE, .-_ZN10Rigid_body12on_collisionER6EngineSt10shared_ptrI6EntityE
	.section	.text._ZN6Geralt12on_collisionER6EngineSt10shared_ptrI6EntityE,"axG",@progbits,_ZN6Geralt12on_collisionER6EngineSt10shared_ptrI6EntityE,comdat
	.align 2
	.p2align 4
	.weak	_ZN6Geralt12on_collisionER6EngineSt10shared_ptrI6EntityE
	.type	_ZN6Geralt12on_collisionER6EngineSt10shared_ptrI6EntityE, @function
_ZN6Geralt12on_collisionER6EngineSt10shared_ptrI6EntityE:
.LFB12046:
	.cfi_startproc
	.cfi_personality 0x9b,DW.ref.__gxx_personality_v0
	.cfi_lsda 0x1b,.LLSDA12046
	endbr64
	pushq	%r15
	.cfi_def_cfa_offset 16
	.cfi_offset 15, -16
	pushq	%r14
	.cfi_def_cfa_offset 24
	.cfi_offset 14, -24
	pushq	%r13
	.cfi_def_cfa_offset 32
	.cfi_offset 13, -32
	movq	%rsi, %r13
	pushq	%r12
	.cfi_def_cfa_offset 40
	.cfi_offset 12, -40
	movq	%rdi, %r12
	pushq	%rbp
	.cfi_def_cfa_offset 48
	.cfi_offset 6, -48
	pushq	%rbx
	.cfi_def_cfa_offset 56
	.cfi_offset 3, -56
	movq	%rdx, %rbx
	subq	$72, %rsp
	.cfi_def_cfa_offset 128
	movq	(%rdx), %rsi
	movq	%fs:40, %rax
	movq	%rax, 56(%rsp)
	xorl	%eax, %eax
	leaq	16(%rsp), %rdi
.LEHB37:
	call	_ZNK6Entity15get_entity_nameB5cxx11Ev@PLT
.LEHE37:
	movq	24(%rsp), %rbp
	movq	16(%rsp), %r14
	cmpq	$5, %rbp
	ja	.L1046
	testq	%rbp, %rbp
	jne	.L1047
	leaq	32(%rsp), %rax
	cmpq	%rax, %r14
	je	.L1024
	movq	32(%rsp), %rax
	movq	%r14, %rdi
	leaq	1(%rax), %rsi
	call	_ZdlPvm@PLT
.L1024:
	movdqu	(%rbx), %xmm0
	movaps	%xmm0, (%rsp)
	movq	8(%rsp), %rax
	testq	%rax, %rax
	je	.L1012
	cmpb	$0, __libc_single_threaded(%rip)
	je	.L1013
	addl	$1, 8(%rax)
.L1012:
	movq	%rsp, %rdx
	movq	%r13, %rsi
	movq	%r12, %rdi
.LEHB38:
	call	_ZN10Rigid_body12on_collisionER6EngineSt10shared_ptrI6EntityE
.LEHE38:
	movq	8(%rsp), %rbp
	testq	%rbp, %rbp
	je	.L1004
	cmpb	$0, __libc_single_threaded(%rip)
	je	.L1016
	movl	8(%rbp), %eax
	leal	-1(%rax), %edx
	movl	%edx, 8(%rbp)
.L1017:
	cmpl	$1, %eax
	jne	.L1004
	movq	0(%rbp), %rax
	movq	%rbp, %rdi
	call	*16(%rax)
	cmpb	$0, __libc_single_threaded(%rip)
	je	.L1019
	movl	12(%rbp), %eax
	leal	-1(%rax), %edx
	movl	%edx, 12(%rbp)
.L1020:
	cmpl	$1, %eax
	je	.L1048
	.p2align 4,,10
	.p2align 3
.L1004:
	movq	56(%rsp), %rax
	subq	%fs:40, %rax
	jne	.L1045
	addq	$72, %rsp
	.cfi_remember_state
	.cfi_def_cfa_offset 56
	popq	%rbx
	.cfi_def_cfa_offset 48
	popq	%rbp
	.cfi_def_cfa_offset 40
	popq	%r12
	.cfi_def_cfa_offset 32
	popq	%r13
	.cfi_def_cfa_offset 24
	popq	%r14
	.cfi_def_cfa_offset 16
	popq	%r15
	.cfi_def_cfa_offset 8
	ret
	.p2align 4,,10
	.p2align 3
.L1046:
	.cfi_restore_state
	movl	$5, %edx
	leaq	.LC7(%rip), %rsi
	movq	%r14, %rdi
	call	memcmp@PLT
	movl	%eax, %r15d
	testl	%eax, %eax
	jne	.L1007
	subq	$5, %rbp
	movl	$2147483647, %r15d
	cmpq	$2147483647, %rbp
	jle	.L1049
.L1007:
	leaq	32(%rsp), %rax
	cmpq	%rax, %r14
	je	.L1024
.L1025:
	movq	32(%rsp), %rax
	movq	%r14, %rdi
	leaq	1(%rax), %rsi
	call	_ZdlPvm@PLT
.L1010:
	testl	%r15d, %r15d
	je	.L1004
	jmp	.L1024
	.p2align 4,,10
	.p2align 3
.L1047:
	movq	%rbp, %rdx
	leaq	.LC7(%rip), %rsi
	movq	%r14, %rdi
	call	memcmp@PLT
	movl	%eax, %r15d
	testl	%eax, %eax
	jne	.L1007
	subq	$5, %rbp
.L1028:
	leaq	32(%rsp), %rax
	movl	%ebp, %r15d
	cmpq	%rax, %r14
	jne	.L1025
	jmp	.L1010
	.p2align 4,,10
	.p2align 3
.L1016:
	movl	$-1, %eax
	lock xaddl	%eax, 8(%rbp)
	jmp	.L1017
	.p2align 4,,10
	.p2align 3
.L1013:
	lock addl	$1, 8(%rax)
	jmp	.L1012
	.p2align 4,,10
	.p2align 3
.L1048:
	movq	56(%rsp), %rax
	subq	%fs:40, %rax
	jne	.L1045
	movq	0(%rbp), %rax
	movq	%rbp, %rdi
	movq	24(%rax), %rax
	addq	$72, %rsp
	.cfi_remember_state
	.cfi_def_cfa_offset 56
	popq	%rbx
	.cfi_def_cfa_offset 48
	popq	%rbp
	.cfi_def_cfa_offset 40
	popq	%r12
	.cfi_def_cfa_offset 32
	popq	%r13
	.cfi_def_cfa_offset 24
	popq	%r14
	.cfi_def_cfa_offset 16
	popq	%r15
	.cfi_def_cfa_offset 8
	jmp	*%rax
	.p2align 4,,10
	.p2align 3
.L1049:
	.cfi_restore_state
	cmpq	$-2147483648, %rbp
	jge	.L1028
	movl	$-2147483648, %r15d
	jmp	.L1007
	.p2align 4,,10
	.p2align 3
.L1019:
	movl	$-1, %eax
	lock xaddl	%eax, 12(%rbp)
	jmp	.L1020
.L1045:
	call	__stack_chk_fail@PLT
.L1033:
	endbr64
	movq	%rax, %rbp
.L1022:
	movq	8(%rsp), %rdi
	testq	%rdi, %rdi
	je	.L1023
	call	_ZNSt16_Sp_counted_baseILN9__gnu_cxx12_Lock_policyE2EE10_M_releaseEv
.L1023:
	movq	%rbp, %rdi
.LEHB39:
	call	_Unwind_Resume@PLT
.LEHE39:
	.cfi_endproc
.LFE12046:
	.section	.gcc_except_table
.LLSDA12046:
	.byte	0xff
	.byte	0xff
	.byte	0x1
	.uleb128 .LLSDACSE12046-.LLSDACSB12046
.LLSDACSB12046:
	.uleb128 .LEHB37-.LFB12046
	.uleb128 .LEHE37-.LEHB37
	.uleb128 0
	.uleb128 0
	.uleb128 .LEHB38-.LFB12046
	.uleb128 .LEHE38-.LEHB38
	.uleb128 .L1033-.LFB12046
	.uleb128 0
	.uleb128 .LEHB39-.LFB12046
	.uleb128 .LEHE39-.LEHB39
	.uleb128 0
	.uleb128 0
.LLSDACSE12046:
	.section	.text._ZN6Geralt12on_collisionER6EngineSt10shared_ptrI6EntityE,"axG",@progbits,_ZN6Geralt12on_collisionER6EngineSt10shared_ptrI6EntityE,comdat
	.size	_ZN6Geralt12on_collisionER6EngineSt10shared_ptrI6EntityE, .-_ZN6Geralt12on_collisionER6EngineSt10shared_ptrI6EntityE
	.section	.rodata._ZN5Apple12on_collisionER6EngineSt10shared_ptrI6EntityE.str1.1,"aMS",@progbits,1
.LC33:
	.string	"Geralt"
	.section	.text._ZN5Apple12on_collisionER6EngineSt10shared_ptrI6EntityE,"axG",@progbits,_ZN5Apple12on_collisionER6EngineSt10shared_ptrI6EntityE,comdat
	.align 2
	.p2align 4
	.weak	_ZN5Apple12on_collisionER6EngineSt10shared_ptrI6EntityE
	.type	_ZN5Apple12on_collisionER6EngineSt10shared_ptrI6EntityE, @function
_ZN5Apple12on_collisionER6EngineSt10shared_ptrI6EntityE:
.LFB12052:
	.cfi_startproc
	.cfi_personality 0x9b,DW.ref.__gxx_personality_v0
	.cfi_lsda 0x1b,.LLSDA12052
	endbr64
	pushq	%r15
	.cfi_def_cfa_offset 16
	.cfi_offset 15, -16
	pushq	%r14
	.cfi_def_cfa_offset 24
	.cfi_offset 14, -24
	pushq	%r13
	.cfi_def_cfa_offset 32
	.cfi_offset 13, -32
	pushq	%r12
	.cfi_def_cfa_offset 40
	.cfi_offset 12, -40
	movq	%rsi, %r12
	pushq	%rbp
	.cfi_def_cfa_offset 48
	.cfi_offset 6, -48
	movq	%rdi, %rbp
	pushq	%rbx
	.cfi_def_cfa_offset 56
	.cfi_offset 3, -56
	movq	%rdx, %rbx
	subq	$72, %rsp
	.cfi_def_cfa_offset 128
	movq	(%rdx), %rsi
	movq	%fs:40, %rax
	movq	%rax, 56(%rsp)
	xorl	%eax, %eax
	leaq	16(%rsp), %rdi
.LEHB40:
	call	_ZNK6Entity15get_entity_nameB5cxx11Ev@PLT
.LEHE40:
	movq	24(%rsp), %r13
	movq	16(%rsp), %r14
	cmpq	$6, %r13
	ja	.L1088
	testq	%r13, %r13
	jne	.L1089
	leaq	32(%rsp), %rax
	cmpq	%rax, %r14
	je	.L1057
	movq	32(%rsp), %rax
	movq	%r14, %rdi
	leaq	1(%rax), %rsi
	call	_ZdlPvm@PLT
.L1057:
	movdqu	(%rbx), %xmm0
	movaps	%xmm0, (%rsp)
	movq	8(%rsp), %rax
	testq	%rax, %rax
	je	.L1058
	cmpb	$0, __libc_single_threaded(%rip)
	je	.L1059
	addl	$1, 8(%rax)
.L1058:
	movq	%rsp, %rdx
	movq	%r12, %rsi
	movq	%rbp, %rdi
.LEHB41:
	call	_ZN10Rigid_body12on_collisionER6EngineSt10shared_ptrI6EntityE
.LEHE41:
	movq	8(%rsp), %rbp
	testq	%rbp, %rbp
	je	.L1050
	cmpb	$0, __libc_single_threaded(%rip)
	je	.L1062
	movl	8(%rbp), %eax
	leal	-1(%rax), %edx
	movl	%edx, 8(%rbp)
.L1063:
	cmpl	$1, %eax
	je	.L1090
.L1050:
	movq	56(%rsp), %rax
	subq	%fs:40, %rax
	jne	.L1087
	addq	$72, %rsp
	.cfi_remember_state
	.cfi_def_cfa_offset 56
	popq	%rbx
	.cfi_def_cfa_offset 48
	popq	%rbp
	.cfi_def_cfa_offset 40
	popq	%r12
	.cfi_def_cfa_offset 32
	popq	%r13
	.cfi_def_cfa_offset 24
	popq	%r14
	.cfi_def_cfa_offset 16
	popq	%r15
	.cfi_def_cfa_offset 8
	ret
	.p2align 4,,10
	.p2align 3
.L1088:
	.cfi_restore_state
	movl	$6, %edx
	leaq	.LC33(%rip), %rsi
	movq	%r14, %rdi
	call	memcmp@PLT
	movl	%eax, %r15d
	testl	%eax, %eax
	jne	.L1053
	subq	$6, %r13
	movl	$2147483647, %r15d
	cmpq	$2147483647, %r13
	jle	.L1091
.L1053:
	leaq	32(%rsp), %rax
	cmpq	%rax, %r14
	je	.L1057
.L1070:
	movq	32(%rsp), %rax
	movq	%r14, %rdi
	leaq	1(%rax), %rsi
	call	_ZdlPvm@PLT
.L1056:
	testl	%r15d, %r15d
	jne	.L1057
	movq	%rbp, %rdi
.LEHB42:
	call	_ZN6Entity7destroyEv@PLT
	jmp	.L1057
	.p2align 4,,10
	.p2align 3
.L1059:
	lock addl	$1, 8(%rax)
	jmp	.L1058
	.p2align 4,,10
	.p2align 3
.L1089:
	movq	%r13, %rdx
	leaq	.LC33(%rip), %rsi
	movq	%r14, %rdi
	call	memcmp@PLT
	movl	%eax, %r15d
	testl	%eax, %eax
	jne	.L1053
	subq	$6, %r13
.L1073:
	leaq	32(%rsp), %rax
	movl	%r13d, %r15d
	cmpq	%rax, %r14
	jne	.L1070
	jmp	.L1056
	.p2align 4,,10
	.p2align 3
.L1090:
	movq	0(%rbp), %rax
	movq	%rbp, %rdi
	call	*16(%rax)
	cmpb	$0, __libc_single_threaded(%rip)
	je	.L1065
	movl	12(%rbp), %eax
	leal	-1(%rax), %edx
	movl	%edx, 12(%rbp)
.L1066:
	cmpl	$1, %eax
	jne	.L1050
	movq	56(%rsp), %rax
	subq	%fs:40, %rax
	jne	.L1087
	movq	0(%rbp), %rax
	movq	%rbp, %rdi
	movq	24(%rax), %rax
	addq	$72, %rsp
	.cfi_remember_state
	.cfi_def_cfa_offset 56
	popq	%rbx
	.cfi_def_cfa_offset 48
	popq	%rbp
	.cfi_def_cfa_offset 40
	popq	%r12
	.cfi_def_cfa_offset 32
	popq	%r13
	.cfi_def_cfa_offset 24
	popq	%r14
	.cfi_def_cfa_offset 16
	popq	%r15
	.cfi_def_cfa_offset 8
	jmp	*%rax
	.p2align 4,,10
	.p2align 3
.L1062:
	.cfi_restore_state
	movl	$-1, %eax
	lock xaddl	%eax, 8(%rbp)
	jmp	.L1063
	.p2align 4,,10
	.p2align 3
.L1065:
	movl	$-1, %eax
	lock xaddl	%eax, 12(%rbp)
	jmp	.L1066
	.p2align 4,,10
	.p2align 3
.L1091:
	cmpq	$-2147483648, %r13
	jge	.L1073
	movl	$-2147483648, %r15d
	jmp	.L1053
.L1087:
	call	__stack_chk_fail@PLT
.L1078:
	endbr64
	movq	%rax, %rbp
.L1068:
	movq	8(%rsp), %rdi
	testq	%rdi, %rdi
	je	.L1069
	call	_ZNSt16_Sp_counted_baseILN9__gnu_cxx12_Lock_policyE2EE10_M_releaseEv
.L1069:
	movq	%rbp, %rdi
	call	_Unwind_Resume@PLT
.LEHE42:
	.cfi_endproc
.LFE12052:
	.section	.gcc_except_table
.LLSDA12052:
	.byte	0xff
	.byte	0xff
	.byte	0x1
	.uleb128 .LLSDACSE12052-.LLSDACSB12052
.LLSDACSB12052:
	.uleb128 .LEHB40-.LFB12052
	.uleb128 .LEHE40-.LEHB40
	.uleb128 0
	.uleb128 0
	.uleb128 .LEHB41-.LFB12052
	.uleb128 .LEHE41-.LEHB41
	.uleb128 .L1078-.LFB12052
	.uleb128 0
	.uleb128 .LEHB42-.LFB12052
	.uleb128 .LEHE42-.LEHB42
	.uleb128 0
	.uleb128 0
.LLSDACSE12052:
	.section	.text._ZN5Apple12on_collisionER6EngineSt10shared_ptrI6EntityE,"axG",@progbits,_ZN5Apple12on_collisionER6EngineSt10shared_ptrI6EntityE,comdat
	.size	_ZN5Apple12on_collisionER6EngineSt10shared_ptrI6EntityE, .-_ZN5Apple12on_collisionER6EngineSt10shared_ptrI6EntityE
	.section	.rodata._ZN12Lemming_hero12on_collisionER6EngineSt10shared_ptrI6EntityE.str1.1,"aMS",@progbits,1
.LC34:
	.string	"MAP"
.LC35:
	.string	"Lemming"
.LC37:
	.string	"Gate"
.LC38:
	.string	"Liquid"
	.section	.text._ZN12Lemming_hero12on_collisionER6EngineSt10shared_ptrI6EntityE,"axG",@progbits,_ZN12Lemming_hero12on_collisionER6EngineSt10shared_ptrI6EntityE,comdat
	.align 2
	.p2align 4
	.weak	_ZN12Lemming_hero12on_collisionER6EngineSt10shared_ptrI6EntityE
	.type	_ZN12Lemming_hero12on_collisionER6EngineSt10shared_ptrI6EntityE, @function
_ZN12Lemming_hero12on_collisionER6EngineSt10shared_ptrI6EntityE:
.LFB12101:
	.cfi_startproc
	.cfi_personality 0x9b,DW.ref.__gxx_personality_v0
	.cfi_lsda 0x1b,.LLSDA12101
	endbr64
	pushq	%r15
	.cfi_def_cfa_offset 16
	.cfi_offset 15, -16
	pushq	%r14
	.cfi_def_cfa_offset 24
	.cfi_offset 14, -24
	pushq	%r13
	.cfi_def_cfa_offset 32
	.cfi_offset 13, -32
	pushq	%r12
	.cfi_def_cfa_offset 40
	.cfi_offset 12, -40
	movq	%rsi, %r12
	pushq	%rbp
	.cfi_def_cfa_offset 48
	.cfi_offset 6, -48
	movq	%rdi, %rbp
	pushq	%rbx
	.cfi_def_cfa_offset 56
	.cfi_offset 3, -56
	movq	%rdx, %rbx
	subq	$216, %rsp
	.cfi_def_cfa_offset 272
	movss	144(%rdi), %xmm5
	movq	(%rdx), %rsi
	movq	%fs:40, %rax
	movq	%rax, 200(%rsp)
	xorl	%eax, %eax
	movss	148(%rdi), %xmm6
	leaq	128(%rsp), %rdi
	movss	%xmm5, 24(%rsp)
	movss	%xmm6, 4(%rsp)
.LEHB43:
	call	_ZNK6Entity15get_entity_nameB5cxx11Ev@PLT
.LEHE43:
	movq	136(%rsp), %r13
	movq	128(%rsp), %r14
	cmpq	$3, %r13
	ja	.L1287
	testq	%r13, %r13
	jne	.L1288
.L1097:
	leaq	160(%rsp), %r14
	movq	(%rbx), %rsi
	movq	%r14, %rdi
.LEHB44:
	call	_ZNK6Entity15get_entity_nameB5cxx11Ev@PLT
.LEHE44:
	movq	168(%rsp), %r13
	movq	160(%rsp), %rdi
	cmpq	$7, %r13
	ja	.L1289
	movq	$-7, %rax
	testq	%r13, %r13
	jne	.L1290
.L1105:
	testl	%eax, %eax
	sete	%r15b
.L1104:
	leaq	176(%rsp), %r13
	cmpq	%r13, %rdi
	je	.L1109
	movq	176(%rsp), %rax
	leaq	1(%rax), %rsi
	call	_ZdlPvm@PLT
.L1109:
	movq	128(%rsp), %rdi
	leaq	144(%rsp), %rax
	cmpq	%rax, %rdi
	je	.L1110
	movq	144(%rsp), %rax
	leaq	1(%rax), %rsi
	call	_ZdlPvm@PLT
.L1110:
	testb	%r15b, %r15b
	jne	.L1108
	leaq	80(%rsp), %r15
	jmp	.L1111
	.p2align 4,,10
	.p2align 3
.L1287:
	cmpw	$16717, (%r14)
	jne	.L1097
	cmpb	$80, 2(%r14)
	jne	.L1097
	subq	$3, %r13
	cmpq	$2147483647, %r13
	jg	.L1097
	cmpq	$-2147483648, %r13
	jl	.L1097
	jmp	.L1216
	.p2align 4,,10
	.p2align 3
.L1288:
	movq	%r13, %rdx
	leaq	.LC34(%rip), %rsi
	movq	%r14, %rdi
	call	memcmp@PLT
	testl	%eax, %eax
	jne	.L1097
	subq	$3, %r13
.L1216:
	testl	%r13d, %r13d
	jne	.L1097
	leaq	144(%rsp), %rax
	cmpq	%rax, %r14
	je	.L1283
	movq	144(%rsp), %rax
	movq	%r14, %rdi
	leaq	1(%rax), %rsi
	call	_ZdlPvm@PLT
.L1283:
	leaq	160(%rsp), %r14
	leaq	176(%rsp), %r13
.L1108:
	movq	(%rbx), %rsi
	movq	%r14, %rdi
.LEHB45:
	call	_ZNK6Entity15get_entity_nameB5cxx11Ev@PLT
.LEHE45:
	movq	168(%rsp), %r15
	movq	160(%rsp), %rdi
	cmpq	$7, %r15
	ja	.L1291
	testq	%r15, %r15
	jne	.L1292
	cmpq	%r13, %rdi
	je	.L1118
	movq	176(%rsp), %rax
	leaq	1(%rax), %rsi
	call	_ZdlPvm@PLT
.L1118:
	movq	(%rbx), %rax
	movq	%rax, 16(%rsp)
	movq	8(%rbx), %rax
	movq	%rax, 8(%rsp)
	testq	%rax, %rax
	je	.L1135
	cmpb	$0, __libc_single_threaded(%rip)
	je	.L1136
	addl	$1, 8(%rax)
.L1135:
	movq	160(%rbp), %rax
	leaq	80(%rsp), %r15
	leaq	56(%rsp), %rdi
	movq	%rbp, %rsi
	movq	%r15, %rdx
	movq	%rax, 80(%rsp)
.LEHB46:
	call	_ZNK6Entity14local_to_worldE6Point2IfE@PLT
.LEHE46:
	movq	8(%rsp), %rcx
	movq	16(%rsp), %xmm0
	movq	56(%rsp), %rax
	movq	%rcx, %xmm6
	punpcklqdq	%xmm6, %xmm0
	movaps	%xmm0, 64(%rsp)
	testq	%rcx, %rcx
	je	.L1137
	cmpb	$0, __libc_single_threaded(%rip)
	je	.L1138
	addl	$1, 8(%rcx)
.L1137:
	leaq	48(%rsp), %rcx
	leaq	64(%rsp), %rdx
	movq	%r15, %rsi
	movq	%r12, %rdi
	leaq	44(%rsp), %r9
	leaq	52(%rsp), %r8
	movq	%rax, 80(%rsp)
	movaps	.LC12(%rip), %xmm0
	movb	$0, 120(%rsp)
	movups	%xmm0, 88(%rsp)
	movaps	.LC13(%rip), %xmm0
	movups	%xmm0, 104(%rsp)
.LEHB47:
	call	_ZN10Rigid_body8distanceER6Engine3RaySt10shared_ptrI6EntityERfS6_S6_.isra.0
.LEHE47:
	movq	72(%rsp), %rdi
	testq	%rdi, %rdi
	je	.L1140
	cmpb	$0, __libc_single_threaded(%rip)
	je	.L1141
	movl	8(%rdi), %edx
	leal	-1(%rdx), %ecx
	movl	%ecx, 8(%rdi)
.L1142:
	cmpl	$1, %edx
	je	.L1293
.L1140:
	testb	%al, %al
	je	.L1147
	movsd	.LC36(%rip), %xmm1
	pxor	%xmm0, %xmm0
	cvtss2sd	44(%rsp), %xmm0
	comisd	%xmm0, %xmm1
	jbe	.L1147
	cmpq	$0, 8(%rsp)
	je	.L1159
.L1201:
	cmpb	$0, __libc_single_threaded(%rip)
	je	.L1152
	movq	8(%rsp), %rsi
	movl	8(%rsi), %edx
	leal	-1(%rdx), %ecx
	movl	%ecx, 8(%rsi)
.L1153:
	cmpl	$1, %edx
	je	.L1294
.L1155:
	testb	%al, %al
	je	.L1111
.L1159:
	movl	548(%rbp), %eax
	andl	$-5, %eax
	cmpl	$2, %eax
	je	.L1295
	.p2align 4,,10
	.p2align 3
.L1111:
	movq	(%rbx), %rsi
	movq	%r14, %rdi
.LEHB48:
	call	_ZNK6Entity15get_entity_nameB5cxx11Ev@PLT
	movq	168(%rsp), %rcx
	cmpq	$4, %rcx
	ja	.L1296
	movq	160(%rsp), %rdi
	testq	%rcx, %rcx
	jne	.L1297
	pxor	%xmm5, %xmm5
	movss	%xmm5, 8(%rsp)
	cmpq	%r13, %rdi
	je	.L1168
	movq	176(%rsp), %rax
	leaq	1(%rax), %rsi
	call	_ZdlPvm@PLT
.L1168:
	movq	(%rbx), %rsi
	movq	%r14, %rdi
	call	_ZNK6Entity15get_entity_nameB5cxx11Ev@PLT
.LEHE48:
	movq	168(%rsp), %r14
	movq	160(%rsp), %rdi
	cmpq	$6, %r14
	ja	.L1298
	testq	%r14, %r14
	jne	.L1299
	cmpq	%r13, %rdi
	je	.L1175
	movq	176(%rsp), %rax
	leaq	1(%rax), %rsi
	call	_ZdlPvm@PLT
.L1175:
	movss	24(%rsp), %xmm4
	movss	4(%rsp), %xmm3
	movss	156(%rbp), %xmm1
	comiss	8(%rsp), %xmm1
	movaps	%xmm4, %xmm0
	unpcklps	%xmm3, %xmm0
	movlps	%xmm0, 144(%rbp)
	jbe	.L1176
	movaps	%xmm3, %xmm2
	movaps	%xmm4, %xmm0
	mulss	%xmm3, %xmm2
	mulss	%xmm4, %xmm0
	addss	%xmm2, %xmm0
	comiss	152(%rbp), %xmm0
	ja	.L1300
.L1176:
	movdqu	(%rbx), %xmm6
	movaps	%xmm6, 80(%rsp)
	movq	88(%rsp), %rax
	testq	%rax, %rax
	je	.L1179
	cmpb	$0, __libc_single_threaded(%rip)
	je	.L1180
	addl	$1, 8(%rax)
.L1179:
	movq	%r15, %rdx
	movq	%r12, %rsi
	movq	%rbp, %rdi
.LEHB49:
	call	_ZN10Rigid_body12on_collisionER6EngineSt10shared_ptrI6EntityE
.LEHE49:
	movq	88(%rsp), %rbp
	testq	%rbp, %rbp
	je	.L1092
	cmpb	$0, __libc_single_threaded(%rip)
	je	.L1183
	movl	8(%rbp), %eax
	leal	-1(%rax), %edx
	movl	%edx, 8(%rbp)
.L1184:
	cmpl	$1, %eax
	je	.L1301
.L1092:
	movq	200(%rsp), %rax
	subq	%fs:40, %rax
	jne	.L1286
	addq	$216, %rsp
	.cfi_remember_state
	.cfi_def_cfa_offset 56
	popq	%rbx
	.cfi_def_cfa_offset 48
	popq	%rbp
	.cfi_def_cfa_offset 40
	popq	%r12
	.cfi_def_cfa_offset 32
	popq	%r13
	.cfi_def_cfa_offset 24
	popq	%r14
	.cfi_def_cfa_offset 16
	popq	%r15
	.cfi_def_cfa_offset 8
	ret
	.p2align 4,,10
	.p2align 3
.L1290:
	.cfi_restore_state
	movq	%r13, %rdx
	leaq	.LC35(%rip), %rsi
	movq	%rdi, 8(%rsp)
	call	memcmp@PLT
	movq	8(%rsp), %rdi
	testl	%eax, %eax
	je	.L1215
.L1282:
	xorl	%r15d, %r15d
	jmp	.L1104
	.p2align 4,,10
	.p2align 3
.L1298:
	movl	$6, %edx
	leaq	.LC38(%rip), %rsi
	movq	%rdi, 16(%rsp)
	call	memcmp@PLT
	movq	16(%rsp), %rdi
	testl	%eax, %eax
	jne	.L1171
	subq	$6, %r14
	movl	$2147483647, %eax
	cmpq	$2147483647, %r14
	jle	.L1302
.L1171:
	cmpq	%r13, %rdi
	je	.L1175
.L1197:
	movl	%eax, 16(%rsp)
	movq	176(%rsp), %rax
	leaq	1(%rax), %rsi
	call	_ZdlPvm@PLT
	movl	16(%rsp), %eax
.L1174:
	testl	%eax, %eax
	jne	.L1175
	movl	$12, 548(%rbp)
	movss	8(%rsp), %xmm1
	movss	%xmm1, 4(%rsp)
	movss	%xmm1, 24(%rsp)
	jmp	.L1175
	.p2align 4,,10
	.p2align 3
.L1296:
	movq	160(%rsp), %rdi
	movl	$4, %edx
	movq	%rcx, 16(%rsp)
	leaq	.LC37(%rip), %rsi
	movq	%rdi, 8(%rsp)
	call	memcmp@PLT
	movq	8(%rsp), %rdi
	movq	16(%rsp), %rcx
	testl	%eax, %eax
	jne	.L1164
	subq	$4, %rcx
	movl	$2147483647, %eax
	cmpq	$2147483647, %rcx
	jle	.L1303
.L1164:
	cmpq	%r13, %rdi
	je	.L1284
.L1199:
	movl	%eax, 8(%rsp)
	movq	176(%rsp), %rax
	leaq	1(%rax), %rsi
	call	_ZdlPvm@PLT
	movl	8(%rsp), %eax
.L1167:
	testl	%eax, %eax
	jne	.L1284
	movl	$11, 548(%rbp)
	pxor	%xmm7, %xmm7
	movss	%xmm7, 4(%rsp)
	movss	%xmm7, 8(%rsp)
	movss	%xmm7, 24(%rsp)
	jmp	.L1168
	.p2align 4,,10
	.p2align 3
.L1147:
	xorl	%eax, %eax
	cmpq	$0, 8(%rsp)
	jne	.L1201
	jmp	.L1111
	.p2align 4,,10
	.p2align 3
.L1291:
	movl	$7, %edx
	leaq	.LC35(%rip), %rsi
	movq	%rdi, 8(%rsp)
	call	memcmp@PLT
	movq	8(%rsp), %rdi
	testl	%eax, %eax
	jne	.L1114
	subq	$7, %r15
	movl	$2147483647, %eax
	cmpq	$2147483647, %r15
	jle	.L1304
.L1114:
	cmpq	%r13, %rdi
	je	.L1118
.L1204:
	movl	%eax, 8(%rsp)
	movq	176(%rsp), %rax
	leaq	1(%rax), %rsi
	call	_ZdlPvm@PLT
	movl	8(%rsp), %eax
.L1117:
	movq	(%rbx), %rdi
	testl	%eax, %eax
	jne	.L1118
	testq	%rdi, %rdi
	je	.L1118
	xorl	%ecx, %ecx
	leaq	_ZTI12Lemming_hero(%rip), %rdx
	leaq	_ZTI6Entity(%rip), %rsi
	call	__dynamic_cast@PLT
	testq	%rax, %rax
	je	.L1118
	movq	8(%rbx), %r15
	testq	%r15, %r15
	je	.L1120
	cmpb	$0, __libc_single_threaded(%rip)
	je	.L1121
	addl	$1, 8(%r15)
.L1122:
	cmpl	$3, 548(%rax)
	jne	.L1218
	cmpb	$0, __libc_single_threaded(%rip)
	je	.L1305
	movl	8(%r15), %eax
	leal	-1(%rax), %edx
	movl	%edx, 8(%r15)
.L1132:
	cmpl	$1, %eax
	jne	.L1118
	movq	(%r15), %rax
	movq	%r15, %rdi
	call	*16(%rax)
	cmpb	$0, __libc_single_threaded(%rip)
	je	.L1133
	movl	12(%r15), %eax
	leal	-1(%rax), %edx
	movl	%edx, 12(%r15)
.L1134:
	cmpl	$1, %eax
	jne	.L1118
	movq	(%r15), %rax
	movq	%r15, %rdi
	call	*24(%rax)
	jmp	.L1118
	.p2align 4,,10
	.p2align 3
.L1284:
	pxor	%xmm6, %xmm6
	movss	%xmm6, 8(%rsp)
	jmp	.L1168
	.p2align 4,,10
	.p2align 3
.L1180:
	lock addl	$1, 8(%rax)
	jmp	.L1179
	.p2align 4,,10
	.p2align 3
.L1297:
	movq	%rcx, %rdx
	leaq	.LC37(%rip), %rsi
	movq	%rcx, 16(%rsp)
	movq	%rdi, 8(%rsp)
	call	memcmp@PLT
	movq	8(%rsp), %rdi
	movq	16(%rsp), %rcx
	testl	%eax, %eax
	jne	.L1164
	subq	$4, %rcx
.L1210:
	movl	%ecx, %eax
	cmpq	%r13, %rdi
	jne	.L1199
	jmp	.L1167
	.p2align 4,,10
	.p2align 3
.L1299:
	movq	%r14, %rdx
	leaq	.LC38(%rip), %rsi
	movq	%rdi, 16(%rsp)
	call	memcmp@PLT
	movq	16(%rsp), %rdi
	testl	%eax, %eax
	jne	.L1171
	subq	$6, %r14
.L1207:
	movl	%r14d, %eax
	cmpq	%r13, %rdi
	jne	.L1197
	jmp	.L1174
	.p2align 4,,10
	.p2align 3
.L1300:
	movaps	%xmm0, %xmm2
	rsqrtss	%xmm2, %xmm2
	mulss	%xmm2, %xmm0
	mulss	%xmm2, %xmm0
	mulss	.LC5(%rip), %xmm2
	addss	.LC4(%rip), %xmm0
	mulss	%xmm2, %xmm0
	movaps	%xmm4, %xmm2
	mulss	%xmm1, %xmm2
	mulss	%xmm3, %xmm1
	shufps	$0xe0, %xmm0, %xmm0
	unpcklps	%xmm1, %xmm2
	mulps	%xmm2, %xmm0
	movlps	%xmm0, 144(%rbp)
	jmp	.L1176
	.p2align 4,,10
	.p2align 3
.L1301:
	movq	0(%rbp), %rax
	movq	%rbp, %rdi
	call	*16(%rax)
	cmpb	$0, __libc_single_threaded(%rip)
	je	.L1186
	movl	12(%rbp), %eax
	leal	-1(%rax), %edx
	movl	%edx, 12(%rbp)
.L1187:
	cmpl	$1, %eax
	jne	.L1092
	movq	200(%rsp), %rax
	subq	%fs:40, %rax
	jne	.L1286
	movq	0(%rbp), %rax
	movq	%rbp, %rdi
	movq	24(%rax), %rax
.L1285:
	addq	$216, %rsp
	.cfi_remember_state
	.cfi_def_cfa_offset 56
	popq	%rbx
	.cfi_def_cfa_offset 48
	popq	%rbp
	.cfi_def_cfa_offset 40
	popq	%r12
	.cfi_def_cfa_offset 32
	popq	%r13
	.cfi_def_cfa_offset 24
	popq	%r14
	.cfi_def_cfa_offset 16
	popq	%r15
	.cfi_def_cfa_offset 8
	jmp	*%rax
	.p2align 4,,10
	.p2align 3
.L1183:
	.cfi_restore_state
	movl	$-1, %eax
	lock xaddl	%eax, 8(%rbp)
	jmp	.L1184
	.p2align 4,,10
	.p2align 3
.L1289:
	cmpl	$1835885900, (%rdi)
	jne	.L1282
	cmpw	$28265, 4(%rdi)
	jne	.L1282
	cmpb	$103, 6(%rdi)
	jne	.L1282
	leaq	-7(%r13), %rax
	xorl	%r15d, %r15d
	cmpq	$2147483647, %rax
	jg	.L1104
	cmpq	$-2147483648, %rax
	jl	.L1104
	jmp	.L1105
	.p2align 4,,10
	.p2align 3
.L1295:
	cmpb	$0, 200(%rbp)
	jne	.L1111
	movl	$1, 548(%rbp)
	jmp	.L1111
	.p2align 4,,10
	.p2align 3
.L1292:
	movq	%r15, %rdx
	leaq	.LC35(%rip), %rsi
	movq	%rdi, 8(%rsp)
	call	memcmp@PLT
	movq	8(%rsp), %rdi
	testl	%eax, %eax
	jne	.L1114
	subq	$7, %r15
.L1213:
	movl	%r15d, %eax
	cmpq	%r13, %rdi
	jne	.L1204
	jmp	.L1117
	.p2align 4,,10
	.p2align 3
.L1136:
	lock addl	$1, 8(%rax)
	jmp	.L1135
	.p2align 4,,10
	.p2align 3
.L1138:
	lock addl	$1, 8(%rcx)
	jmp	.L1137
	.p2align 4,,10
	.p2align 3
.L1293:
	movq	(%rdi), %rdx
	movb	%al, 31(%rsp)
	movq	%rdi, 16(%rsp)
	call	*16(%rdx)
	cmpb	$0, __libc_single_threaded(%rip)
	movq	16(%rsp), %rdi
	movzbl	31(%rsp), %eax
	je	.L1144
	movl	12(%rdi), %edx
	leal	-1(%rdx), %ecx
	movl	%ecx, 12(%rdi)
.L1145:
	cmpl	$1, %edx
	jne	.L1140
	movq	(%rdi), %rdx
	movb	%al, 16(%rsp)
	call	*24(%rdx)
	movzbl	16(%rsp), %eax
	jmp	.L1140
	.p2align 4,,10
	.p2align 3
.L1294:
	movq	8(%rsp), %rsi
	movb	%al, 16(%rsp)
	movq	(%rsi), %rdx
	movq	%rsi, %rdi
	call	*16(%rdx)
	cmpb	$0, __libc_single_threaded(%rip)
	movzbl	16(%rsp), %eax
	je	.L1156
	movq	8(%rsp), %rsi
	movl	12(%rsi), %edx
	leal	-1(%rdx), %ecx
	movl	%ecx, 12(%rsi)
.L1157:
	cmpl	$1, %edx
	jne	.L1155
	movq	8(%rsp), %rdi
	movb	%al, 16(%rsp)
	movq	(%rdi), %rdx
	call	*24(%rdx)
	movzbl	16(%rsp), %eax
	jmp	.L1155
	.p2align 4,,10
	.p2align 3
.L1152:
	movq	8(%rsp), %rcx
	movl	$-1, %edx
	lock xaddl	%edx, 8(%rcx)
	jmp	.L1153
	.p2align 4,,10
	.p2align 3
.L1141:
	movl	$-1, %edx
	lock xaddl	%edx, 8(%rdi)
	jmp	.L1142
	.p2align 4,,10
	.p2align 3
.L1186:
	movl	$-1, %eax
	lock xaddl	%eax, 12(%rbp)
	jmp	.L1187
	.p2align 4,,10
	.p2align 3
.L1121:
	lock addl	$1, 8(%r15)
	jmp	.L1122
	.p2align 4,,10
	.p2align 3
.L1215:
	leaq	-7(%r13), %rax
	jmp	.L1105
	.p2align 4,,10
	.p2align 3
.L1218:
	cmpb	$0, __libc_single_threaded(%rip)
	je	.L1125
	movl	8(%r15), %eax
	leal	-1(%rax), %edx
	movl	%edx, 8(%r15)
.L1126:
	cmpl	$1, %eax
	jne	.L1092
	movq	(%r15), %rax
	movq	%r15, %rdi
	call	*16(%rax)
	cmpb	$0, __libc_single_threaded(%rip)
	je	.L1128
	movl	12(%r15), %eax
	leal	-1(%rax), %edx
	movl	%edx, 12(%r15)
.L1129:
	cmpl	$1, %eax
	jne	.L1092
	movq	200(%rsp), %rax
	subq	%fs:40, %rax
	jne	.L1286
	movq	(%r15), %rax
	movq	%r15, %rdi
	movq	24(%rax), %rax
	jmp	.L1285
	.p2align 4,,10
	.p2align 3
.L1305:
	movl	$-1, %eax
	lock xaddl	%eax, 8(%r15)
	jmp	.L1132
	.p2align 4,,10
	.p2align 3
.L1120:
	cmpl	$3, 548(%rax)
	je	.L1118
	jmp	.L1092
	.p2align 4,,10
	.p2align 3
.L1156:
	movq	8(%rsp), %rcx
	movl	$-1, %edx
	lock xaddl	%edx, 12(%rcx)
	jmp	.L1157
	.p2align 4,,10
	.p2align 3
.L1144:
	movl	$-1, %edx
	lock xaddl	%edx, 12(%rdi)
	jmp	.L1145
	.p2align 4,,10
	.p2align 3
.L1125:
	movl	$-1, %eax
	lock xaddl	%eax, 8(%r15)
	jmp	.L1126
.L1133:
	movl	$-1, %eax
	lock xaddl	%eax, 12(%r15)
	jmp	.L1134
.L1303:
	cmpq	$-2147483648, %rcx
	jge	.L1210
	movl	$-2147483648, %eax
	jmp	.L1164
.L1302:
	cmpq	$-2147483648, %r14
	jge	.L1207
	movl	$-2147483648, %eax
	jmp	.L1171
.L1128:
	movl	$-1, %eax
	lock xaddl	%eax, 12(%r15)
	jmp	.L1129
.L1304:
	cmpq	$-2147483648, %r15
	jge	.L1213
	movl	$-2147483648, %eax
	jmp	.L1114
.L1286:
	call	__stack_chk_fail@PLT
.L1235:
	endbr64
	movq	%rax, %rbp
	jmp	.L1195
.L1237:
	endbr64
	movq	%rax, %rbp
	jmp	.L1189
.L1236:
	endbr64
	movq	%rax, %rbp
	jmp	.L1148
.L1233:
	endbr64
	movq	%rax, %rbp
	jmp	.L1192
.L1234:
	endbr64
	movq	%rax, %rbp
	jmp	.L1150
.L1195:
	movq	88(%rsp), %rdi
	testq	%rdi, %rdi
	je	.L1196
	call	_ZNSt16_Sp_counted_baseILN9__gnu_cxx12_Lock_policyE2EE10_M_releaseEv
	jmp	.L1196
.L1189:
	movq	128(%rsp), %rdi
	leaq	144(%rsp), %rax
	cmpq	%rax, %rdi
	je	.L1196
	movq	144(%rsp), %rax
	leaq	1(%rax), %rsi
	call	_ZdlPvm@PLT
.L1196:
	movq	%rbp, %rdi
.LEHB50:
	call	_Unwind_Resume@PLT
.LEHE50:
.L1192:
	jmp	.L1196
.L1148:
	movq	72(%rsp), %rdi
	testq	%rdi, %rdi
	je	.L1150
	call	_ZNSt16_Sp_counted_baseILN9__gnu_cxx12_Lock_policyE2EE10_M_releaseEv
.L1150:
	cmpq	$0, 8(%rsp)
	je	.L1196
	movq	8(%rsp), %rdi
	call	_ZNSt16_Sp_counted_baseILN9__gnu_cxx12_Lock_policyE2EE10_M_releaseEv
	jmp	.L1196
	.cfi_endproc
.LFE12101:
	.section	.gcc_except_table
.LLSDA12101:
	.byte	0xff
	.byte	0xff
	.byte	0x1
	.uleb128 .LLSDACSE12101-.LLSDACSB12101
.LLSDACSB12101:
	.uleb128 .LEHB43-.LFB12101
	.uleb128 .LEHE43-.LEHB43
	.uleb128 .L1233-.LFB12101
	.uleb128 0
	.uleb128 .LEHB44-.LFB12101
	.uleb128 .LEHE44-.LEHB44
	.uleb128 .L1237-.LFB12101
	.uleb128 0
	.uleb128 .LEHB45-.LFB12101
	.uleb128 .LEHE45-.LEHB45
	.uleb128 0
	.uleb128 0
	.uleb128 .LEHB46-.LFB12101
	.uleb128 .LEHE46-.LEHB46
	.uleb128 .L1234-.LFB12101
	.uleb128 0
	.uleb128 .LEHB47-.LFB12101
	.uleb128 .LEHE47-.LEHB47
	.uleb128 .L1236-.LFB12101
	.uleb128 0
	.uleb128 .LEHB48-.LFB12101
	.uleb128 .LEHE48-.LEHB48
	.uleb128 0
	.uleb128 0
	.uleb128 .LEHB49-.LFB12101
	.uleb128 .LEHE49-.LEHB49
	.uleb128 .L1235-.LFB12101
	.uleb128 0
	.uleb128 .LEHB50-.LFB12101
	.uleb128 .LEHE50-.LEHB50
	.uleb128 0
	.uleb128 0
.LLSDACSE12101:
	.section	.text._ZN12Lemming_hero12on_collisionER6EngineSt10shared_ptrI6EntityE,"axG",@progbits,_ZN12Lemming_hero12on_collisionER6EngineSt10shared_ptrI6EntityE,comdat
	.size	_ZN12Lemming_hero12on_collisionER6EngineSt10shared_ptrI6EntityE, .-_ZN12Lemming_hero12on_collisionER6EngineSt10shared_ptrI6EntityE
	.section	.text._ZN16Geralt_eats_game13on_loop_startER6Engine,"axG",@progbits,_ZN16Geralt_eats_game13on_loop_startER6Engine,comdat
	.align 2
	.p2align 4
	.weak	_ZN16Geralt_eats_game13on_loop_startER6Engine
	.type	_ZN16Geralt_eats_game13on_loop_startER6Engine, @function
_ZN16Geralt_eats_game13on_loop_startER6Engine:
.LFB12142:
	.cfi_startproc
	.cfi_personality 0x9b,DW.ref.__gxx_personality_v0
	.cfi_lsda 0x1b,.LLSDA12142
	endbr64
	pushq	%rbp
	.cfi_def_cfa_offset 16
	.cfi_offset 6, -16
	movq	%rsp, %rbp
	.cfi_def_cfa_register 6
	pushq	%r15
	pushq	%r14
	pushq	%r13
	pushq	%r12
	pushq	%rbx
	subq	$344, %rsp
	.cfi_offset 15, -24
	.cfi_offset 14, -32
	.cfi_offset 13, -40
	.cfi_offset 12, -48
	.cfi_offset 3, -56
	movq	%rdi, -360(%rbp)
	movq	%rsi, -304(%rbp)
	movq	%fs:40, %rax
	movq	%rax, -56(%rbp)
	movl	68(%rdi), %eax
	cmpl	%eax, 64(%rdi)
	jge	.L1306
	leaq	-112(%rbp), %rax
	movq	.LC1(%rip), %r15
	leaq	-80(%rbp), %rbx
	movq	%rax, -336(%rbp)
	leaq	-144(%rbp), %rax
	movq	%rax, -328(%rbp)
.L1408:
	movl	$296, %edi
.LEHB51:
	call	_Znwm@PLT
.LEHE51:
	leaq	16+_ZTVSt23_Sp_counted_ptr_inplaceI5AppleSaIS0_ELN9__gnu_cxx12_Lock_policyE2EE(%rip), %rcx
	movabsq	$8026082370797398354, %rsi
	movq	%rbx, -96(%rbp)
	movq	%rcx, (%rax)
	leaq	8(%rax), %rdx
	movl	$31076, %ecx
	movl	$17, %edi
	movq	%r15, 8(%rax)
	movq	%rax, -296(%rbp)
	addq	$16, %rax
	movq	%rax, -344(%rbp)
	movq	-336(%rbp), %rax
	movq	%rsi, (%rbx)
	movw	%cx, 8(%rbx)
	movb	$101, 4(%rax)
	movl	$1819308097, (%rax)
	movq	%rdx, -376(%rbp)
	movq	-328(%rbp), %rdx
	movq	$10, -88(%rbp)
	movb	$0, -70(%rbp)
	movq	%rax, -128(%rbp)
	movq	$5, -120(%rbp)
	movb	$0, -107(%rbp)
	movq	%rdx, -160(%rbp)
.LEHB52:
	call	_Znwm@PLT
.LEHE52:
	movdqa	.LC46(%rip), %xmm0
	movb	$0, 16(%rax)
	leaq	-256(%rbp), %r13
	leaq	-160(%rbp), %rdx
	movq	-304(%rbp), %rsi
	movq	%r13, %rdi
	movq	%rax, -160(%rbp)
	movups	%xmm0, (%rax)
	movq	$16, -144(%rbp)
	movq	$16, -152(%rbp)
.LEHB53:
	call	_ZN6Engine12load_textureERKNSt7__cxx1112basic_stringIcSt11char_traitsIcESaIcEEE@PLT
.LEHE53:
	movq	-88(%rbp), %rdx
	leaq	-208(%rbp), %r12
	movq	%r13, %rsi
	movq	-120(%rbp), %r14
	movq	%r12, %rdi
	movq	%rdx, -320(%rbp)
	movq	-96(%rbp), %rdx
	movq	%rdx, -312(%rbp)
	movq	-128(%rbp), %rdx
	movq	%rdx, -352(%rbp)
.LEHB54:
	call	_ZN7TextureC1ERKS_@PLT
.LEHE54:
	movq	.LC39(%rip), %rax
	pushq	-312(%rbp)
	leaq	-280(%rbp), %rdx
	leaq	-272(%rbp), %rsi
	pushq	-320(%rbp)
	movq	%r14, %r8
	movq	%r12, %rcx
	movq	-352(%rbp), %r9
	movq	%rax, -280(%rbp)
	movq	-344(%rbp), %rdi
	movq	.LC40(%rip), %rax
	movl	$0x00000000, -264(%rbp)
	movq	%rax, -272(%rbp)
.LEHB55:
	.cfi_escape 0x2e,0x10
	call	_ZN6EntityC2E6Point3IfE7Vector2IfE7TextureSt17basic_string_viewIcSt11char_traitsIcEES8_@PLT
.LEHE55:
	movq	-184(%rbp), %r13
	popq	%rax
	popq	%rdx
	testq	%r13, %r13
	je	.L1309
	cmpb	$0, __libc_single_threaded(%rip)
	je	.L1310
	movl	8(%r13), %eax
	leal	-1(%rax), %edx
	movl	%edx, 8(%r13)
.L1311:
	cmpl	$1, %eax
	jne	.L1309
	movq	0(%r13), %rax
	movq	%r13, %rdi
	call	*16(%rax)
	cmpb	$0, __libc_single_threaded(%rip)
	je	.L1313
	movl	12(%r13), %eax
	leal	-1(%rax), %edx
	movl	%edx, 12(%r13)
.L1314:
	cmpl	$1, %eax
	jne	.L1309
	movq	0(%r13), %rax
	movq	%r13, %rdi
	call	*24(%rax)
	.p2align 4,,10
	.p2align 3
.L1309:
	movq	-200(%rbp), %r13
	testq	%r13, %r13
	je	.L1316
	cmpb	$0, __libc_single_threaded(%rip)
	je	.L1317
	movl	8(%r13), %eax
	leal	-1(%rax), %edx
	movl	%edx, 8(%r13)
.L1318:
	cmpl	$1, %eax
	jne	.L1316
	movq	0(%r13), %rax
	movq	%r13, %rdi
	call	*16(%rax)
	cmpb	$0, __libc_single_threaded(%rip)
	je	.L1320
	movl	12(%r13), %eax
	leal	-1(%rax), %edx
	movl	%edx, 12(%r13)
.L1321:
	cmpl	$1, %eax
	jne	.L1316
	movq	0(%r13), %rax
	movq	%r13, %rdi
	call	*24(%rax)
	.p2align 4,,10
	.p2align 3
.L1316:
	movq	-296(%rbp), %rax
	movaps	.LC41(%rip), %xmm1
	leaq	16+_ZTV10Rigid_body(%rip), %rsi
	movaps	.LC42(%rip), %xmm2
	movaps	.LC43(%rip), %xmm3
	movq	-232(%rbp), %r13
	movq	%rsi, 16(%rax)
	movl	$0x00000000, 212(%rax)
	movb	$0, 208(%rax)
	movups	%xmm1, 160(%rax)
	movups	%xmm2, 176(%rax)
	movups	%xmm3, 192(%rax)
	testq	%r13, %r13
	je	.L1323
	cmpb	$0, __libc_single_threaded(%rip)
	je	.L1326
	movl	8(%r13), %eax
	leal	-1(%rax), %edx
	movl	%edx, 8(%r13)
.L1327:
	cmpl	$1, %eax
	jne	.L1323
	movq	0(%r13), %rax
	movq	%r13, %rdi
	call	*16(%rax)
	cmpb	$0, __libc_single_threaded(%rip)
	je	.L1329
	movl	12(%r13), %eax
	leal	-1(%rax), %edx
	movl	%edx, 12(%r13)
.L1330:
	cmpl	$1, %eax
	jne	.L1323
	movq	0(%r13), %rax
	movq	%r13, %rdi
	call	*24(%rax)
	.p2align 4,,10
	.p2align 3
.L1323:
	movq	-248(%rbp), %r13
	testq	%r13, %r13
	je	.L1332
	cmpb	$0, __libc_single_threaded(%rip)
	je	.L1333
	movl	8(%r13), %eax
	leal	-1(%rax), %edx
	movl	%edx, 8(%r13)
.L1334:
	cmpl	$1, %eax
	jne	.L1332
	movq	0(%r13), %rax
	movq	%r13, %rdi
	call	*16(%rax)
	cmpb	$0, __libc_single_threaded(%rip)
	je	.L1336
	movl	12(%r13), %eax
	leal	-1(%rax), %edx
	movl	%edx, 12(%r13)
.L1337:
	cmpl	$1, %eax
	jne	.L1332
	movq	0(%r13), %rax
	movq	%r13, %rdi
	call	*24(%rax)
	.p2align 4,,10
	.p2align 3
.L1332:
	movq	-160(%rbp), %rdi
	cmpq	-328(%rbp), %rdi
	je	.L1338
	movq	-144(%rbp), %rax
	leaq	1(%rax), %rsi
	call	_ZdlPvm@PLT
.L1338:
	movq	-128(%rbp), %rdi
	cmpq	-336(%rbp), %rdi
	je	.L1339
	movq	-112(%rbp), %rax
	leaq	1(%rax), %rsi
	call	_ZdlPvm@PLT
.L1339:
	movq	-96(%rbp), %rdi
	cmpq	%rbx, %rdi
	je	.L1340
	movq	-80(%rbp), %rax
	leaq	1(%rax), %rsi
	call	_ZdlPvm@PLT
.L1340:
	movq	-296(%rbp), %r14
	leaq	16+_ZTV5Apple(%rip), %rax
	pxor	%xmm0, %xmm0
	movl	$32, %edi
	movq	%rax, 16(%r14)
	leaq	216(%r14), %rax
	movups	%xmm0, 216(%r14)
	movq	%rax, -352(%rbp)
.LEHB56:
	.cfi_escape 0x2e,0
	call	_Znwm@PLT
.LEHE56:
	movq	SDL_DestroyTexture@GOTPCREL(%rip), %rcx
	leaq	16+_ZTVSt19_Sp_counted_deleterIDnPFvP11SDL_TextureESaIvELN9__gnu_cxx12_Lock_policyE2EE(%rip), %r13
	movq	%r15, 8(%rax)
	movl	$32, %edi
	movq	%r13, (%rax)
	movq	%rcx, 16(%rax)
	movq	$0, 24(%rax)
	movq	%rax, 224(%r14)
	movq	$0, 232(%r14)
	movq	$0, 240(%r14)
	movq	%r14, -296(%rbp)
.LEHB57:
	call	_Znwm@PLT
.LEHE57:
	movq	-296(%rbp), %rcx
	movq	SDL_FreeSurface@GOTPCREL(%rip), %rdx
	movq	%r15, 8(%rax)
	leaq	16+_ZTVSt19_Sp_counted_deleterIDnPFvP11SDL_SurfaceESaIvELN9__gnu_cxx12_Lock_policyE2EE(%rip), %r14
	movq	%r14, (%rax)
	pxor	%xmm0, %xmm0
	movl	$32, %edi
	movq	%rdx, 16(%rax)
	leaq	256(%rcx), %rsi
	movq	$0, 24(%rax)
	movq	%rax, 240(%rcx)
	movq	$0, 248(%rcx)
	movups	%xmm0, 256(%rcx)
	movq	%rsi, -368(%rbp)
.LEHB58:
	call	_Znwm@PLT
.LEHE58:
	movq	SDL_DestroyTexture@GOTPCREL(%rip), %rcx
	movq	%r13, (%rax)
	movl	$32, %edi
	movq	%r15, 8(%rax)
	movq	%rcx, 16(%rax)
	movq	-296(%rbp), %rcx
	movq	$0, 24(%rax)
	movq	%rax, 264(%rcx)
	movq	$0, 272(%rcx)
	movq	$0, 280(%rcx)
.LEHB59:
	call	_Znwm@PLT
.LEHE59:
	movq	-296(%rbp), %rsi
	movq	SDL_FreeSurface@GOTPCREL(%rip), %rdx
	movq	%r15, 8(%rax)
	movl	$17, %edi
	movq	%r14, (%rax)
	movq	%rdx, 16(%rax)
	movq	$0, 24(%rax)
	movq	%rax, 280(%rsi)
	movq	$0, 288(%rsi)
	movq	%rbx, -96(%rbp)
.LEHB60:
	call	_Znwm@PLT
.LEHE60:
	movdqa	.LC46(%rip), %xmm0
	movb	$0, 16(%rax)
	leaq	-96(%rbp), %r13
	movq	%r12, %rdi
	movq	-304(%rbp), %rsi
	movq	%r13, %rdx
	movq	%rax, -96(%rbp)
	movups	%xmm0, (%rax)
	movq	$16, -80(%rbp)
	movq	$16, -88(%rbp)
.LEHB61:
	call	_ZN6Engine12load_textureERKNSt7__cxx1112basic_stringIcSt11char_traitsIcESaIcEEE@PLT
.LEHE61:
	movq	-352(%rbp), %rdi
	movq	%r12, %rsi
.LEHB62:
	call	_ZN7TextureaSERKS_@PLT
.LEHE62:
	movq	-184(%rbp), %r14
	testq	%r14, %r14
	je	.L1358
	cmpb	$0, __libc_single_threaded(%rip)
	je	.L1359
	movl	8(%r14), %eax
	leal	-1(%rax), %edx
	movl	%edx, 8(%r14)
.L1360:
	cmpl	$1, %eax
	je	.L1444
.L1358:
	movq	-200(%rbp), %r14
	testq	%r14, %r14
	je	.L1365
	cmpb	$0, __libc_single_threaded(%rip)
	je	.L1366
	movl	8(%r14), %eax
	leal	-1(%rax), %edx
	movl	%edx, 8(%r14)
.L1367:
	cmpl	$1, %eax
	je	.L1445
.L1365:
	movq	-96(%rbp), %rdi
	cmpq	%rbx, %rdi
	je	.L1371
	movq	-80(%rbp), %rax
	leaq	1(%rax), %rsi
	call	_ZdlPvm@PLT
.L1371:
	movl	$21, %edi
	movq	%rbx, -96(%rbp)
.LEHB63:
	call	_Znwm@PLT
.LEHE63:
	movdqa	.LC47(%rip), %xmm0
	movb	$0, 20(%rax)
	movq	%r13, %rdx
	movq	%r12, %rdi
	movl	$1735290926, 16(%rax)
	movq	-304(%rbp), %rsi
	movups	%xmm0, (%rax)
	movq	%rax, -96(%rbp)
	movq	$20, -80(%rbp)
	movq	$20, -88(%rbp)
.LEHB64:
	call	_ZN6Engine12load_textureERKNSt7__cxx1112basic_stringIcSt11char_traitsIcESaIcEEE@PLT
.LEHE64:
	movq	-368(%rbp), %rdi
	movq	%r12, %rsi
.LEHB65:
	call	_ZN7TextureaSERKS_@PLT
.LEHE65:
	movq	-184(%rbp), %r12
	testq	%r12, %r12
	je	.L1373
	cmpb	$0, __libc_single_threaded(%rip)
	je	.L1374
	movl	8(%r12), %eax
	leal	-1(%rax), %edx
	movl	%edx, 8(%r12)
.L1375:
	cmpl	$1, %eax
	je	.L1446
.L1373:
	movq	-200(%rbp), %r12
	testq	%r12, %r12
	je	.L1380
	cmpb	$0, __libc_single_threaded(%rip)
	je	.L1381
	movl	8(%r12), %eax
	leal	-1(%rax), %edx
	movl	%edx, 8(%r12)
.L1382:
	cmpl	$1, %eax
	je	.L1447
.L1380:
	movq	-96(%rbp), %rdi
	cmpq	%rbx, %rdi
	je	.L1386
	movq	-80(%rbp), %rax
	leaq	1(%rax), %rsi
	call	_ZdlPvm@PLT
.L1386:
	movq	-296(%rbp), %rcx
	movq	.LC44(%rip), %rax
	movq	%rax, 168(%rcx)
	movq	-360(%rbp), %rax
	movb	$1, 208(%rcx)
	addl	$1, 64(%rax)
	cmpb	$0, __libc_single_threaded(%rip)
	movl	$0x40000000, 212(%rcx)
	je	.L1448
	movl	8(%rcx), %eax
	leal	-1(%rax), %edx
	movl	%edx, 8(%rcx)
.L1402:
	cmpl	$1, %eax
	je	.L1449
.L1404:
	movq	-360(%rbp), %rax
	movl	68(%rax), %esi
	cmpl	%esi, 64(%rax)
	jl	.L1408
.L1306:
	movq	-56(%rbp), %rax
	subq	%fs:40, %rax
	jne	.L1450
	leaq	-40(%rbp), %rsp
	popq	%rbx
	popq	%r12
	popq	%r13
	popq	%r14
	popq	%r15
	popq	%rbp
	.cfi_remember_state
	.cfi_def_cfa 7, 8
	ret
	.p2align 4,,10
	.p2align 3
.L1326:
	.cfi_restore_state
	movl	$-1, %eax
	lock xaddl	%eax, 8(%r13)
	jmp	.L1327
	.p2align 4,,10
	.p2align 3
.L1317:
	movl	$-1, %eax
	lock xaddl	%eax, 8(%r13)
	jmp	.L1318
	.p2align 4,,10
	.p2align 3
.L1310:
	movl	$-1, %eax
	lock xaddl	%eax, 8(%r13)
	jmp	.L1311
	.p2align 4,,10
	.p2align 3
.L1333:
	movl	$-1, %eax
	lock xaddl	%eax, 8(%r13)
	jmp	.L1334
	.p2align 4,,10
	.p2align 3
.L1444:
	movq	(%r14), %rax
	movq	%r14, %rdi
	call	*16(%rax)
	cmpb	$0, __libc_single_threaded(%rip)
	je	.L1362
	movl	12(%r14), %eax
	leal	-1(%rax), %edx
	movl	%edx, 12(%r14)
.L1363:
	cmpl	$1, %eax
	jne	.L1358
	movq	(%r14), %rax
	movq	%r14, %rdi
	call	*24(%rax)
	jmp	.L1358
	.p2align 4,,10
	.p2align 3
.L1445:
	movq	(%r14), %rax
	movq	%r14, %rdi
	call	*16(%rax)
	cmpb	$0, __libc_single_threaded(%rip)
	je	.L1369
	movl	12(%r14), %eax
	leal	-1(%rax), %edx
	movl	%edx, 12(%r14)
.L1370:
	cmpl	$1, %eax
	jne	.L1365
	movq	(%r14), %rax
	movq	%r14, %rdi
	call	*24(%rax)
	jmp	.L1365
	.p2align 4,,10
	.p2align 3
.L1447:
	movq	(%r12), %rax
	movq	%r12, %rdi
	call	*16(%rax)
	cmpb	$0, __libc_single_threaded(%rip)
	je	.L1384
	movl	12(%r12), %eax
	leal	-1(%rax), %edx
	movl	%edx, 12(%r12)
.L1385:
	cmpl	$1, %eax
	jne	.L1380
	movq	(%r12), %rax
	movq	%r12, %rdi
	call	*24(%rax)
	jmp	.L1380
	.p2align 4,,10
	.p2align 3
.L1446:
	movq	(%r12), %rax
	movq	%r12, %rdi
	call	*16(%rax)
	cmpb	$0, __libc_single_threaded(%rip)
	je	.L1377
	movl	12(%r12), %eax
	leal	-1(%rax), %edx
	movl	%edx, 12(%r12)
.L1378:
	cmpl	$1, %eax
	jne	.L1373
	movq	(%r12), %rax
	movq	%r12, %rdi
	call	*24(%rax)
	jmp	.L1373
	.p2align 4,,10
	.p2align 3
.L1313:
	movl	$-1, %eax
	lock xaddl	%eax, 12(%r13)
	jmp	.L1314
	.p2align 4,,10
	.p2align 3
.L1336:
	movl	$-1, %eax
	lock xaddl	%eax, 12(%r13)
	jmp	.L1337
	.p2align 4,,10
	.p2align 3
.L1320:
	movl	$-1, %eax
	lock xaddl	%eax, 12(%r13)
	jmp	.L1321
	.p2align 4,,10
	.p2align 3
.L1329:
	movl	$-1, %eax
	lock xaddl	%eax, 12(%r13)
	jmp	.L1330
	.p2align 4,,10
	.p2align 3
.L1366:
	movl	$-1, %eax
	lock xaddl	%eax, 8(%r14)
	jmp	.L1367
	.p2align 4,,10
	.p2align 3
.L1359:
	movl	$-1, %eax
	lock xaddl	%eax, 8(%r14)
	jmp	.L1360
	.p2align 4,,10
	.p2align 3
.L1449:
	movq	-296(%rbp), %r14
	movq	(%r14), %rax
	movq	%r14, %rdi
	call	*16(%rax)
	cmpb	$0, __libc_single_threaded(%rip)
	je	.L1405
	movl	12(%r14), %eax
	leal	-1(%rax), %edx
	movl	%edx, 12(%r14)
.L1406:
	cmpl	$1, %eax
	jne	.L1404
	movq	-296(%rbp), %rdi
	movq	(%rdi), %rax
	call	*24(%rax)
	jmp	.L1404
	.p2align 4,,10
	.p2align 3
.L1381:
	movl	$-1, %eax
	lock xaddl	%eax, 8(%r12)
	jmp	.L1382
	.p2align 4,,10
	.p2align 3
.L1374:
	movl	$-1, %eax
	lock xaddl	%eax, 8(%r12)
	jmp	.L1375
	.p2align 4,,10
	.p2align 3
.L1448:
	movq	-376(%rbp), %rdx
	movl	$-1, %eax
	lock xaddl	%eax, (%rdx)
	jmp	.L1402
	.p2align 4,,10
	.p2align 3
.L1369:
	movl	$-1, %eax
	lock xaddl	%eax, 12(%r14)
	jmp	.L1370
	.p2align 4,,10
	.p2align 3
.L1362:
	movl	$-1, %eax
	lock xaddl	%eax, 12(%r14)
	jmp	.L1363
	.p2align 4,,10
	.p2align 3
.L1405:
	movq	-296(%rbp), %rdx
	movl	$-1, %eax
	lock xaddl	%eax, 12(%rdx)
	jmp	.L1406
	.p2align 4,,10
	.p2align 3
.L1377:
	movl	$-1, %eax
	lock xaddl	%eax, 12(%r12)
	jmp	.L1378
	.p2align 4,,10
	.p2align 3
.L1384:
	movl	$-1, %eax
	lock xaddl	%eax, 12(%r12)
	jmp	.L1385
.L1450:
	call	__stack_chk_fail@PLT
.L1426:
	endbr64
	movq	%rax, %rdi
	jmp	.L1354
.L1424:
	endbr64
	movq	%rax, %rdi
	jmp	.L1350
.L1417:
	endbr64
	movq	%rax, %r12
	jmp	.L1325
.L1422:
	endbr64
	movq	%rax, %rdi
	jmp	.L1346
.L1416:
	endbr64
	movq	%rax, %r12
	jmp	.L1389
.L1354:
	call	__cxa_begin_catch@PLT
	xorl	%edi, %edi
.LEHB66:
	call	SDL_FreeSurface@PLT
	call	__cxa_rethrow@PLT
.LEHE66:
.L1350:
	call	__cxa_begin_catch@PLT
	xorl	%edi, %edi
.LEHB67:
	call	SDL_DestroyTexture@PLT
	call	__cxa_rethrow@PLT
.LEHE67:
.L1324:
	movq	%r12, %rdi
	movq	%r14, %r12
	call	_ZN7TextureD1Ev
.L1325:
	movq	%r13, %rdi
	call	_ZN7TextureD1Ev
.L1389:
	movq	-160(%rbp), %rdi
	cmpq	-328(%rbp), %rdi
	je	.L1391
	movq	-144(%rbp), %rax
	leaq	1(%rax), %rsi
	call	_ZdlPvm@PLT
.L1391:
	movq	-128(%rbp), %rdi
	cmpq	-336(%rbp), %rdi
	je	.L1392
	movq	-112(%rbp), %rax
	leaq	1(%rax), %rsi
	call	_ZdlPvm@PLT
.L1392:
	movq	-96(%rbp), %rdi
	cmpq	%rbx, %rdi
	je	.L1393
	movq	-80(%rbp), %rax
	leaq	1(%rax), %rsi
	call	_ZdlPvm@PLT
.L1393:
	movq	%r12, %rbx
	jmp	.L1394
.L1423:
	endbr64
	movq	%rax, %rbx
	jmp	.L1351
.L1346:
	call	__cxa_begin_catch@PLT
	xorl	%edi, %edi
.LEHB68:
	call	SDL_FreeSurface@PLT
	call	__cxa_rethrow@PLT
.LEHE68:
.L1425:
	endbr64
	movq	%rax, %rbx
	jmp	.L1355
.L1421:
	endbr64
	movq	%rax, %rbx
	jmp	.L1347
.L1355:
	call	__cxa_end_catch@PLT
	movq	-296(%rbp), %rax
	movq	264(%rax), %rdi
	testq	%rdi, %rdi
	jne	.L1451
.L1352:
	movq	-352(%rbp), %rdi
	call	_ZN7TextureD1Ev
.L1344:
	movq	-296(%rbp), %rax
	leaq	16+_ZTV10Rigid_body(%rip), %rdx
	movq	-344(%rbp), %rdi
	movq	%rdx, 16(%rax)
	call	_ZN6EntityD2Ev
.L1394:
	movq	-296(%rbp), %rdi
	movl	$296, %esi
	call	_ZdlPvm@PLT
	movq	%rbx, %rdi
.LEHB69:
	call	_Unwind_Resume@PLT
.LEHE69:
.L1347:
	call	__cxa_end_catch@PLT
	movq	-296(%rbp), %rax
	movq	224(%rax), %rdi
	testq	%rdi, %rdi
	je	.L1344
	call	_ZNSt16_Sp_counted_baseILN9__gnu_cxx12_Lock_policyE2EE10_M_releaseEv
	jmp	.L1344
.L1451:
	call	_ZNSt16_Sp_counted_baseILN9__gnu_cxx12_Lock_policyE2EE10_M_releaseEv
	jmp	.L1352
.L1351:
	call	__cxa_end_catch@PLT
	jmp	.L1352
.L1420:
	endbr64
	movq	%rax, %rdi
	jmp	.L1342
.L1415:
	endbr64
	movq	%rax, %r12
	jmp	.L1391
.L1342:
	call	__cxa_begin_catch@PLT
	xorl	%edi, %edi
.LEHB70:
	call	SDL_DestroyTexture@PLT
	call	__cxa_rethrow@PLT
.LEHE70:
.L1411:
	endbr64
.L1442:
	movq	%rax, %r12
	jmp	.L1400
.L1418:
	endbr64
	movq	%rax, %r14
	jmp	.L1324
.L1419:
	endbr64
	movq	%rax, %rbx
.L1343:
	call	__cxa_end_catch@PLT
	jmp	.L1344
.L1399:
	movq	%r12, %rdi
	movq	%r13, %r12
	call	_ZN7TextureD1Ev
.L1400:
	movq	-96(%rbp), %rdi
	cmpq	%rbx, %rdi
	je	.L1401
	movq	-80(%rbp), %rax
	leaq	1(%rax), %rsi
	call	_ZdlPvm@PLT
.L1401:
	movq	%r12, %rbx
.L1398:
	movq	-368(%rbp), %rdi
	call	_ZN7TextureD1Ev
	jmp	.L1352
.L1414:
	endbr64
.L1443:
	movq	%rax, %r13
	jmp	.L1399
.L1413:
	endbr64
	jmp	.L1442
.L1410:
	endbr64
	movq	%rax, %rbx
	jmp	.L1398
.L1412:
	endbr64
	jmp	.L1443
	.cfi_endproc
.LFE12142:
	.section	.gcc_except_table
	.align 4
.LLSDA12142:
	.byte	0xff
	.byte	0x9b
	.uleb128 .LLSDATT12142-.LLSDATTD12142
.LLSDATTD12142:
	.byte	0x1
	.uleb128 .LLSDACSE12142-.LLSDACSB12142
.LLSDACSB12142:
	.uleb128 .LEHB51-.LFB12142
	.uleb128 .LEHE51-.LEHB51
	.uleb128 0
	.uleb128 0
	.uleb128 .LEHB52-.LFB12142
	.uleb128 .LEHE52-.LEHB52
	.uleb128 .L1415-.LFB12142
	.uleb128 0
	.uleb128 .LEHB53-.LFB12142
	.uleb128 .LEHE53-.LEHB53
	.uleb128 .L1416-.LFB12142
	.uleb128 0
	.uleb128 .LEHB54-.LFB12142
	.uleb128 .LEHE54-.LEHB54
	.uleb128 .L1417-.LFB12142
	.uleb128 0
	.uleb128 .LEHB55-.LFB12142
	.uleb128 .LEHE55-.LEHB55
	.uleb128 .L1418-.LFB12142
	.uleb128 0
	.uleb128 .LEHB56-.LFB12142
	.uleb128 .LEHE56-.LEHB56
	.uleb128 .L1420-.LFB12142
	.uleb128 0x1
	.uleb128 .LEHB57-.LFB12142
	.uleb128 .LEHE57-.LEHB57
	.uleb128 .L1422-.LFB12142
	.uleb128 0x1
	.uleb128 .LEHB58-.LFB12142
	.uleb128 .LEHE58-.LEHB58
	.uleb128 .L1424-.LFB12142
	.uleb128 0x1
	.uleb128 .LEHB59-.LFB12142
	.uleb128 .LEHE59-.LEHB59
	.uleb128 .L1426-.LFB12142
	.uleb128 0x1
	.uleb128 .LEHB60-.LFB12142
	.uleb128 .LEHE60-.LEHB60
	.uleb128 .L1410-.LFB12142
	.uleb128 0
	.uleb128 .LEHB61-.LFB12142
	.uleb128 .LEHE61-.LEHB61
	.uleb128 .L1413-.LFB12142
	.uleb128 0
	.uleb128 .LEHB62-.LFB12142
	.uleb128 .LEHE62-.LEHB62
	.uleb128 .L1414-.LFB12142
	.uleb128 0
	.uleb128 .LEHB63-.LFB12142
	.uleb128 .LEHE63-.LEHB63
	.uleb128 .L1410-.LFB12142
	.uleb128 0
	.uleb128 .LEHB64-.LFB12142
	.uleb128 .LEHE64-.LEHB64
	.uleb128 .L1411-.LFB12142
	.uleb128 0
	.uleb128 .LEHB65-.LFB12142
	.uleb128 .LEHE65-.LEHB65
	.uleb128 .L1412-.LFB12142
	.uleb128 0
	.uleb128 .LEHB66-.LFB12142
	.uleb128 .LEHE66-.LEHB66
	.uleb128 .L1425-.LFB12142
	.uleb128 0
	.uleb128 .LEHB67-.LFB12142
	.uleb128 .LEHE67-.LEHB67
	.uleb128 .L1423-.LFB12142
	.uleb128 0
	.uleb128 .LEHB68-.LFB12142
	.uleb128 .LEHE68-.LEHB68
	.uleb128 .L1421-.LFB12142
	.uleb128 0
	.uleb128 .LEHB69-.LFB12142
	.uleb128 .LEHE69-.LEHB69
	.uleb128 0
	.uleb128 0
	.uleb128 .LEHB70-.LFB12142
	.uleb128 .LEHE70-.LEHB70
	.uleb128 .L1419-.LFB12142
	.uleb128 0
.LLSDACSE12142:
	.byte	0x1
	.byte	0
	.align 4
	.long	0

.LLSDATT12142:
	.section	.text._ZN16Geralt_eats_game13on_loop_startER6Engine,"axG",@progbits,_ZN16Geralt_eats_game13on_loop_startER6Engine,comdat
	.size	_ZN16Geralt_eats_game13on_loop_startER6Engine, .-_ZN16Geralt_eats_game13on_loop_startER6Engine
	.section	.text._ZN6GeraltC2E6Point3IfE7Vector2IfER6Engine,"axG",@progbits,_ZN6GeraltC5E6Point3IfE7Vector2IfER6Engine,comdat
	.align 2
	.p2align 4
	.weak	_ZN6GeraltC2E6Point3IfE7Vector2IfER6Engine
	.type	_ZN6GeraltC2E6Point3IfE7Vector2IfER6Engine, @function
_ZN6GeraltC2E6Point3IfE7Vector2IfER6Engine:
.LFB12042:
	.cfi_startproc
	.cfi_personality 0x9b,DW.ref.__gxx_personality_v0
	.cfi_lsda 0x1b,.LLSDA12042
	endbr64
	pushq	%rbp
	.cfi_def_cfa_offset 16
	.cfi_offset 6, -16
	movl	$31076, %r9d
	movl	$29804, %r10d
	movq	%rsp, %rbp
	.cfi_def_cfa_register 6
	pushq	%r15
	pushq	%r14
	.cfi_offset 15, -24
	.cfi_offset 14, -32
	leaq	-80(%rbp), %r15
	leaq	-112(%rbp), %r14
	pushq	%r13
	pushq	%r12
	.cfi_offset 13, -40
	.cfi_offset 12, -48
	movq	%rdx, %r12
	pushq	%rbx
	.cfi_offset 3, -56
	movq	%rsi, %rbx
	subq	$328, %rsp
	movq	%rdi, -296(%rbp)
	movl	$24, %edi
	movq	%rcx, -304(%rbp)
	movq	%fs:40, %rax
	movq	%rax, -56(%rbp)
	xorl	%eax, %eax
	movq	%r15, -96(%rbp)
	movabsq	$8026082370797398354, %rax
	movq	%rax, -80(%rbp)
	leaq	-144(%rbp), %rax
	movw	%r9w, -72(%rbp)
	movq	$10, -88(%rbp)
	movb	$0, -70(%rbp)
	movq	%r14, -128(%rbp)
	movl	$1634886983, -112(%rbp)
	movw	%r10w, -108(%rbp)
	movq	$6, -120(%rbp)
	movb	$0, -106(%rbp)
	movq	%rax, -328(%rbp)
	movq	%rax, -160(%rbp)
.LEHB71:
	call	_Znwm@PLT
.LEHE71:
	movl	$28272, %r8d
	movdqa	.LC49(%rip), %xmm0
	movl	$779380839, 16(%rax)
	leaq	-256(%rbp), %r13
	movw	%r8w, 20(%rax)
	movq	-304(%rbp), %rsi
	movq	%r13, %rdi
	leaq	-160(%rbp), %rdx
	movb	$103, 22(%rax)
	movb	$0, 23(%rax)
	movups	%xmm0, (%rax)
	movq	%rax, -160(%rbp)
	movq	$23, -144(%rbp)
	movq	$23, -152(%rbp)
.LEHB72:
	call	_ZN6Engine12load_textureERKNSt7__cxx1112basic_stringIcSt11char_traitsIcESaIcEEE@PLT
.LEHE72:
	movq	(%rbx), %rsi
	movss	8(%rbx), %xmm1
	movq	-88(%rbp), %rbx
	movq	(%r12), %rax
	leaq	-208(%rbp), %r12
	movq	-96(%rbp), %rcx
	movq	%rsi, -360(%rbp)
	movq	%r12, %rdi
	movq	%r13, %rsi
	movq	%rbx, -320(%rbp)
	movq	-128(%rbp), %rbx
	movq	%rax, -352(%rbp)
	movq	%rbx, -344(%rbp)
	movq	-120(%rbp), %rbx
	movq	%rcx, -312(%rbp)
	movss	%xmm1, -332(%rbp)
.LEHB73:
	call	_ZN7TextureC1ERKS_@PLT
.LEHE73:
	movq	-360(%rbp), %rsi
	pushq	-312(%rbp)
	leaq	-280(%rbp), %rdx
	movq	%rbx, %r8
	movq	-352(%rbp), %rax
	pushq	-320(%rbp)
	movq	%r12, %rcx
	movss	-332(%rbp), %xmm1
	movq	%rsi, -272(%rbp)
	leaq	-272(%rbp), %rsi
	movq	-344(%rbp), %r9
	movq	-296(%rbp), %rdi
	movq	%rax, -280(%rbp)
	movss	%xmm1, -264(%rbp)
.LEHB74:
	.cfi_escape 0x2e,0x10
	call	_ZN6EntityC2E6Point3IfE7Vector2IfE7TextureSt17basic_string_viewIcSt11char_traitsIcEES8_@PLT
.LEHE74:
	movq	-184(%rbp), %r13
	popq	%rsi
	popq	%rdi
	testq	%r13, %r13
	je	.L1454
	cmpb	$0, __libc_single_threaded(%rip)
	je	.L1455
	movl	8(%r13), %eax
	leal	-1(%rax), %edx
	movl	%edx, 8(%r13)
.L1456:
	cmpl	$1, %eax
	je	.L1577
.L1454:
	movq	-200(%rbp), %r13
	testq	%r13, %r13
	je	.L1461
	cmpb	$0, __libc_single_threaded(%rip)
	je	.L1462
	movl	8(%r13), %eax
	leal	-1(%rax), %edx
	movl	%edx, 8(%r13)
.L1463:
	cmpl	$1, %eax
	je	.L1578
.L1461:
	movq	-296(%rbp), %rax
	movaps	.LC41(%rip), %xmm0
	leaq	16+_ZTV10Rigid_body(%rip), %rsi
	movq	-232(%rbp), %r13
	movups	%xmm0, 144(%rax)
	movaps	.LC42(%rip), %xmm0
	movq	%rsi, (%rax)
	movups	%xmm0, 160(%rax)
	movaps	.LC43(%rip), %xmm0
	movl	$0x00000000, 196(%rax)
	movb	$0, 192(%rax)
	movups	%xmm0, 176(%rax)
	testq	%r13, %r13
	je	.L1468
	cmpb	$0, __libc_single_threaded(%rip)
	je	.L1471
	movl	8(%r13), %eax
	leal	-1(%rax), %edx
	movl	%edx, 8(%r13)
.L1472:
	cmpl	$1, %eax
	je	.L1579
.L1468:
	movq	-248(%rbp), %r13
	testq	%r13, %r13
	je	.L1477
	cmpb	$0, __libc_single_threaded(%rip)
	je	.L1478
	movl	8(%r13), %eax
	leal	-1(%rax), %edx
	movl	%edx, 8(%r13)
.L1479:
	cmpl	$1, %eax
	je	.L1580
.L1477:
	movq	-160(%rbp), %rdi
	cmpq	-328(%rbp), %rdi
	je	.L1483
	movq	-144(%rbp), %rax
	leaq	1(%rax), %rsi
	call	_ZdlPvm@PLT
.L1483:
	movq	-128(%rbp), %rdi
	cmpq	%r14, %rdi
	je	.L1484
	movq	-112(%rbp), %rax
	leaq	1(%rax), %rsi
	call	_ZdlPvm@PLT
.L1484:
	movq	-96(%rbp), %rdi
	cmpq	%r15, %rdi
	je	.L1485
	movq	-80(%rbp), %rax
	leaq	1(%rax), %rsi
	call	_ZdlPvm@PLT
.L1485:
	movq	-296(%rbp), %r14
	leaq	16+_ZTV6Geralt(%rip), %rax
	pxor	%xmm0, %xmm0
	movl	$32, %edi
	movq	%rax, (%r14)
	leaq	208(%r14), %rax
	movb	$0, 200(%r14)
	movups	%xmm0, 208(%r14)
	movq	%rax, -320(%rbp)
.LEHB75:
	.cfi_escape 0x2e,0
	call	_Znwm@PLT
.LEHE75:
	movq	.LC1(%rip), %rbx
	movq	SDL_DestroyTexture@GOTPCREL(%rip), %rsi
	leaq	16+_ZTVSt19_Sp_counted_deleterIDnPFvP11SDL_TextureESaIvELN9__gnu_cxx12_Lock_policyE2EE(%rip), %r13
	movq	$0, 24(%rax)
	movq	%r13, (%rax)
	movl	$32, %edi
	movq	%rbx, 8(%rax)
	movq	%rsi, 16(%rax)
	movq	%rax, 216(%r14)
	movq	$0, 224(%r14)
	movq	$0, 232(%r14)
	movq	%r14, -296(%rbp)
.LEHB76:
	call	_Znwm@PLT
.LEHE76:
	movq	-296(%rbp), %rcx
	movq	SDL_FreeSurface@GOTPCREL(%rip), %rsi
	movq	%rbx, 8(%rax)
	leaq	16+_ZTVSt19_Sp_counted_deleterIDnPFvP11SDL_SurfaceESaIvELN9__gnu_cxx12_Lock_policyE2EE(%rip), %r14
	movq	%r14, (%rax)
	pxor	%xmm0, %xmm0
	movl	$32, %edi
	movq	%rax, 232(%rcx)
	movq	$0, 240(%rcx)
	movq	%rsi, 16(%rax)
	movq	$0, 24(%rax)
	movq	%rcx, %rax
	leaq	248(%rcx), %rcx
	movups	%xmm0, 248(%rax)
	movq	%rcx, -328(%rbp)
.LEHB77:
	call	_Znwm@PLT
.LEHE77:
	movq	SDL_DestroyTexture@GOTPCREL(%rip), %rdx
	movq	%r13, (%rax)
	movl	$32, %edi
	movq	%rbx, 8(%rax)
	movq	%rdx, 16(%rax)
	movq	-296(%rbp), %rdx
	movq	$0, 24(%rax)
	movq	%rax, 256(%rdx)
	movq	$0, 264(%rdx)
	movq	$0, 272(%rdx)
.LEHB78:
	call	_Znwm@PLT
.LEHE78:
	movq	-296(%rbp), %rcx
	movq	SDL_FreeSurface@GOTPCREL(%rip), %rsi
	movq	%rbx, 8(%rax)
	movl	$23, %edi
	movq	%r14, (%rax)
	movq	%rsi, 16(%rax)
	movq	$0, 24(%rax)
	movq	%rax, 272(%rcx)
	movq	.LC44(%rip), %rax
	movq	$0, 280(%rcx)
	movq	%rax, 152(%rcx)
	movl	$0x40400000, 196(%rcx)
	movb	$1, 192(%rcx)
	movq	%r15, -96(%rbp)
.LEHB79:
	call	_Znwm@PLT
.LEHE79:
	movl	$26478, %ecx
	movb	$0, 22(%rax)
	leaq	-96(%rbp), %r13
	movq	%r12, %rdi
	movdqa	.LC50(%rip), %xmm0
	movw	%cx, 20(%rax)
	movq	%r13, %rdx
	movl	$1882092646, 16(%rax)
	movq	-304(%rbp), %rsi
	movups	%xmm0, (%rax)
	movq	%rax, -96(%rbp)
	movq	$22, -80(%rbp)
	movq	$22, -88(%rbp)
.LEHB80:
	call	_ZN6Engine12load_textureERKNSt7__cxx1112basic_stringIcSt11char_traitsIcESaIcEEE@PLT
.LEHE80:
	movq	-320(%rbp), %rdi
	movq	%r12, %rsi
.LEHB81:
	call	_ZN7TextureaSERKS_@PLT
.LEHE81:
	movq	-184(%rbp), %r14
	testq	%r14, %r14
	je	.L1503
	cmpb	$0, __libc_single_threaded(%rip)
	je	.L1504
	movl	8(%r14), %eax
	leal	-1(%rax), %edx
	movl	%edx, 8(%r14)
.L1505:
	cmpl	$1, %eax
	je	.L1581
.L1503:
	movq	-200(%rbp), %r14
	testq	%r14, %r14
	je	.L1510
	cmpb	$0, __libc_single_threaded(%rip)
	je	.L1511
	movl	8(%r14), %eax
	leal	-1(%rax), %edx
	movl	%edx, 8(%r14)
.L1512:
	cmpl	$1, %eax
	je	.L1582
.L1510:
	movq	-96(%rbp), %rdi
	cmpq	%r15, %rdi
	je	.L1516
	movq	-80(%rbp), %rax
	leaq	1(%rax), %rsi
	call	_ZdlPvm@PLT
.L1516:
	movl	$24, %edi
	movq	%r15, -96(%rbp)
.LEHB82:
	call	_Znwm@PLT
.LEHE82:
	movl	$28272, %edx
	movdqa	.LC49(%rip), %xmm0
	movb	$103, 22(%rax)
	movq	%r12, %rdi
	movw	%dx, 20(%rax)
	movq	-304(%rbp), %rsi
	movq	%r13, %rdx
	movl	$779380839, 16(%rax)
	movb	$0, 23(%rax)
	movups	%xmm0, (%rax)
	movq	%rax, -96(%rbp)
	movq	$23, -80(%rbp)
	movq	$23, -88(%rbp)
.LEHB83:
	call	_ZN6Engine12load_textureERKNSt7__cxx1112basic_stringIcSt11char_traitsIcESaIcEEE@PLT
.LEHE83:
	movq	-328(%rbp), %rdi
	movq	%r12, %rsi
.LEHB84:
	call	_ZN7TextureaSERKS_@PLT
.LEHE84:
	movq	-184(%rbp), %rbx
	testq	%rbx, %rbx
	je	.L1518
	cmpb	$0, __libc_single_threaded(%rip)
	je	.L1519
	movl	8(%rbx), %eax
	leal	-1(%rax), %edx
	movl	%edx, 8(%rbx)
.L1520:
	cmpl	$1, %eax
	jne	.L1518
	movq	(%rbx), %rax
	movq	%rbx, %rdi
	call	*16(%rax)
	cmpb	$0, __libc_single_threaded(%rip)
	je	.L1522
	movl	12(%rbx), %eax
	leal	-1(%rax), %edx
	movl	%edx, 12(%rbx)
.L1523:
	cmpl	$1, %eax
	je	.L1583
	.p2align 4,,10
	.p2align 3
.L1518:
	movq	-200(%rbp), %rbx
	testq	%rbx, %rbx
	je	.L1525
	cmpb	$0, __libc_single_threaded(%rip)
	je	.L1526
	movl	8(%rbx), %eax
	leal	-1(%rax), %edx
	movl	%edx, 8(%rbx)
.L1527:
	cmpl	$1, %eax
	jne	.L1525
	movq	(%rbx), %rax
	movq	%rbx, %rdi
	call	*16(%rax)
	cmpb	$0, __libc_single_threaded(%rip)
	je	.L1529
	movl	12(%rbx), %eax
	leal	-1(%rax), %edx
	movl	%edx, 12(%rbx)
.L1530:
	cmpl	$1, %eax
	je	.L1584
	.p2align 4,,10
	.p2align 3
.L1525:
	movq	-96(%rbp), %rdi
	cmpq	%r15, %rdi
	je	.L1452
	movq	-80(%rbp), %rax
	leaq	1(%rax), %rsi
	call	_ZdlPvm@PLT
.L1452:
	movq	-56(%rbp), %rax
	subq	%fs:40, %rax
	jne	.L1585
	leaq	-40(%rbp), %rsp
	popq	%rbx
	popq	%r12
	popq	%r13
	popq	%r14
	popq	%r15
	popq	%rbp
	.cfi_remember_state
	.cfi_def_cfa 7, 8
	ret
	.p2align 4,,10
	.p2align 3
.L1577:
	.cfi_restore_state
	movq	0(%r13), %rax
	movq	%r13, %rdi
	call	*16(%rax)
	cmpb	$0, __libc_single_threaded(%rip)
	je	.L1458
	movl	12(%r13), %eax
	leal	-1(%rax), %edx
	movl	%edx, 12(%r13)
.L1459:
	cmpl	$1, %eax
	jne	.L1454
	movq	0(%r13), %rax
	movq	%r13, %rdi
	call	*24(%rax)
	jmp	.L1454
	.p2align 4,,10
	.p2align 3
.L1578:
	movq	0(%r13), %rax
	movq	%r13, %rdi
	call	*16(%rax)
	cmpb	$0, __libc_single_threaded(%rip)
	je	.L1465
	movl	12(%r13), %eax
	leal	-1(%rax), %edx
	movl	%edx, 12(%r13)
.L1466:
	cmpl	$1, %eax
	jne	.L1461
	movq	0(%r13), %rax
	movq	%r13, %rdi
	call	*24(%rax)
	jmp	.L1461
	.p2align 4,,10
	.p2align 3
.L1579:
	movq	0(%r13), %rax
	movq	%r13, %rdi
	call	*16(%rax)
	cmpb	$0, __libc_single_threaded(%rip)
	je	.L1474
	movl	12(%r13), %eax
	leal	-1(%rax), %edx
	movl	%edx, 12(%r13)
.L1475:
	cmpl	$1, %eax
	jne	.L1468
	movq	0(%r13), %rax
	movq	%r13, %rdi
	call	*24(%rax)
	jmp	.L1468
	.p2align 4,,10
	.p2align 3
.L1580:
	movq	0(%r13), %rax
	movq	%r13, %rdi
	call	*16(%rax)
	cmpb	$0, __libc_single_threaded(%rip)
	je	.L1481
	movl	12(%r13), %eax
	leal	-1(%rax), %edx
	movl	%edx, 12(%r13)
.L1482:
	cmpl	$1, %eax
	jne	.L1477
	movq	0(%r13), %rax
	movq	%r13, %rdi
	call	*24(%rax)
	jmp	.L1477
	.p2align 4,,10
	.p2align 3
.L1581:
	movq	(%r14), %rax
	movq	%r14, %rdi
	call	*16(%rax)
	cmpb	$0, __libc_single_threaded(%rip)
	je	.L1507
	movl	12(%r14), %eax
	leal	-1(%rax), %edx
	movl	%edx, 12(%r14)
.L1508:
	cmpl	$1, %eax
	jne	.L1503
	movq	(%r14), %rax
	movq	%r14, %rdi
	call	*24(%rax)
	jmp	.L1503
	.p2align 4,,10
	.p2align 3
.L1582:
	movq	(%r14), %rax
	movq	%r14, %rdi
	call	*16(%rax)
	cmpb	$0, __libc_single_threaded(%rip)
	je	.L1514
	movl	12(%r14), %eax
	leal	-1(%rax), %edx
	movl	%edx, 12(%r14)
.L1515:
	cmpl	$1, %eax
	jne	.L1510
	movq	(%r14), %rax
	movq	%r14, %rdi
	call	*24(%rax)
	jmp	.L1510
	.p2align 4,,10
	.p2align 3
.L1526:
	movl	$-1, %eax
	lock xaddl	%eax, 8(%rbx)
	jmp	.L1527
	.p2align 4,,10
	.p2align 3
.L1519:
	movl	$-1, %eax
	lock xaddl	%eax, 8(%rbx)
	jmp	.L1520
	.p2align 4,,10
	.p2align 3
.L1455:
	movl	$-1, %eax
	lock xaddl	%eax, 8(%r13)
	jmp	.L1456
	.p2align 4,,10
	.p2align 3
.L1462:
	movl	$-1, %eax
	lock xaddl	%eax, 8(%r13)
	jmp	.L1463
	.p2align 4,,10
	.p2align 3
.L1471:
	movl	$-1, %eax
	lock xaddl	%eax, 8(%r13)
	jmp	.L1472
	.p2align 4,,10
	.p2align 3
.L1478:
	movl	$-1, %eax
	lock xaddl	%eax, 8(%r13)
	jmp	.L1479
	.p2align 4,,10
	.p2align 3
.L1511:
	movl	$-1, %eax
	lock xaddl	%eax, 8(%r14)
	jmp	.L1512
	.p2align 4,,10
	.p2align 3
.L1504:
	movl	$-1, %eax
	lock xaddl	%eax, 8(%r14)
	jmp	.L1505
	.p2align 4,,10
	.p2align 3
.L1458:
	movl	$-1, %eax
	lock xaddl	%eax, 12(%r13)
	jmp	.L1459
	.p2align 4,,10
	.p2align 3
.L1465:
	movl	$-1, %eax
	lock xaddl	%eax, 12(%r13)
	jmp	.L1466
	.p2align 4,,10
	.p2align 3
.L1474:
	movl	$-1, %eax
	lock xaddl	%eax, 12(%r13)
	jmp	.L1475
	.p2align 4,,10
	.p2align 3
.L1481:
	movl	$-1, %eax
	lock xaddl	%eax, 12(%r13)
	jmp	.L1482
	.p2align 4,,10
	.p2align 3
.L1584:
	movq	(%rbx), %rax
	movq	%rbx, %rdi
	call	*24(%rax)
	jmp	.L1525
	.p2align 4,,10
	.p2align 3
.L1583:
	movq	(%rbx), %rax
	movq	%rbx, %rdi
	call	*24(%rax)
	jmp	.L1518
	.p2align 4,,10
	.p2align 3
.L1514:
	movl	$-1, %eax
	lock xaddl	%eax, 12(%r14)
	jmp	.L1515
	.p2align 4,,10
	.p2align 3
.L1507:
	movl	$-1, %eax
	lock xaddl	%eax, 12(%r14)
	jmp	.L1508
	.p2align 4,,10
	.p2align 3
.L1529:
	movl	$-1, %eax
	lock xaddl	%eax, 12(%rbx)
	jmp	.L1530
	.p2align 4,,10
	.p2align 3
.L1522:
	movl	$-1, %eax
	lock xaddl	%eax, 12(%rbx)
	jmp	.L1523
.L1585:
	call	__stack_chk_fail@PLT
.L1555:
	endbr64
	movq	%rax, %rdi
	jmp	.L1487
.L1545:
	endbr64
	movq	%rax, %rbx
	jmp	.L1534
.L1550:
	endbr64
.L1576:
	movq	%rax, %rbx
	jmp	.L1541
.L1552:
	endbr64
	jmp	.L1576
.L1553:
	endbr64
	movq	%rax, %rbx
.L1469:
	movq	%r12, %rdi
	call	_ZN7TextureD1Ev
.L1470:
	movq	%r13, %rdi
	call	_ZN7TextureD1Ev
.L1532:
	movq	-160(%rbp), %rdi
	cmpq	-328(%rbp), %rdi
	je	.L1534
	movq	-144(%rbp), %rax
	leaq	1(%rax), %rsi
	call	_ZdlPvm@PLT
.L1534:
	movq	-128(%rbp), %rdi
	cmpq	%r14, %rdi
	je	.L1535
	movq	-112(%rbp), %rax
	leaq	1(%rax), %rsi
	call	_ZdlPvm@PLT
.L1535:
	movq	-96(%rbp), %rdi
	cmpq	%r15, %rdi
	je	.L1536
	movq	-80(%rbp), %rax
	leaq	1(%rax), %rsi
	call	_ZdlPvm@PLT
.L1536:
	movq	%rbx, %rdi
.LEHB85:
	call	_Unwind_Resume@PLT
.LEHE85:
.L1487:
	call	__cxa_begin_catch@PLT
	xorl	%edi, %edi
.LEHB86:
	call	SDL_DestroyTexture@PLT
	call	__cxa_rethrow@PLT
.LEHE86:
.L1554:
	endbr64
	movq	%rax, %r12
	jmp	.L1488
.L1541:
	movq	%r12, %rdi
	movq	%rbx, %r12
	call	_ZN7TextureD1Ev
.L1542:
	movq	-96(%rbp), %rdi
	cmpq	%r15, %rdi
	jne	.L1586
.L1540:
	movq	-328(%rbp), %rdi
	call	_ZN7TextureD1Ev
.L1497:
	movq	-320(%rbp), %rdi
	call	_ZN7TextureD1Ev
	jmp	.L1489
.L1488:
	call	__cxa_end_catch@PLT
.L1489:
	movq	-296(%rbp), %rax
	leaq	16+_ZTV10Rigid_body(%rip), %rsi
	movq	%rsi, (%rax)
	movq	%rax, %rdi
	call	_ZN6EntityD2Ev
	movq	%r12, %rdi
.LEHB87:
	call	_Unwind_Resume@PLT
.LEHE87:
.L1586:
	movq	-80(%rbp), %rax
	leaq	1(%rax), %rsi
	call	_ZdlPvm@PLT
	jmp	.L1540
.L1547:
	endbr64
	movq	%rax, %rbx
	jmp	.L1470
.L1546:
	endbr64
	movq	%rax, %rbx
	jmp	.L1532
.L1548:
	endbr64
	movq	%rax, %r12
	jmp	.L1540
.L1561:
	endbr64
	movq	%rax, %rdi
	jmp	.L1499
.L1559:
	endbr64
	movq	%rax, %rdi
	jmp	.L1495
.L1551:
	endbr64
.L1575:
	movq	%rax, %r12
	jmp	.L1542
.L1557:
	endbr64
	movq	%rax, %rdi
	jmp	.L1491
.L1549:
	endbr64
	jmp	.L1575
.L1499:
	call	__cxa_begin_catch@PLT
	xorl	%edi, %edi
.LEHB88:
	call	SDL_FreeSurface@PLT
	call	__cxa_rethrow@PLT
.LEHE88:
.L1560:
	endbr64
	movq	%rax, %r12
	jmp	.L1500
.L1495:
	call	__cxa_begin_catch@PLT
	xorl	%edi, %edi
.LEHB89:
	call	SDL_DestroyTexture@PLT
	call	__cxa_rethrow@PLT
.LEHE89:
.L1491:
	call	__cxa_begin_catch@PLT
	xorl	%edi, %edi
.LEHB90:
	call	SDL_FreeSurface@PLT
	call	__cxa_rethrow@PLT
.LEHE90:
.L1500:
	call	__cxa_end_catch@PLT
	movq	-296(%rbp), %rax
	movq	256(%rax), %rdi
	testq	%rdi, %rdi
	je	.L1497
	call	_ZNSt16_Sp_counted_baseILN9__gnu_cxx12_Lock_policyE2EE10_M_releaseEv
	jmp	.L1497
.L1558:
	endbr64
	movq	%rax, %r12
	jmp	.L1496
.L1556:
	endbr64
	movq	%rax, %r12
	jmp	.L1492
.L1496:
	call	__cxa_end_catch@PLT
	jmp	.L1497
.L1492:
	call	__cxa_end_catch@PLT
	movq	-296(%rbp), %rax
	movq	216(%rax), %rdi
	testq	%rdi, %rdi
	je	.L1489
	call	_ZNSt16_Sp_counted_baseILN9__gnu_cxx12_Lock_policyE2EE10_M_releaseEv
	jmp	.L1489
	.cfi_endproc
.LFE12042:
	.section	.gcc_except_table
	.align 4
.LLSDA12042:
	.byte	0xff
	.byte	0x9b
	.uleb128 .LLSDATT12042-.LLSDATTD12042
.LLSDATTD12042:
	.byte	0x1
	.uleb128 .LLSDACSE12042-.LLSDACSB12042
.LLSDACSB12042:
	.uleb128 .LEHB71-.LFB12042
	.uleb128 .LEHE71-.LEHB71
	.uleb128 .L1545-.LFB12042
	.uleb128 0
	.uleb128 .LEHB72-.LFB12042
	.uleb128 .LEHE72-.LEHB72
	.uleb128 .L1546-.LFB12042
	.uleb128 0
	.uleb128 .LEHB73-.LFB12042
	.uleb128 .LEHE73-.LEHB73
	.uleb128 .L1547-.LFB12042
	.uleb128 0
	.uleb128 .LEHB74-.LFB12042
	.uleb128 .LEHE74-.LEHB74
	.uleb128 .L1553-.LFB12042
	.uleb128 0
	.uleb128 .LEHB75-.LFB12042
	.uleb128 .LEHE75-.LEHB75
	.uleb128 .L1555-.LFB12042
	.uleb128 0x1
	.uleb128 .LEHB76-.LFB12042
	.uleb128 .LEHE76-.LEHB76
	.uleb128 .L1557-.LFB12042
	.uleb128 0x1
	.uleb128 .LEHB77-.LFB12042
	.uleb128 .LEHE77-.LEHB77
	.uleb128 .L1559-.LFB12042
	.uleb128 0x1
	.uleb128 .LEHB78-.LFB12042
	.uleb128 .LEHE78-.LEHB78
	.uleb128 .L1561-.LFB12042
	.uleb128 0x1
	.uleb128 .LEHB79-.LFB12042
	.uleb128 .LEHE79-.LEHB79
	.uleb128 .L1548-.LFB12042
	.uleb128 0
	.uleb128 .LEHB80-.LFB12042
	.uleb128 .LEHE80-.LEHB80
	.uleb128 .L1549-.LFB12042
	.uleb128 0
	.uleb128 .LEHB81-.LFB12042
	.uleb128 .LEHE81-.LEHB81
	.uleb128 .L1550-.LFB12042
	.uleb128 0
	.uleb128 .LEHB82-.LFB12042
	.uleb128 .LEHE82-.LEHB82
	.uleb128 .L1548-.LFB12042
	.uleb128 0
	.uleb128 .LEHB83-.LFB12042
	.uleb128 .LEHE83-.LEHB83
	.uleb128 .L1551-.LFB12042
	.uleb128 0
	.uleb128 .LEHB84-.LFB12042
	.uleb128 .LEHE84-.LEHB84
	.uleb128 .L1552-.LFB12042
	.uleb128 0
	.uleb128 .LEHB85-.LFB12042
	.uleb128 .LEHE85-.LEHB85
	.uleb128 0
	.uleb128 0
	.uleb128 .LEHB86-.LFB12042
	.uleb128 .LEHE86-.LEHB86
	.uleb128 .L1554-.LFB12042
	.uleb128 0
	.uleb128 .LEHB87-.LFB12042
	.uleb128 .LEHE87-.LEHB87
	.uleb128 0
	.uleb128 0
	.uleb128 .LEHB88-.LFB12042
	.uleb128 .LEHE88-.LEHB88
	.uleb128 .L1560-.LFB12042
	.uleb128 0
	.uleb128 .LEHB89-.LFB12042
	.uleb128 .LEHE89-.LEHB89
	.uleb128 .L1558-.LFB12042
	.uleb128 0
	.uleb128 .LEHB90-.LFB12042
	.uleb128 .LEHE90-.LEHB90
	.uleb128 .L1556-.LFB12042
	.uleb128 0
.LLSDACSE12042:
	.byte	0x1
	.byte	0
	.align 4
	.long	0

.LLSDATT12042:
	.section	.text._ZN6GeraltC2E6Point3IfE7Vector2IfER6Engine,"axG",@progbits,_ZN6GeraltC5E6Point3IfE7Vector2IfER6Engine,comdat
	.size	_ZN6GeraltC2E6Point3IfE7Vector2IfER6Engine, .-_ZN6GeraltC2E6Point3IfE7Vector2IfER6Engine
	.weak	_ZN6GeraltC1E6Point3IfE7Vector2IfER6Engine
	.set	_ZN6GeraltC1E6Point3IfE7Vector2IfER6Engine,_ZN6GeraltC2E6Point3IfE7Vector2IfER6Engine
	.section	.text._ZN16Geralt_eats_game15on_game_startupER6Engine,"axG",@progbits,_ZN16Geralt_eats_game15on_game_startupER6Engine,comdat
	.align 2
	.p2align 4
	.weak	_ZN16Geralt_eats_game15on_game_startupER6Engine
	.type	_ZN16Geralt_eats_game15on_game_startupER6Engine, @function
_ZN16Geralt_eats_game15on_game_startupER6Engine:
.LFB12129:
	.cfi_startproc
	.cfi_personality 0x9b,DW.ref.__gxx_personality_v0
	.cfi_lsda 0x1b,.LLSDA12129
	endbr64
	pushq	%rbp
	.cfi_def_cfa_offset 16
	.cfi_offset 6, -16
	movq	%rsp, %rbp
	.cfi_def_cfa_register 6
	pushq	%r15
	pushq	%r14
	.cfi_offset 15, -24
	.cfi_offset 14, -32
	movq	%rsi, %r14
	pushq	%r13
	pushq	%r12
	.cfi_offset 13, -40
	.cfi_offset 12, -48
	leaq	-96(%rbp), %r12
	pushq	%rbx
	.cfi_offset 3, -56
	leaq	-80(%rbp), %rbx
	subq	$568, %rsp
	movq	%rdi, -488(%rbp)
	movl	$24, %edi
	movq	%fs:40, %rax
	movq	%rax, -56(%rbp)
	xorl	%eax, %eax
	movq	%rbx, -96(%rbp)
.LEHB91:
	call	_Znwm@PLT
.LEHE91:
	movl	$28272, %ecx
	movq	%r12, %rdx
	movq	%r14, %rsi
	movdqa	.LC69(%rip), %xmm0
	movl	$778135664, 16(%rax)
	movw	%cx, 20(%rax)
	movb	$103, 22(%rax)
	movb	$0, 23(%rax)
	movq	%rax, -96(%rbp)
	movups	%xmm0, (%rax)
	leaq	-400(%rbp), %rax
	movq	%rax, %rdi
	movq	$23, -80(%rbp)
	movq	$23, -88(%rbp)
	movq	%rax, -472(%rbp)
.LEHB92:
	call	_ZN6Engine12load_textureERKNSt7__cxx1112basic_stringIcSt11char_traitsIcESaIcEEE@PLT
.LEHE92:
	movq	-96(%rbp), %rdi
	cmpq	%rbx, %rdi
	je	.L1588
	movq	-80(%rbp), %rax
	leaq	1(%rax), %rsi
	call	_ZdlPvm@PLT
.L1588:
	movl	$19, %edi
	movq	%rbx, -96(%rbp)
.LEHB93:
	call	_Znwm@PLT
.LEHE93:
	movl	$26478, %edx
	movdqa	.LC70(%rip), %xmm0
	movb	$0, 18(%rax)
	movq	%r14, %rsi
	movw	%dx, 16(%rax)
	movq	%r12, %rdx
	movq	%rax, -96(%rbp)
	movups	%xmm0, (%rax)
	leaq	-352(%rbp), %rax
	movq	%rax, %rdi
	movq	$18, -80(%rbp)
	movq	$18, -88(%rbp)
	movq	%rax, -528(%rbp)
.LEHB94:
	call	_ZN6Engine12load_textureERKNSt7__cxx1112basic_stringIcSt11char_traitsIcESaIcEEE@PLT
.LEHE94:
	movq	-96(%rbp), %rdi
	cmpq	%rbx, %rdi
	je	.L1589
	movq	-80(%rbp), %rax
	leaq	1(%rax), %rsi
	call	_ZdlPvm@PLT
.L1589:
	movl	$34, %edi
	movq	%rbx, -96(%rbp)
.LEHB95:
	call	_Znwm@PLT
.LEHE95:
	movdqa	.LC71(%rip), %xmm0
	movb	$103, 32(%rax)
	movq	%r12, %rdx
	movq	%r14, %rsi
	movb	$0, 33(%rax)
	movups	%xmm0, (%rax)
	movdqa	.LC72(%rip), %xmm0
	movq	%rax, -96(%rbp)
	movups	%xmm0, 16(%rax)
	leaq	-304(%rbp), %rax
	movq	%rax, %rdi
	movq	$33, -80(%rbp)
	movq	$33, -88(%rbp)
	movq	%rax, -584(%rbp)
.LEHB96:
	call	_ZN6Engine12load_textureERKNSt7__cxx1112basic_stringIcSt11char_traitsIcESaIcEEE@PLT
.LEHE96:
	movq	-96(%rbp), %rdi
	cmpq	%rbx, %rdi
	je	.L1590
	movq	-80(%rbp), %rax
	leaq	1(%rax), %rsi
	call	_ZdlPvm@PLT
.L1590:
	movl	$304, %edi
.LEHB97:
	call	_Znwm@PLT
.LEHE97:
	movq	%rax, %rdx
	movq	%rax, -568(%rbp)
	leaq	8(%rax), %rax
	movq	%r14, %rcx
	movq	%rax, -576(%rbp)
	movq	.LC1(%rip), %rax
	leaq	-256(%rbp), %r13
	leaq	16(%rdx), %rdi
	leaq	-208(%rbp), %r15
	movq	%r13, -456(%rbp)
	movq	%rax, 8(%rdx)
	movq	%r15, %rsi
	leaq	16+_ZTVSt23_Sp_counted_ptr_inplaceI6GeraltSaIS0_ELN9__gnu_cxx12_Lock_policyE2EE(%rip), %rax
	movq	%rax, (%rdx)
	movq	%r13, %rdx
	movq	.LC51(%rip), %rax
	movl	$0x00000000, -200(%rbp)
	movq	%rax, -208(%rbp)
	movq	.LC52(%rip), %rax
	movq	%rax, -256(%rbp)
.LEHB98:
	call	_ZN6GeraltC1E6Point3IfE7Vector2IfER6Engine
.LEHE98:
	movl	$216, %edi
.LEHB99:
	call	_Znwm@PLT
.LEHE99:
	movq	.LC1(%rip), %rsi
	leaq	8(%rax), %rdx
	movq	%r13, %rdi
	leaq	16+_ZTVSt23_Sp_counted_ptr_inplaceI10Rigid_bodySaIS0_ELN9__gnu_cxx12_Lock_policyE2EE(%rip), %rcx
	movq	%rcx, (%rax)
	movq	%rsi, 8(%rax)
	movq	-472(%rbp), %rsi
	movq	%rax, -464(%rbp)
	addq	$16, %rax
	movq	%rdx, -592(%rbp)
	movq	%rax, -480(%rbp)
.LEHB100:
	call	_ZN7TextureC1ERKS_@PLT
.LEHE100:
	leaq	-112(%rbp), %rax
	movl	$25710, %r13d
	movabsq	$8026082370797398354, %rdi
	movq	-456(%rbp), %rsi
	movq	%rax, -448(%rbp)
	movl	$10, %r12d
	movq	%rax, -128(%rbp)
	movl	$31076, %eax
	movq	%rdi, -80(%rbp)
	movq	%r15, %rdi
	movl	$1970238023, -112(%rbp)
	movw	%r13w, -108(%rbp)
	movq	$6, -120(%rbp)
	movb	$0, -106(%rbp)
	movq	%rbx, -96(%rbp)
	movw	%ax, -72(%rbp)
	movq	$10, -88(%rbp)
	movb	$0, -70(%rbp)
.LEHB101:
	call	_ZN7TextureC1ERKS_@PLT
.LEHE101:
	movq	.LC53(%rip), %rax
	leaq	-416(%rbp), %rdi
	pushq	%rbx
	leaq	-424(%rbp), %rdx
	pushq	%r12
	movq	%rdi, %rsi
	movq	-448(%rbp), %r9
	movq	%r15, %rcx
	movq	%rax, -424(%rbp)
	movl	$6, %r8d
	movq	.LC54(%rip), %rax
	movq	%rdi, -520(%rbp)
	movq	-480(%rbp), %rdi
	movq	%rax, -416(%rbp)
	movl	$0x00000000, -408(%rbp)
	movq	%rdx, -496(%rbp)
.LEHB102:
	.cfi_escape 0x2e,0x10
	call	_ZN6EntityC2E6Point3IfE7Vector2IfE7TextureSt17basic_string_viewIcSt11char_traitsIcEES8_@PLT
.LEHE102:
	movq	-184(%rbp), %rsi
	popq	%r11
	popq	%r12
	movq	%rsi, %r13
	testq	%rsi, %rsi
	je	.L1595
	cmpb	$0, __libc_single_threaded(%rip)
	je	.L1596
	movl	8(%rsi), %eax
	leal	-1(%rax), %edx
	movl	%edx, 8(%rsi)
.L1597:
	cmpl	$1, %eax
	je	.L1931
.L1595:
	movq	-200(%rbp), %rsi
	movq	%rsi, %r13
	testq	%rsi, %rsi
	je	.L1602
	cmpb	$0, __libc_single_threaded(%rip)
	je	.L1603
	movl	8(%rsi), %eax
	leal	-1(%rax), %edx
	movl	%edx, 8(%rsi)
.L1604:
	cmpl	$1, %eax
	je	.L1932
.L1602:
	movq	-464(%rbp), %rax
	movaps	.LC41(%rip), %xmm4
	leaq	16+_ZTV10Rigid_body(%rip), %rcx
	movaps	.LC42(%rip), %xmm5
	movaps	.LC43(%rip), %xmm6
	movq	-96(%rbp), %rdi
	movq	%rcx, 16(%rax)
	movl	$0x00000000, 212(%rax)
	movb	$0, 208(%rax)
	movups	%xmm4, 160(%rax)
	movups	%xmm5, 176(%rax)
	movups	%xmm6, 192(%rax)
	cmpq	%rbx, %rdi
	je	.L1609
	movq	-80(%rbp), %rax
	leaq	1(%rax), %rsi
	call	_ZdlPvm@PLT
.L1609:
	movq	-128(%rbp), %rdi
	cmpq	-448(%rbp), %rdi
	je	.L1612
	movq	-112(%rbp), %rax
	leaq	1(%rax), %rsi
	call	_ZdlPvm@PLT
.L1612:
	movq	-232(%rbp), %rsi
	movq	%rsi, %r13
	testq	%rsi, %rsi
	je	.L1614
	cmpb	$0, __libc_single_threaded(%rip)
	je	.L1615
	movl	8(%rsi), %eax
	leal	-1(%rax), %edx
	movl	%edx, 8(%rsi)
.L1616:
	cmpl	$1, %eax
	je	.L1933
.L1614:
	movq	-248(%rbp), %rcx
	movq	%rcx, %r13
	testq	%rcx, %rcx
	je	.L1621
	cmpb	$0, __libc_single_threaded(%rip)
	je	.L1622
	movl	8(%rcx), %eax
	leal	-1(%rax), %edx
	movl	%edx, 8(%rcx)
.L1623:
	cmpl	$1, %eax
	je	.L1934
.L1621:
	movl	$576, %edi
.LEHB103:
	.cfi_escape 0x2e,0
	call	_Znwm@PLT
.LEHE103:
	movq	.LC1(%rip), %rdi
	leaq	8(%rax), %rdx
	leaq	16+_ZTVSt23_Sp_counted_ptr_inplaceI12Lemming_heroSaIS0_ELN9__gnu_cxx12_Lock_policyE2EE(%rip), %rcx
	movq	%rax, -440(%rbp)
	movq	%rcx, (%rax)
	addq	$16, %rax
	movl	$28265, %r9d
	movl	$28265, %r10d
	movq	%rdi, -8(%rax)
	movl	$33, %edi
	movq	%rax, -512(%rbp)
	movq	-448(%rbp), %rax
	movq	%rdx, -600(%rbp)
	movq	%rax, -128(%rbp)
	leaq	-144(%rbp), %rax
	movq	%rbx, -96(%rbp)
	movl	$1835885900, -80(%rbp)
	movw	%r9w, -76(%rbp)
	movb	$103, -74(%rbp)
	movq	$7, -88(%rbp)
	movb	$0, -73(%rbp)
	movl	$1835885900, -112(%rbp)
	movw	%r10w, -108(%rbp)
	movb	$103, -106(%rbp)
	movq	$7, -120(%rbp)
	movb	$0, -105(%rbp)
	movq	%rax, -544(%rbp)
	movq	%rax, -160(%rbp)
.LEHB104:
	call	_Znwm@PLT
.LEHE104:
	movdqa	.LC73(%rip), %xmm0
	movb	$0, 32(%rax)
	movq	%r14, %rsi
	leaq	-160(%rbp), %rdx
	movq	-456(%rbp), %rdi
	movq	%rax, -160(%rbp)
	movups	%xmm0, (%rax)
	movdqa	.LC74(%rip), %xmm0
	movq	$32, -144(%rbp)
	movups	%xmm0, 16(%rax)
	movq	$32, -152(%rbp)
.LEHB105:
	call	_ZN6Engine12load_textureERKNSt7__cxx1112basic_stringIcSt11char_traitsIcESaIcEEE@PLT
.LEHE105:
	movq	-120(%rbp), %rax
	movq	-456(%rbp), %rsi
	movq	%r15, %rdi
	movq	-88(%rbp), %r12
	movq	-96(%rbp), %r13
	movq	%rax, -560(%rbp)
	movq	-128(%rbp), %r14
.LEHB106:
	call	_ZN7TextureC1ERKS_@PLT
.LEHE106:
	movq	.LC52(%rip), %rdx
	pushq	%r13
	movq	%r14, %r9
	movq	%r15, %rcx
	movq	.LC55(%rip), %rax
	movq	-560(%rbp), %r8
	pushq	%r12
	movq	%rdx, -424(%rbp)
	movq	-520(%rbp), %rsi
	movq	-496(%rbp), %rdx
	movq	-512(%rbp), %rdi
	movq	%rax, -416(%rbp)
	movl	$0x00000000, -408(%rbp)
.LEHB107:
	.cfi_escape 0x2e,0x10
	call	_ZN6EntityC2E6Point3IfE7Vector2IfE7TextureSt17basic_string_viewIcSt11char_traitsIcEES8_@PLT
.LEHE107:
	movq	-184(%rbp), %r12
	popq	%rdi
	popq	%r8
	testq	%r12, %r12
	je	.L1633
	cmpb	$0, __libc_single_threaded(%rip)
	je	.L1634
	movl	8(%r12), %eax
	leal	-1(%rax), %edx
	movl	%edx, 8(%r12)
.L1635:
	cmpl	$1, %eax
	jne	.L1633
	movq	(%r12), %rax
	movq	%r12, %rdi
	call	*16(%rax)
	cmpb	$0, __libc_single_threaded(%rip)
	je	.L1637
	movl	12(%r12), %eax
	leal	-1(%rax), %edx
	movl	%edx, 12(%r12)
.L1638:
	cmpl	$1, %eax
	je	.L1935
	.p2align 4,,10
	.p2align 3
.L1633:
	movq	-200(%rbp), %r12
	testq	%r12, %r12
	je	.L1640
	cmpb	$0, __libc_single_threaded(%rip)
	je	.L1641
	movl	8(%r12), %eax
	leal	-1(%rax), %edx
	movl	%edx, 8(%r12)
.L1642:
	cmpl	$1, %eax
	jne	.L1640
	movq	(%r12), %rax
	movq	%r12, %rdi
	call	*16(%rax)
	cmpb	$0, __libc_single_threaded(%rip)
	je	.L1644
	movl	12(%r12), %eax
	leal	-1(%rax), %edx
	movl	%edx, 12(%r12)
.L1645:
	cmpl	$1, %eax
	je	.L1936
	.p2align 4,,10
	.p2align 3
.L1640:
	movq	-440(%rbp), %rax
	movaps	.LC41(%rip), %xmm7
	leaq	16+_ZTV10Rigid_body(%rip), %rdi
	movaps	.LC43(%rip), %xmm4
	movq	-232(%rbp), %r12
	movups	%xmm7, 160(%rax)
	movaps	.LC42(%rip), %xmm7
	movq	%rdi, 16(%rax)
	movl	$0x00000000, 212(%rax)
	movb	$0, 208(%rax)
	movups	%xmm7, 176(%rax)
	movups	%xmm4, 192(%rax)
	testq	%r12, %r12
	je	.L1647
	cmpb	$0, __libc_single_threaded(%rip)
	je	.L1650
	movl	8(%r12), %eax
	leal	-1(%rax), %edx
	movl	%edx, 8(%r12)
.L1651:
	cmpl	$1, %eax
	jne	.L1647
	movq	(%r12), %rax
	movq	%r12, %rdi
	call	*16(%rax)
	cmpb	$0, __libc_single_threaded(%rip)
	je	.L1653
	movl	12(%r12), %eax
	leal	-1(%rax), %edx
	movl	%edx, 12(%r12)
.L1654:
	cmpl	$1, %eax
	je	.L1937
	.p2align 4,,10
	.p2align 3
.L1647:
	movq	-248(%rbp), %r12
	testq	%r12, %r12
	je	.L1656
	cmpb	$0, __libc_single_threaded(%rip)
	je	.L1657
	movl	8(%r12), %eax
	leal	-1(%rax), %edx
	movl	%edx, 8(%r12)
.L1658:
	cmpl	$1, %eax
	jne	.L1656
	movq	(%r12), %rax
	movq	%r12, %rdi
	call	*16(%rax)
	cmpb	$0, __libc_single_threaded(%rip)
	je	.L1660
	movl	12(%r12), %eax
	leal	-1(%rax), %edx
	movl	%edx, 12(%r12)
.L1661:
	cmpl	$1, %eax
	je	.L1938
	.p2align 4,,10
	.p2align 3
.L1656:
	movq	-160(%rbp), %rdi
	cmpq	-544(%rbp), %rdi
	je	.L1662
	movq	-144(%rbp), %rax
	leaq	1(%rax), %rsi
	call	_ZdlPvm@PLT
.L1662:
	movq	-128(%rbp), %rdi
	cmpq	-448(%rbp), %rdi
	je	.L1663
	movq	-112(%rbp), %rax
	leaq	1(%rax), %rsi
	call	_ZdlPvm@PLT
.L1663:
	movq	-96(%rbp), %rdi
	cmpq	%rbx, %rdi
	je	.L1664
	movq	-80(%rbp), %rax
	leaq	1(%rax), %rsi
	call	_ZdlPvm@PLT
.L1664:
	movq	-440(%rbp), %r14
	leaq	16+_ZTV12Lemming_hero(%rip), %rax
	pxor	%xmm0, %xmm0
	movl	$32, %edi
	movq	%rax, 16(%r14)
	leaq	224(%r14), %rax
	movb	$0, 216(%r14)
	movups	%xmm0, 224(%r14)
	movq	%rax, -544(%rbp)
.LEHB108:
	.cfi_escape 0x2e,0
	call	_Znwm@PLT
.LEHE108:
	movq	.LC1(%rip), %rcx
	movq	SDL_DestroyTexture@GOTPCREL(%rip), %r12
	leaq	16+_ZTVSt19_Sp_counted_deleterIDnPFvP11SDL_TextureESaIvELN9__gnu_cxx12_Lock_policyE2EE(%rip), %r13
	movq	$0, 24(%rax)
	movq	%r13, (%rax)
	movl	$32, %edi
	movq	%rcx, 8(%rax)
	movq	%r12, 16(%rax)
	movq	%rax, 232(%r14)
	movq	$0, 240(%r14)
	movq	$0, 248(%r14)
	movq	%r14, -440(%rbp)
.LEHB109:
	call	_Znwm@PLT
.LEHE109:
	movq	-440(%rbp), %rdx
	movq	.LC1(%rip), %rdi
	leaq	16+_ZTVSt19_Sp_counted_deleterIDnPFvP11SDL_SurfaceESaIvELN9__gnu_cxx12_Lock_policyE2EE(%rip), %r14
	movq	$0, 24(%rax)
	movq	SDL_FreeSurface@GOTPCREL(%rip), %rcx
	movq	%r14, (%rax)
	pxor	%xmm0, %xmm0
	movq	%rax, 248(%rdx)
	movq	$0, 256(%rdx)
	movq	%rdi, 8(%rax)
	movl	$32, %edi
	movq	%rcx, 16(%rax)
	movq	%rdx, %rax
	leaq	264(%rdx), %rdx
	movups	%xmm0, 264(%rax)
	movq	%rdx, -560(%rbp)
.LEHB110:
	call	_Znwm@PLT
.LEHE110:
	movq	.LC1(%rip), %rdx
	movq	%r13, (%rax)
	movl	$32, %edi
	movq	%r12, 16(%rax)
	movq	%rdx, 8(%rax)
	movq	-440(%rbp), %rdx
	movq	$0, 24(%rax)
	movq	%rax, 272(%rdx)
	movq	$0, 280(%rdx)
	movq	$0, 288(%rdx)
.LEHB111:
	call	_Znwm@PLT
.LEHE111:
	movq	-440(%rbp), %rdx
	movq	SDL_FreeSurface@GOTPCREL(%rip), %rdi
	movq	%r14, (%rax)
	pxor	%xmm0, %xmm0
	movq	.LC1(%rip), %rsi
	movq	$0, 24(%rax)
	movq	%rdi, 16(%rax)
	movl	$32, %edi
	movq	%rsi, 8(%rax)
	movq	%rax, 288(%rdx)
	movq	$0, 296(%rdx)
	movups	%xmm0, 304(%rdx)
.LEHB112:
	call	_Znwm@PLT
.LEHE112:
	movq	.LC1(%rip), %rsi
	movq	%r13, (%rax)
	movl	$32, %edi
	movq	%r12, 16(%rax)
	movq	%rsi, 8(%rax)
	movq	-440(%rbp), %rsi
	movq	$0, 24(%rax)
	movq	%rax, 312(%rsi)
	movq	$0, 320(%rsi)
	movq	$0, 328(%rsi)
.LEHB113:
	call	_Znwm@PLT
.LEHE113:
	movq	SDL_FreeSurface@GOTPCREL(%rip), %rcx
	movdqa	.LC56(%rip), %xmm0
	movq	%r14, (%rax)
	movl	$216, %edi
	movq	.LC1(%rip), %rdx
	movq	$0, 24(%rax)
	movq	%rcx, 16(%rax)
	movq	-440(%rbp), %rcx
	movq	%rdx, 8(%rax)
	movups	%xmm0, 388(%rcx)
	movdqa	.LC57(%rip), %xmm0
	movq	%rax, 328(%rcx)
	leaq	368(%rcx), %rax
	movups	%xmm0, 404(%rcx)
	movdqa	.LC58(%rip), %xmm0
	movq	%rax, 352(%rcx)
	movups	%xmm0, 420(%rcx)
	movdqa	.LC59(%rip), %xmm0
	movq	$0, 336(%rcx)
	movups	%xmm0, 436(%rcx)
	movdqa	.LC60(%rip), %xmm0
	movl	$0x00000000, 344(%rcx)
	movups	%xmm0, 452(%rcx)
	movdqa	.LC61(%rip), %xmm0
	movq	$0, 360(%rcx)
	movups	%xmm0, 468(%rcx)
	movdqa	.LC62(%rip), %xmm0
	movb	$0, 368(%rcx)
	movups	%xmm0, 484(%rcx)
	movaps	.LC63(%rip), %xmm0
	movb	$1, 385(%rcx)
	movups	%xmm0, 504(%rcx)
	movaps	.LC64(%rip), %xmm0
	movl	$16, 500(%rcx)
	movups	%xmm0, 520(%rcx)
	movq	.LC65(%rip), %rax
	movq	$0, 560(%rcx)
	movq	%rax, 552(%rcx)
	movq	.LC66(%rip), %rax
	movl	$1, 568(%rcx)
	movq	%rax, 176(%rcx)
	movups	%xmm0, 536(%rcx)
.LEHB114:
	call	_Znwm@PLT
.LEHE114:
	movq	%rax, %r14
	leaq	8(%rax), %rax
	movq	-480(%rbp), %xmm1
	movq	-512(%rbp), %xmm2
	movq	%rax, -608(%rbp)
	movq	.LC1(%rip), %rax
	movq	%r14, %xmm5
	movq	-528(%rbp), %rsi
	movq	-456(%rbp), %rdi
	movhps	-464(%rbp), %xmm1
	movhps	-440(%rbp), %xmm2
	movq	%rax, 8(%r14)
	leaq	16+_ZTVSt23_Sp_counted_ptr_inplaceI10Rigid_bodySaIS0_ELN9__gnu_cxx12_Lock_policyE2EE(%rip), %rax
	movq	%rax, (%r14)
	leaq	16(%r14), %rax
	movq	%rax, %xmm3
	movq	%rax, -480(%rbp)
	punpcklqdq	%xmm5, %xmm3
	movaps	%xmm1, -560(%rbp)
	movaps	%xmm2, -512(%rbp)
	movaps	%xmm3, -544(%rbp)
.LEHB115:
	call	_ZN7TextureC1ERKS_@PLT
.LEHE115:
	movl	$31076, %esi
	movl	$25710, %ecx
	movq	-448(%rbp), %rax
	movabsq	$8026082370797398354, %rdx
	movw	%si, -72(%rbp)
	movq	-456(%rbp), %rsi
	movq	%r15, %rdi
	movl	$10, %r12d
	movq	%rax, -128(%rbp)
	movl	$1970238023, -112(%rbp)
	movw	%cx, -108(%rbp)
	movq	$6, -120(%rbp)
	movb	$0, -106(%rbp)
	movq	%rbx, -96(%rbp)
	movq	%rdx, -80(%rbp)
	movq	$10, -88(%rbp)
	movb	$0, -70(%rbp)
.LEHB116:
	call	_ZN7TextureC1ERKS_@PLT
.LEHE116:
	movq	.LC67(%rip), %rax
	pushq	%rbx
	movl	$6, %r8d
	movq	%r15, %rcx
	movq	-448(%rbp), %r9
	movq	-496(%rbp), %rdx
	pushq	%r12
	movq	%rax, -424(%rbp)
	movq	-520(%rbp), %rsi
	movq	.LC68(%rip), %rax
	movq	-480(%rbp), %rdi
	movl	$0x00000000, -408(%rbp)
	movq	%rax, -416(%rbp)
.LEHB117:
	.cfi_escape 0x2e,0x10
	call	_ZN6EntityC2E6Point3IfE7Vector2IfE7TextureSt17basic_string_viewIcSt11char_traitsIcEES8_@PLT
.LEHE117:
	movq	-184(%rbp), %r12
	popq	%rax
	popq	%rdx
	testq	%r12, %r12
	je	.L1697
	cmpb	$0, __libc_single_threaded(%rip)
	je	.L1698
	movl	8(%r12), %eax
	leal	-1(%rax), %edx
	movl	%edx, 8(%r12)
.L1699:
	cmpl	$1, %eax
	je	.L1939
.L1697:
	movq	-200(%rbp), %r12
	testq	%r12, %r12
	je	.L1704
	cmpb	$0, __libc_single_threaded(%rip)
	je	.L1705
	movl	8(%r12), %eax
	leal	-1(%rax), %edx
	movl	%edx, 8(%r12)
.L1706:
	cmpl	$1, %eax
	je	.L1940
.L1704:
	movaps	.LC41(%rip), %xmm6
	movq	-96(%rbp), %rdi
	leaq	16+_ZTV10Rigid_body(%rip), %rax
	movl	$0x00000000, 212(%r14)
	movaps	.LC42(%rip), %xmm1
	movaps	.LC43(%rip), %xmm2
	movq	%rax, 16(%r14)
	movb	$0, 208(%r14)
	movups	%xmm6, 160(%r14)
	movups	%xmm1, 176(%r14)
	movups	%xmm2, 192(%r14)
	cmpq	%rbx, %rdi
	je	.L1711
	movq	-80(%rbp), %rax
	leaq	1(%rax), %rsi
	call	_ZdlPvm@PLT
.L1711:
	movq	-128(%rbp), %rdi
	cmpq	-448(%rbp), %rdi
	je	.L1714
	movq	-112(%rbp), %rax
	leaq	1(%rax), %rsi
	call	_ZdlPvm@PLT
.L1714:
	movq	-232(%rbp), %r12
	movzbl	__libc_single_threaded(%rip), %eax
	testq	%r12, %r12
	je	.L1716
	testb	%al, %al
	je	.L1717
	movl	8(%r12), %edx
	leal	-1(%rdx), %eax
	movl	%eax, 8(%r12)
.L1718:
	movzbl	__libc_single_threaded(%rip), %eax
	cmpl	$1, %edx
	je	.L1941
.L1716:
	movq	-248(%rbp), %r12
	testq	%r12, %r12
	je	.L1723
	testb	%al, %al
	je	.L1724
	movl	8(%r12), %eax
	leal	-1(%rax), %edx
	movl	%edx, 8(%r12)
.L1725:
	cmpl	$1, %eax
	je	.L1942
.L1723:
	movdqa	-512(%rbp), %xmm3
	cmpb	$0, __libc_single_threaded(%rip)
	movaps	%xmm3, -208(%rbp)
	je	.L1943
	movq	-440(%rbp), %rax
	addl	$1, 8(%rax)
.L1735:
	movq	-488(%rbp), %rdi
	movq	%r15, %rsi
.LEHB118:
	.cfi_escape 0x2e,0
	call	_ZN4Game13create_entityESt10shared_ptrI6EntityE@PLT
.LEHE118:
	movq	-200(%rbp), %r12
	movzbl	__libc_single_threaded(%rip), %eax
	testq	%r12, %r12
	je	.L1741
	testb	%al, %al
	je	.L1737
	movl	8(%r12), %eax
	leal	-1(%rax), %edx
	movl	%edx, 8(%r12)
.L1738:
	cmpl	$1, %eax
	je	.L1944
.L1741:
	movdqa	-560(%rbp), %xmm5
	cmpb	$0, __libc_single_threaded(%rip)
	movaps	%xmm5, -208(%rbp)
	je	.L1945
	movq	-464(%rbp), %rax
	addl	$1, 8(%rax)
.L1742:
	movq	-488(%rbp), %rdi
	movq	%r15, %rsi
.LEHB119:
	call	_ZN4Game13create_entityESt10shared_ptrI6EntityE@PLT
.LEHE119:
	movq	-200(%rbp), %r12
	movzbl	__libc_single_threaded(%rip), %eax
	testq	%r12, %r12
	je	.L1748
	testb	%al, %al
	je	.L1744
	movl	8(%r12), %eax
	leal	-1(%rax), %edx
	movl	%edx, 8(%r12)
.L1745:
	cmpl	$1, %eax
	je	.L1946
.L1748:
	movdqa	-544(%rbp), %xmm6
	cmpb	$0, __libc_single_threaded(%rip)
	movaps	%xmm6, -208(%rbp)
	je	.L1947
	addl	$1, 8(%r14)
.L1749:
	movq	-488(%rbp), %rdi
	movq	%r15, %rsi
.LEHB120:
	call	_ZN4Game13create_entityESt10shared_ptrI6EntityE@PLT
.LEHE120:
	movq	-200(%rbp), %r12
	movzbl	__libc_single_threaded(%rip), %eax
	testq	%r12, %r12
	je	.L1755
	testb	%al, %al
	je	.L1751
	movl	8(%r12), %eax
	leal	-1(%rax), %edx
	movl	%edx, 8(%r12)
.L1752:
	cmpl	$1, %eax
	je	.L1948
.L1755:
	cmpb	$0, __libc_single_threaded(%rip)
	je	.L1949
	movl	8(%r14), %eax
	leal	-1(%rax), %edx
	movl	%edx, 8(%r14)
.L1756:
	cmpl	$1, %eax
	je	.L1950
.L1760:
	cmpb	$0, __libc_single_threaded(%rip)
	je	.L1951
	movq	-440(%rbp), %rbx
	movl	8(%rbx), %eax
	leal	-1(%rax), %edx
	movl	%edx, 8(%rbx)
.L1761:
	cmpl	$1, %eax
	je	.L1952
.L1765:
	cmpb	$0, __libc_single_threaded(%rip)
	je	.L1953
	movq	-464(%rbp), %rbx
	movl	8(%rbx), %eax
	leal	-1(%rax), %edx
	movl	%edx, 8(%rbx)
.L1766:
	cmpl	$1, %eax
	je	.L1954
.L1770:
	cmpb	$0, __libc_single_threaded(%rip)
	je	.L1955
	movq	-568(%rbp), %rbx
	movl	8(%rbx), %eax
	leal	-1(%rax), %edx
	movl	%edx, 8(%rbx)
.L1771:
	cmpl	$1, %eax
	je	.L1956
.L1773:
	movq	-280(%rbp), %rbx
	testq	%rbx, %rbx
	je	.L1778
	cmpb	$0, __libc_single_threaded(%rip)
	je	.L1779
	movl	8(%rbx), %eax
	leal	-1(%rax), %edx
	movl	%edx, 8(%rbx)
.L1780:
	cmpl	$1, %eax
	je	.L1957
.L1778:
	movq	-296(%rbp), %rbx
	testq	%rbx, %rbx
	je	.L1785
	cmpb	$0, __libc_single_threaded(%rip)
	je	.L1786
	movl	8(%rbx), %eax
	leal	-1(%rax), %edx
	movl	%edx, 8(%rbx)
.L1787:
	cmpl	$1, %eax
	je	.L1958
.L1785:
	movq	-328(%rbp), %rbx
	testq	%rbx, %rbx
	je	.L1792
	cmpb	$0, __libc_single_threaded(%rip)
	je	.L1793
	movl	8(%rbx), %eax
	leal	-1(%rax), %edx
	movl	%edx, 8(%rbx)
.L1794:
	cmpl	$1, %eax
	je	.L1959
.L1792:
	movq	-344(%rbp), %rbx
	testq	%rbx, %rbx
	je	.L1799
	cmpb	$0, __libc_single_threaded(%rip)
	je	.L1800
	movl	8(%rbx), %eax
	leal	-1(%rax), %edx
	movl	%edx, 8(%rbx)
.L1801:
	cmpl	$1, %eax
	je	.L1960
.L1799:
	movq	-376(%rbp), %rbx
	testq	%rbx, %rbx
	je	.L1806
	cmpb	$0, __libc_single_threaded(%rip)
	je	.L1807
	movl	8(%rbx), %eax
	leal	-1(%rax), %edx
	movl	%edx, 8(%rbx)
.L1808:
	cmpl	$1, %eax
	je	.L1961
.L1806:
	movq	-392(%rbp), %rbx
	testq	%rbx, %rbx
	je	.L1587
	cmpb	$0, __libc_single_threaded(%rip)
	je	.L1814
	movl	8(%rbx), %eax
	leal	-1(%rax), %edx
	movl	%edx, 8(%rbx)
.L1815:
	cmpl	$1, %eax
	je	.L1962
.L1587:
	movq	-56(%rbp), %rax
	subq	%fs:40, %rax
	jne	.L1963
	leaq	-40(%rbp), %rsp
	popq	%rbx
	popq	%r12
	popq	%r13
	popq	%r14
	popq	%r15
	popq	%rbp
	.cfi_remember_state
	.cfi_def_cfa 7, 8
	ret
	.p2align 4,,10
	.p2align 3
.L1933:
	.cfi_restore_state
	movq	0(%r13), %rax
	movq	%r13, %rdi
	call	*16(%rax)
	cmpb	$0, __libc_single_threaded(%rip)
	je	.L1618
	movl	12(%r13), %eax
	leal	-1(%rax), %edx
	movl	%edx, 12(%r13)
.L1619:
	cmpl	$1, %eax
	jne	.L1614
	movq	0(%r13), %rax
	movq	%r13, %rdi
	call	*24(%rax)
	jmp	.L1614
	.p2align 4,,10
	.p2align 3
.L1934:
	movq	0(%r13), %rax
	movq	%r13, %rdi
	call	*16(%rax)
	cmpb	$0, __libc_single_threaded(%rip)
	je	.L1625
	movl	12(%r13), %eax
	leal	-1(%rax), %edx
	movl	%edx, 12(%r13)
.L1626:
	cmpl	$1, %eax
	jne	.L1621
	movq	0(%r13), %rax
	movq	%r13, %rdi
	call	*24(%rax)
	jmp	.L1621
	.p2align 4,,10
	.p2align 3
.L1931:
	movq	0(%r13), %rax
	movq	%r13, %rdi
	call	*16(%rax)
	cmpb	$0, __libc_single_threaded(%rip)
	je	.L1599
	movl	12(%r13), %eax
	leal	-1(%rax), %edx
	movl	%edx, 12(%r13)
.L1600:
	cmpl	$1, %eax
	jne	.L1595
	movq	0(%r13), %rax
	movq	%r13, %rdi
	call	*24(%rax)
	jmp	.L1595
	.p2align 4,,10
	.p2align 3
.L1932:
	movq	0(%r13), %rax
	movq	%r13, %rdi
	call	*16(%rax)
	cmpb	$0, __libc_single_threaded(%rip)
	je	.L1606
	movl	12(%r13), %eax
	leal	-1(%rax), %edx
	movl	%edx, 12(%r13)
.L1607:
	cmpl	$1, %eax
	jne	.L1602
	movq	0(%r13), %rax
	movq	%r13, %rdi
	call	*24(%rax)
	jmp	.L1602
	.p2align 4,,10
	.p2align 3
.L1634:
	movl	$-1, %eax
	lock xaddl	%eax, 8(%r12)
	jmp	.L1635
	.p2align 4,,10
	.p2align 3
.L1657:
	movl	$-1, %eax
	lock xaddl	%eax, 8(%r12)
	jmp	.L1658
	.p2align 4,,10
	.p2align 3
.L1641:
	movl	$-1, %eax
	lock xaddl	%eax, 8(%r12)
	jmp	.L1642
	.p2align 4,,10
	.p2align 3
.L1650:
	movl	$-1, %eax
	lock xaddl	%eax, 8(%r12)
	jmp	.L1651
	.p2align 4,,10
	.p2align 3
.L1943:
	movq	-440(%rbp), %rax
	lock addl	$1, 8(%rax)
	jmp	.L1735
	.p2align 4,,10
	.p2align 3
.L1615:
	movl	$-1, %eax
	lock xaddl	%eax, 8(%rsi)
	jmp	.L1616
	.p2align 4,,10
	.p2align 3
.L1596:
	movl	$-1, %eax
	lock xaddl	%eax, 8(%rsi)
	jmp	.L1597
	.p2align 4,,10
	.p2align 3
.L1603:
	movl	$-1, %eax
	lock xaddl	%eax, 8(%rsi)
	jmp	.L1604
	.p2align 4,,10
	.p2align 3
.L1622:
	movl	$-1, %eax
	lock xaddl	%eax, 8(%rcx)
	jmp	.L1623
	.p2align 4,,10
	.p2align 3
.L1947:
	lock addl	$1, 8(%r14)
	jmp	.L1749
	.p2align 4,,10
	.p2align 3
.L1945:
	movq	-464(%rbp), %rax
	lock addl	$1, 8(%rax)
	jmp	.L1742
	.p2align 4,,10
	.p2align 3
.L1939:
	movq	(%r12), %rax
	movq	%r12, %rdi
	call	*16(%rax)
	cmpb	$0, __libc_single_threaded(%rip)
	je	.L1701
	movl	12(%r12), %eax
	leal	-1(%rax), %edx
	movl	%edx, 12(%r12)
.L1702:
	cmpl	$1, %eax
	jne	.L1697
	movq	(%r12), %rax
	movq	%r12, %rdi
	call	*24(%rax)
	jmp	.L1697
	.p2align 4,,10
	.p2align 3
.L1940:
	movq	(%r12), %rax
	movq	%r12, %rdi
	call	*16(%rax)
	cmpb	$0, __libc_single_threaded(%rip)
	je	.L1708
	movl	12(%r12), %eax
	leal	-1(%rax), %edx
	movl	%edx, 12(%r12)
.L1709:
	cmpl	$1, %eax
	jne	.L1704
	movq	(%r12), %rax
	movq	%r12, %rdi
	call	*24(%rax)
	jmp	.L1704
	.p2align 4,,10
	.p2align 3
.L1941:
	movq	(%r12), %rax
	movq	%r12, %rdi
	call	*16(%rax)
	cmpb	$0, __libc_single_threaded(%rip)
	je	.L1720
	movl	12(%r12), %edx
	leal	-1(%rdx), %eax
	movl	%eax, 12(%r12)
.L1721:
	movzbl	__libc_single_threaded(%rip), %eax
	cmpl	$1, %edx
	jne	.L1716
	movq	(%r12), %rax
	movq	%r12, %rdi
	call	*24(%rax)
	movzbl	__libc_single_threaded(%rip), %eax
	jmp	.L1716
	.p2align 4,,10
	.p2align 3
.L1942:
	movq	(%r12), %rax
	movq	%r12, %rdi
	call	*16(%rax)
	cmpb	$0, __libc_single_threaded(%rip)
	je	.L1727
	movl	12(%r12), %eax
	leal	-1(%rax), %edx
	movl	%edx, 12(%r12)
.L1728:
	cmpl	$1, %eax
	jne	.L1723
	movq	(%r12), %rax
	movq	%r12, %rdi
	call	*24(%rax)
	jmp	.L1723
	.p2align 4,,10
	.p2align 3
.L1938:
	movq	(%r12), %rax
	movq	%r12, %rdi
	call	*24(%rax)
	jmp	.L1656
	.p2align 4,,10
	.p2align 3
.L1937:
	movq	(%r12), %rax
	movq	%r12, %rdi
	call	*24(%rax)
	jmp	.L1647
	.p2align 4,,10
	.p2align 3
.L1936:
	movq	(%r12), %rax
	movq	%r12, %rdi
	call	*24(%rax)
	jmp	.L1640
	.p2align 4,,10
	.p2align 3
.L1935:
	movq	(%r12), %rax
	movq	%r12, %rdi
	call	*24(%rax)
	jmp	.L1633
	.p2align 4,,10
	.p2align 3
.L1962:
	movq	(%rbx), %rax
	movq	%rbx, %rdi
	call	*16(%rax)
	cmpb	$0, __libc_single_threaded(%rip)
	je	.L1817
	movl	12(%rbx), %eax
	leal	-1(%rax), %edx
	movl	%edx, 12(%rbx)
.L1818:
	cmpl	$1, %eax
	jne	.L1587
	movq	(%rbx), %rax
	movq	%rbx, %rdi
	call	*24(%rax)
	jmp	.L1587
	.p2align 4,,10
	.p2align 3
.L1961:
	movq	(%rbx), %rax
	movq	%rbx, %rdi
	call	*16(%rax)
	cmpb	$0, __libc_single_threaded(%rip)
	je	.L1810
	movl	12(%rbx), %eax
	leal	-1(%rax), %edx
	movl	%edx, 12(%rbx)
.L1811:
	cmpl	$1, %eax
	jne	.L1806
	movq	(%rbx), %rax
	movq	%rbx, %rdi
	call	*24(%rax)
	jmp	.L1806
	.p2align 4,,10
	.p2align 3
.L1960:
	movq	(%rbx), %rax
	movq	%rbx, %rdi
	call	*16(%rax)
	cmpb	$0, __libc_single_threaded(%rip)
	je	.L1803
	movl	12(%rbx), %eax
	leal	-1(%rax), %edx
	movl	%edx, 12(%rbx)
.L1804:
	cmpl	$1, %eax
	jne	.L1799
	movq	(%rbx), %rax
	movq	%rbx, %rdi
	call	*24(%rax)
	jmp	.L1799
	.p2align 4,,10
	.p2align 3
.L1959:
	movq	(%rbx), %rax
	movq	%rbx, %rdi
	call	*16(%rax)
	cmpb	$0, __libc_single_threaded(%rip)
	je	.L1796
	movl	12(%rbx), %eax
	leal	-1(%rax), %edx
	movl	%edx, 12(%rbx)
.L1797:
	cmpl	$1, %eax
	jne	.L1792
	movq	(%rbx), %rax
	movq	%rbx, %rdi
	call	*24(%rax)
	jmp	.L1792
	.p2align 4,,10
	.p2align 3
.L1946:
	movq	(%r12), %rax
	movq	%r12, %rdi
	call	*16(%rax)
	cmpb	$0, __libc_single_threaded(%rip)
	je	.L1746
	movl	12(%r12), %eax
	leal	-1(%rax), %edx
	movl	%edx, 12(%r12)
.L1747:
	cmpl	$1, %eax
	jne	.L1748
	movq	(%r12), %rax
	movq	%r12, %rdi
	call	*24(%rax)
	jmp	.L1748
	.p2align 4,,10
	.p2align 3
.L1958:
	movq	(%rbx), %rax
	movq	%rbx, %rdi
	call	*16(%rax)
	cmpb	$0, __libc_single_threaded(%rip)
	je	.L1789
	movl	12(%rbx), %eax
	leal	-1(%rax), %edx
	movl	%edx, 12(%rbx)
.L1790:
	cmpl	$1, %eax
	jne	.L1785
	movq	(%rbx), %rax
	movq	%rbx, %rdi
	call	*24(%rax)
	jmp	.L1785
	.p2align 4,,10
	.p2align 3
.L1944:
	movq	(%r12), %rax
	movq	%r12, %rdi
	call	*16(%rax)
	cmpb	$0, __libc_single_threaded(%rip)
	je	.L1739
	movl	12(%r12), %eax
	leal	-1(%rax), %edx
	movl	%edx, 12(%r12)
.L1740:
	cmpl	$1, %eax
	jne	.L1741
	movq	(%r12), %rax
	movq	%r12, %rdi
	call	*24(%rax)
	jmp	.L1741
	.p2align 4,,10
	.p2align 3
.L1952:
	movq	-440(%rbp), %rbx
	movq	(%rbx), %rax
	movq	%rbx, %rdi
	call	*16(%rax)
	cmpb	$0, __libc_single_threaded(%rip)
	je	.L1763
	movl	12(%rbx), %eax
	leal	-1(%rax), %edx
	movl	%edx, 12(%rbx)
.L1764:
	cmpl	$1, %eax
	jne	.L1765
	movq	-440(%rbp), %rdi
	movq	(%rdi), %rax
	call	*24(%rax)
	jmp	.L1765
	.p2align 4,,10
	.p2align 3
.L1956:
	movq	-568(%rbp), %rbx
	movq	(%rbx), %rax
	movq	%rbx, %rdi
	call	*16(%rax)
	cmpb	$0, __libc_single_threaded(%rip)
	je	.L1774
	movl	12(%rbx), %eax
	leal	-1(%rax), %edx
	movl	%edx, 12(%rbx)
.L1775:
	cmpl	$1, %eax
	jne	.L1773
	movq	-568(%rbp), %rdi
	movq	(%rdi), %rax
	call	*24(%rax)
	jmp	.L1773
	.p2align 4,,10
	.p2align 3
.L1948:
	movq	(%r12), %rax
	movq	%r12, %rdi
	call	*16(%rax)
	cmpb	$0, __libc_single_threaded(%rip)
	je	.L1753
	movl	12(%r12), %eax
	leal	-1(%rax), %edx
	movl	%edx, 12(%r12)
.L1754:
	cmpl	$1, %eax
	jne	.L1755
	movq	(%r12), %rax
	movq	%r12, %rdi
	call	*24(%rax)
	jmp	.L1755
	.p2align 4,,10
	.p2align 3
.L1957:
	movq	(%rbx), %rax
	movq	%rbx, %rdi
	call	*16(%rax)
	cmpb	$0, __libc_single_threaded(%rip)
	je	.L1782
	movl	12(%rbx), %eax
	leal	-1(%rax), %edx
	movl	%edx, 12(%rbx)
.L1783:
	cmpl	$1, %eax
	jne	.L1778
	movq	(%rbx), %rax
	movq	%rbx, %rdi
	call	*24(%rax)
	jmp	.L1778
	.p2align 4,,10
	.p2align 3
.L1950:
	movq	(%r14), %rax
	movq	%r14, %rdi
	call	*16(%rax)
	cmpb	$0, __libc_single_threaded(%rip)
	je	.L1758
	movl	12(%r14), %eax
	leal	-1(%rax), %edx
	movl	%edx, 12(%r14)
.L1759:
	cmpl	$1, %eax
	jne	.L1760
	movq	(%r14), %rax
	movq	%r14, %rdi
	call	*24(%rax)
	jmp	.L1760
	.p2align 4,,10
	.p2align 3
.L1954:
	movq	-464(%rbp), %rbx
	movq	(%rbx), %rax
	movq	%rbx, %rdi
	call	*16(%rax)
	cmpb	$0, __libc_single_threaded(%rip)
	je	.L1768
	movl	12(%rbx), %eax
	leal	-1(%rax), %edx
	movl	%edx, 12(%rbx)
.L1769:
	cmpl	$1, %eax
	jne	.L1770
	movq	-464(%rbp), %rdi
	movq	(%rdi), %rax
	call	*24(%rax)
	jmp	.L1770
	.p2align 4,,10
	.p2align 3
.L1814:
	movl	$-1, %eax
	lock xaddl	%eax, 8(%rbx)
	jmp	.L1815
	.p2align 4,,10
	.p2align 3
.L1807:
	movl	$-1, %eax
	lock xaddl	%eax, 8(%rbx)
	jmp	.L1808
	.p2align 4,,10
	.p2align 3
.L1800:
	movl	$-1, %eax
	lock xaddl	%eax, 8(%rbx)
	jmp	.L1801
	.p2align 4,,10
	.p2align 3
.L1705:
	movl	$-1, %eax
	lock xaddl	%eax, 8(%r12)
	jmp	.L1706
	.p2align 4,,10
	.p2align 3
.L1698:
	movl	$-1, %eax
	lock xaddl	%eax, 8(%r12)
	jmp	.L1699
	.p2align 4,,10
	.p2align 3
.L1737:
	movl	$-1, %eax
	lock xaddl	%eax, 8(%r12)
	jmp	.L1738
	.p2align 4,,10
	.p2align 3
.L1717:
	movl	$-1, %edx
	lock xaddl	%edx, 8(%r12)
	jmp	.L1718
	.p2align 4,,10
	.p2align 3
.L1724:
	movl	$-1, %eax
	lock xaddl	%eax, 8(%r12)
	jmp	.L1725
	.p2align 4,,10
	.p2align 3
.L1744:
	movl	$-1, %eax
	lock xaddl	%eax, 8(%r12)
	jmp	.L1745
	.p2align 4,,10
	.p2align 3
.L1751:
	movl	$-1, %eax
	lock xaddl	%eax, 8(%r12)
	jmp	.L1752
	.p2align 4,,10
	.p2align 3
.L1949:
	movq	-608(%rbp), %rbx
	movl	$-1, %eax
	lock xaddl	%eax, (%rbx)
	jmp	.L1756
	.p2align 4,,10
	.p2align 3
.L1953:
	movq	-592(%rbp), %rbx
	movl	$-1, %eax
	lock xaddl	%eax, (%rbx)
	jmp	.L1766
	.p2align 4,,10
	.p2align 3
.L1951:
	movq	-600(%rbp), %rbx
	movl	$-1, %eax
	lock xaddl	%eax, (%rbx)
	jmp	.L1761
	.p2align 4,,10
	.p2align 3
.L1793:
	movl	$-1, %eax
	lock xaddl	%eax, 8(%rbx)
	jmp	.L1794
	.p2align 4,,10
	.p2align 3
.L1786:
	movl	$-1, %eax
	lock xaddl	%eax, 8(%rbx)
	jmp	.L1787
	.p2align 4,,10
	.p2align 3
.L1779:
	movl	$-1, %eax
	lock xaddl	%eax, 8(%rbx)
	jmp	.L1780
	.p2align 4,,10
	.p2align 3
.L1955:
	movq	-576(%rbp), %rbx
	movl	$-1, %eax
	lock xaddl	%eax, (%rbx)
	jmp	.L1771
	.p2align 4,,10
	.p2align 3
.L1625:
	movl	$-1, %eax
	lock xaddl	%eax, 12(%r13)
	jmp	.L1626
	.p2align 4,,10
	.p2align 3
.L1618:
	movl	$-1, %eax
	lock xaddl	%eax, 12(%r13)
	jmp	.L1619
	.p2align 4,,10
	.p2align 3
.L1599:
	movl	$-1, %eax
	lock xaddl	%eax, 12(%r13)
	jmp	.L1600
	.p2align 4,,10
	.p2align 3
.L1606:
	movl	$-1, %eax
	lock xaddl	%eax, 12(%r13)
	jmp	.L1607
	.p2align 4,,10
	.p2align 3
.L1660:
	movl	$-1, %eax
	lock xaddl	%eax, 12(%r12)
	jmp	.L1661
	.p2align 4,,10
	.p2align 3
.L1653:
	movl	$-1, %eax
	lock xaddl	%eax, 12(%r12)
	jmp	.L1654
	.p2align 4,,10
	.p2align 3
.L1644:
	movl	$-1, %eax
	lock xaddl	%eax, 12(%r12)
	jmp	.L1645
	.p2align 4,,10
	.p2align 3
.L1637:
	movl	$-1, %eax
	lock xaddl	%eax, 12(%r12)
	jmp	.L1638
	.p2align 4,,10
	.p2align 3
.L1727:
	movl	$-1, %eax
	lock xaddl	%eax, 12(%r12)
	jmp	.L1728
	.p2align 4,,10
	.p2align 3
.L1753:
	movl	$-1, %eax
	lock xaddl	%eax, 12(%r12)
	jmp	.L1754
	.p2align 4,,10
	.p2align 3
.L1763:
	movq	-440(%rbp), %rbx
	movl	$-1, %eax
	lock xaddl	%eax, 12(%rbx)
	jmp	.L1764
	.p2align 4,,10
	.p2align 3
.L1758:
	movl	$-1, %eax
	lock xaddl	%eax, 12(%r14)
	jmp	.L1759
	.p2align 4,,10
	.p2align 3
.L1708:
	movl	$-1, %eax
	lock xaddl	%eax, 12(%r12)
	jmp	.L1709
	.p2align 4,,10
	.p2align 3
.L1720:
	movl	$-1, %edx
	lock xaddl	%edx, 12(%r12)
	jmp	.L1721
	.p2align 4,,10
	.p2align 3
.L1803:
	movl	$-1, %eax
	lock xaddl	%eax, 12(%rbx)
	jmp	.L1804
	.p2align 4,,10
	.p2align 3
.L1701:
	movl	$-1, %eax
	lock xaddl	%eax, 12(%r12)
	jmp	.L1702
	.p2align 4,,10
	.p2align 3
.L1789:
	movl	$-1, %eax
	lock xaddl	%eax, 12(%rbx)
	jmp	.L1790
	.p2align 4,,10
	.p2align 3
.L1796:
	movl	$-1, %eax
	lock xaddl	%eax, 12(%rbx)
	jmp	.L1797
	.p2align 4,,10
	.p2align 3
.L1774:
	movq	-568(%rbp), %rbx
	movl	$-1, %eax
	lock xaddl	%eax, 12(%rbx)
	jmp	.L1775
	.p2align 4,,10
	.p2align 3
.L1739:
	movl	$-1, %eax
	lock xaddl	%eax, 12(%r12)
	jmp	.L1740
	.p2align 4,,10
	.p2align 3
.L1782:
	movl	$-1, %eax
	lock xaddl	%eax, 12(%rbx)
	jmp	.L1783
	.p2align 4,,10
	.p2align 3
.L1746:
	movl	$-1, %eax
	lock xaddl	%eax, 12(%r12)
	jmp	.L1747
	.p2align 4,,10
	.p2align 3
.L1817:
	movl	$-1, %eax
	lock xaddl	%eax, 12(%rbx)
	jmp	.L1818
	.p2align 4,,10
	.p2align 3
.L1768:
	movq	-464(%rbp), %rbx
	movl	$-1, %eax
	lock xaddl	%eax, 12(%rbx)
	jmp	.L1769
	.p2align 4,,10
	.p2align 3
.L1810:
	movl	$-1, %eax
	lock xaddl	%eax, 12(%rbx)
	jmp	.L1811
.L1963:
	call	__stack_chk_fail@PLT
.L1858:
	endbr64
.L1930:
	movq	%rax, %rbx
	jmp	.L1832
.L1874:
	endbr64
	movq	%rax, %rdi
	jmp	.L1678
.L1856:
	endbr64
	jmp	.L1930
.L1872:
	endbr64
	movq	%rax, %rdi
.L1674:
	call	__cxa_begin_catch@PLT
	xorl	%edi, %edi
.LEHB121:
	call	SDL_DestroyTexture@PLT
	call	__cxa_rethrow@PLT
.LEHE121:
.L1832:
	movq	-200(%rbp), %rdi
	testq	%rdi, %rdi
	jne	.L1964
.L1829:
	movq	%r14, %rdi
	call	_ZNSt16_Sp_counted_baseILN9__gnu_cxx12_Lock_policyE2EE10_M_releaseEv
.L1734:
	movq	-440(%rbp), %rdi
	call	_ZNSt16_Sp_counted_baseILN9__gnu_cxx12_Lock_policyE2EE10_M_releaseEv
.L1695:
	movq	-464(%rbp), %rdi
	call	_ZNSt16_Sp_counted_baseILN9__gnu_cxx12_Lock_policyE2EE10_M_releaseEv
.L1631:
	movq	-568(%rbp), %rdi
	call	_ZNSt16_Sp_counted_baseILN9__gnu_cxx12_Lock_policyE2EE10_M_releaseEv
.L1593:
	movq	-584(%rbp), %rdi
	call	_ZN7TextureD1Ev
.L1826:
	movq	-528(%rbp), %rdi
	call	_ZN7TextureD1Ev
.L1823:
	movq	-472(%rbp), %rdi
	call	_ZN7TextureD1Ev
	movq	%rbx, %rdi
.LEHB122:
	call	_Unwind_Resume@PLT
.LEHE122:
.L1871:
	endbr64
	movq	%rax, %rbx
	jmp	.L1675
.L1857:
	endbr64
	jmp	.L1930
.L1678:
	call	__cxa_begin_catch@PLT
	xorl	%edi, %edi
.LEHB123:
	call	SDL_FreeSurface@PLT
	call	__cxa_rethrow@PLT
.LEHE123:
.L1964:
	call	_ZNSt16_Sp_counted_baseILN9__gnu_cxx12_Lock_policyE2EE10_M_releaseEv
	jmp	.L1829
.L1675:
	call	__cxa_end_catch@PLT
.L1676:
	movq	-544(%rbp), %rdi
	call	_ZN7TextureD1Ev
.L1668:
	movq	-440(%rbp), %rax
	leaq	16+_ZTV10Rigid_body(%rip), %rcx
	movq	-512(%rbp), %rdi
	movq	%rcx, 16(%rax)
	call	_ZN6EntityD2Ev
.L1694:
	movq	-440(%rbp), %rdi
	movl	$576, %esi
	call	_ZdlPvm@PLT
	jmp	.L1695
.L1873:
	endbr64
	movq	%rax, %rbx
	jmp	.L1679
.L1859:
	endbr64
	movq	%rax, %rbx
	jmp	.L1592
.L1868:
	endbr64
	movq	%rax, %rdi
	jmp	.L1666
.L1854:
	endbr64
	movq	%rax, %rbx
	jmp	.L1695
.L1847:
	endbr64
	movq	%rax, %r15
	jmp	.L1819
.L1852:
	endbr64
	movq	%rax, %rbx
	jmp	.L1593
.L1819:
	movq	-96(%rbp), %rdi
	cmpq	%rbx, %rdi
	je	.L1820
	movq	-80(%rbp), %rax
	leaq	1(%rax), %rsi
	call	_ZdlPvm@PLT
.L1820:
	movq	%r15, %rdi
.LEHB124:
	call	_Unwind_Resume@PLT
.LEHE124:
.L1876:
	endbr64
	movq	%rax, %rdi
	jmp	.L1682
.L1592:
	movq	-568(%rbp), %rdi
	movl	$304, %esi
	call	_ZdlPvm@PLT
	jmp	.L1593
.L1682:
	call	__cxa_begin_catch@PLT
	xorl	%edi, %edi
.LEHB125:
	call	SDL_DestroyTexture@PLT
	call	__cxa_rethrow@PLT
.LEHE125:
.L1875:
	endbr64
	movq	%rax, %rbx
	jmp	.L1683
.L1881:
	endbr64
	movq	%rax, %r12
	jmp	.L1712
.L1862:
	endbr64
	movq	%rax, %r14
	jmp	.L1610
.L1679:
	call	__cxa_end_catch@PLT
	movq	-440(%rbp), %rax
	movq	272(%rax), %rdi
	testq	%rdi, %rdi
	je	.L1676
	call	_ZNSt16_Sp_counted_baseILN9__gnu_cxx12_Lock_policyE2EE10_M_releaseEv
	jmp	.L1676
.L1666:
	call	__cxa_begin_catch@PLT
	xorl	%edi, %edi
.LEHB126:
	call	SDL_DestroyTexture@PLT
	call	__cxa_rethrow@PLT
.LEHE126:
.L1683:
	call	__cxa_end_catch@PLT
.L1684:
	movq	-560(%rbp), %rdi
	call	_ZN7TextureD1Ev
	jmp	.L1676
.L1712:
	movq	%r15, %rdi
	call	_ZN7TextureD1Ev
.L1713:
	movq	-96(%rbp), %rdi
	cmpq	%rbx, %rdi
	je	.L1731
	movq	-80(%rbp), %rax
	leaq	1(%rax), %rsi
	call	_ZdlPvm@PLT
.L1731:
	movq	-128(%rbp), %rdi
	cmpq	-448(%rbp), %rdi
	je	.L1732
	movq	-112(%rbp), %rax
	leaq	1(%rax), %rsi
	call	_ZdlPvm@PLT
.L1732:
	movq	-456(%rbp), %rdi
	movq	%r12, %rbx
	call	_ZN7TextureD1Ev
.L1733:
	movl	$216, %esi
	movq	%r14, %rdi
	call	_ZdlPvm@PLT
	jmp	.L1734
.L1610:
	movq	%r15, %rdi
	movq	%r14, %r15
	call	_ZN7TextureD1Ev
.L1611:
	movq	-96(%rbp), %rdi
	cmpq	%rbx, %rdi
	je	.L1628
	movq	-80(%rbp), %rax
	leaq	1(%rax), %rsi
	call	_ZdlPvm@PLT
.L1628:
	movq	-128(%rbp), %rdi
	cmpq	-448(%rbp), %rdi
	je	.L1629
	movq	-112(%rbp), %rax
	leaq	1(%rax), %rsi
	call	_ZdlPvm@PLT
.L1629:
	movq	-456(%rbp), %rdi
	movq	%r15, %rbx
	call	_ZN7TextureD1Ev
.L1630:
	movq	-464(%rbp), %rdi
	movl	$216, %esi
	call	_ZdlPvm@PLT
	jmp	.L1631
.L1867:
	endbr64
	movq	%rax, %rbx
.L1667:
	call	__cxa_end_catch@PLT
	jmp	.L1668
.L1870:
	endbr64
	movq	%rax, %rdi
	jmp	.L1670
.L1866:
	endbr64
	movq	%rax, %r12
	jmp	.L1648
.L1670:
	call	__cxa_begin_catch@PLT
	xorl	%edi, %edi
.LEHB127:
	call	SDL_FreeSurface@PLT
	call	__cxa_rethrow@PLT
.LEHE127:
.L1648:
	movq	%r15, %rdi
	call	_ZN7TextureD1Ev
.L1649:
	movq	-456(%rbp), %rdi
	call	_ZN7TextureD1Ev
.L1689:
	movq	-160(%rbp), %rdi
	cmpq	-544(%rbp), %rdi
	je	.L1691
	movq	-144(%rbp), %rax
	leaq	1(%rax), %rsi
	call	_ZdlPvm@PLT
.L1691:
	movq	-128(%rbp), %rdi
	cmpq	-448(%rbp), %rdi
	je	.L1692
	movq	-112(%rbp), %rax
	leaq	1(%rax), %rsi
	call	_ZdlPvm@PLT
.L1692:
	movq	-96(%rbp), %rdi
	cmpq	%rbx, %rdi
	je	.L1693
	movq	-80(%rbp), %rax
	leaq	1(%rax), %rsi
	call	_ZdlPvm@PLT
.L1693:
	movq	%r12, %rbx
	jmp	.L1694
.L1869:
	endbr64
	movq	%rax, %rbx
	jmp	.L1671
.L1878:
	endbr64
	movq	%rax, %rdi
	jmp	.L1686
.L1848:
	endbr64
	movq	%rax, %r15
	jmp	.L1821
.L1686:
	call	__cxa_begin_catch@PLT
	xorl	%edi, %edi
.LEHB128:
	call	SDL_FreeSurface@PLT
	call	__cxa_rethrow@PLT
.LEHE128:
.L1821:
	movq	-96(%rbp), %rdi
	cmpq	%rbx, %rdi
	je	.L1822
	movq	-80(%rbp), %rax
	leaq	1(%rax), %rsi
	call	_ZdlPvm@PLT
.L1822:
	movq	%r15, %rbx
	jmp	.L1823
.L1877:
	endbr64
	movq	%rax, %rbx
.L1687:
	call	__cxa_end_catch@PLT
	movq	-440(%rbp), %rax
	movq	312(%rax), %rdi
	testq	%rdi, %rdi
	je	.L1684
	call	_ZNSt16_Sp_counted_baseILN9__gnu_cxx12_Lock_policyE2EE10_M_releaseEv
	jmp	.L1684
.L1863:
	endbr64
	movq	%rax, %r12
	jmp	.L1691
.L1851:
	endbr64
	movq	%rax, %rbx
	jmp	.L1826
.L1861:
	endbr64
	movq	%rax, %r15
	jmp	.L1611
.L1860:
	endbr64
	movq	%rax, %rbx
	jmp	.L1630
.L1853:
	endbr64
	movq	%rax, %rbx
	jmp	.L1631
.L1849:
	endbr64
	movq	%rax, %rbx
	jmp	.L1823
.L1850:
	endbr64
	movq	%rax, %r15
.L1824:
	movq	-96(%rbp), %rdi
	cmpq	%rbx, %rdi
	je	.L1825
	movq	-80(%rbp), %rax
	leaq	1(%rax), %rsi
	call	_ZdlPvm@PLT
.L1825:
	movq	%r15, %rbx
	jmp	.L1826
.L1865:
	endbr64
	movq	%rax, %r12
	jmp	.L1649
.L1864:
	endbr64
	movq	%rax, %r12
	jmp	.L1689
.L1671:
	call	__cxa_end_catch@PLT
	movq	-440(%rbp), %rax
	movq	232(%rax), %rdi
	testq	%rdi, %rdi
	je	.L1668
	call	_ZNSt16_Sp_counted_baseILN9__gnu_cxx12_Lock_policyE2EE10_M_releaseEv
	jmp	.L1668
.L1879:
	endbr64
	movq	%rax, %rbx
	jmp	.L1733
.L1880:
	endbr64
	movq	%rax, %r12
	jmp	.L1713
.L1855:
	endbr64
	movq	%rax, %rbx
	jmp	.L1734
	.cfi_endproc
.LFE12129:
	.section	.gcc_except_table
	.align 4
.LLSDA12129:
	.byte	0xff
	.byte	0x9b
	.uleb128 .LLSDATT12129-.LLSDATTD12129
.LLSDATTD12129:
	.byte	0x1
	.uleb128 .LLSDACSE12129-.LLSDACSB12129
.LLSDACSB12129:
	.uleb128 .LEHB91-.LFB12129
	.uleb128 .LEHE91-.LEHB91
	.uleb128 0
	.uleb128 0
	.uleb128 .LEHB92-.LFB12129
	.uleb128 .LEHE92-.LEHB92
	.uleb128 .L1847-.LFB12129
	.uleb128 0
	.uleb128 .LEHB93-.LFB12129
	.uleb128 .LEHE93-.LEHB93
	.uleb128 .L1849-.LFB12129
	.uleb128 0
	.uleb128 .LEHB94-.LFB12129
	.uleb128 .LEHE94-.LEHB94
	.uleb128 .L1848-.LFB12129
	.uleb128 0
	.uleb128 .LEHB95-.LFB12129
	.uleb128 .LEHE95-.LEHB95
	.uleb128 .L1851-.LFB12129
	.uleb128 0
	.uleb128 .LEHB96-.LFB12129
	.uleb128 .LEHE96-.LEHB96
	.uleb128 .L1850-.LFB12129
	.uleb128 0
	.uleb128 .LEHB97-.LFB12129
	.uleb128 .LEHE97-.LEHB97
	.uleb128 .L1852-.LFB12129
	.uleb128 0
	.uleb128 .LEHB98-.LFB12129
	.uleb128 .LEHE98-.LEHB98
	.uleb128 .L1859-.LFB12129
	.uleb128 0
	.uleb128 .LEHB99-.LFB12129
	.uleb128 .LEHE99-.LEHB99
	.uleb128 .L1853-.LFB12129
	.uleb128 0
	.uleb128 .LEHB100-.LFB12129
	.uleb128 .LEHE100-.LEHB100
	.uleb128 .L1860-.LFB12129
	.uleb128 0
	.uleb128 .LEHB101-.LFB12129
	.uleb128 .LEHE101-.LEHB101
	.uleb128 .L1861-.LFB12129
	.uleb128 0
	.uleb128 .LEHB102-.LFB12129
	.uleb128 .LEHE102-.LEHB102
	.uleb128 .L1862-.LFB12129
	.uleb128 0
	.uleb128 .LEHB103-.LFB12129
	.uleb128 .LEHE103-.LEHB103
	.uleb128 .L1854-.LFB12129
	.uleb128 0
	.uleb128 .LEHB104-.LFB12129
	.uleb128 .LEHE104-.LEHB104
	.uleb128 .L1863-.LFB12129
	.uleb128 0
	.uleb128 .LEHB105-.LFB12129
	.uleb128 .LEHE105-.LEHB105
	.uleb128 .L1864-.LFB12129
	.uleb128 0
	.uleb128 .LEHB106-.LFB12129
	.uleb128 .LEHE106-.LEHB106
	.uleb128 .L1865-.LFB12129
	.uleb128 0
	.uleb128 .LEHB107-.LFB12129
	.uleb128 .LEHE107-.LEHB107
	.uleb128 .L1866-.LFB12129
	.uleb128 0
	.uleb128 .LEHB108-.LFB12129
	.uleb128 .LEHE108-.LEHB108
	.uleb128 .L1868-.LFB12129
	.uleb128 0x1
	.uleb128 .LEHB109-.LFB12129
	.uleb128 .LEHE109-.LEHB109
	.uleb128 .L1870-.LFB12129
	.uleb128 0x1
	.uleb128 .LEHB110-.LFB12129
	.uleb128 .LEHE110-.LEHB110
	.uleb128 .L1872-.LFB12129
	.uleb128 0x1
	.uleb128 .LEHB111-.LFB12129
	.uleb128 .LEHE111-.LEHB111
	.uleb128 .L1874-.LFB12129
	.uleb128 0x1
	.uleb128 .LEHB112-.LFB12129
	.uleb128 .LEHE112-.LEHB112
	.uleb128 .L1876-.LFB12129
	.uleb128 0x1
	.uleb128 .LEHB113-.LFB12129
	.uleb128 .LEHE113-.LEHB113
	.uleb128 .L1878-.LFB12129
	.uleb128 0x1
	.uleb128 .LEHB114-.LFB12129
	.uleb128 .LEHE114-.LEHB114
	.uleb128 .L1855-.LFB12129
	.uleb128 0
	.uleb128 .LEHB115-.LFB12129
	.uleb128 .LEHE115-.LEHB115
	.uleb128 .L1879-.LFB12129
	.uleb128 0
	.uleb128 .LEHB116-.LFB12129
	.uleb128 .LEHE116-.LEHB116
	.uleb128 .L1880-.LFB12129
	.uleb128 0
	.uleb128 .LEHB117-.LFB12129
	.uleb128 .LEHE117-.LEHB117
	.uleb128 .L1881-.LFB12129
	.uleb128 0
	.uleb128 .LEHB118-.LFB12129
	.uleb128 .LEHE118-.LEHB118
	.uleb128 .L1856-.LFB12129
	.uleb128 0
	.uleb128 .LEHB119-.LFB12129
	.uleb128 .LEHE119-.LEHB119
	.uleb128 .L1857-.LFB12129
	.uleb128 0
	.uleb128 .LEHB120-.LFB12129
	.uleb128 .LEHE120-.LEHB120
	.uleb128 .L1858-.LFB12129
	.uleb128 0
	.uleb128 .LEHB121-.LFB12129
	.uleb128 .LEHE121-.LEHB121
	.uleb128 .L1871-.LFB12129
	.uleb128 0
	.uleb128 .LEHB122-.LFB12129
	.uleb128 .LEHE122-.LEHB122
	.uleb128 0
	.uleb128 0
	.uleb128 .LEHB123-.LFB12129
	.uleb128 .LEHE123-.LEHB123
	.uleb128 .L1873-.LFB12129
	.uleb128 0
	.uleb128 .LEHB124-.LFB12129
	.uleb128 .LEHE124-.LEHB124
	.uleb128 0
	.uleb128 0
	.uleb128 .LEHB125-.LFB12129
	.uleb128 .LEHE125-.LEHB125
	.uleb128 .L1875-.LFB12129
	.uleb128 0
	.uleb128 .LEHB126-.LFB12129
	.uleb128 .LEHE126-.LEHB126
	.uleb128 .L1867-.LFB12129
	.uleb128 0
	.uleb128 .LEHB127-.LFB12129
	.uleb128 .LEHE127-.LEHB127
	.uleb128 .L1869-.LFB12129
	.uleb128 0
	.uleb128 .LEHB128-.LFB12129
	.uleb128 .LEHE128-.LEHB128
	.uleb128 .L1877-.LFB12129
	.uleb128 0
.LLSDACSE12129:
	.byte	0x1
	.byte	0
	.align 4
	.long	0

.LLSDATT12129:
	.section	.text._ZN16Geralt_eats_game15on_game_startupER6Engine,"axG",@progbits,_ZN16Geralt_eats_game15on_game_startupER6Engine,comdat
	.size	_ZN16Geralt_eats_game15on_game_startupER6Engine, .-_ZN16Geralt_eats_game15on_game_startupER6Engine
	.section	.text._ZN6Geralt15update_positionER6Engine,"axG",@progbits,_ZN6Geralt15update_positionER6Engine,comdat
	.align 2
	.p2align 4
	.weak	_ZN6Geralt15update_positionER6Engine
	.type	_ZN6Geralt15update_positionER6Engine, @function
_ZN6Geralt15update_positionER6Engine:
.LFB12045:
	.cfi_startproc
	.cfi_personality 0x9b,DW.ref.__gxx_personality_v0
	.cfi_lsda 0x1b,.LLSDA12045
	endbr64
	pushq	%rbp
	.cfi_def_cfa_offset 16
	.cfi_offset 6, -16
	movq	%rsp, %rbp
	.cfi_def_cfa_register 6
	pushq	%r14
	.cfi_offset 14, -24
	movq	%rsi, %r14
	pushq	%r13
	pushq	%r12
	pushq	%rbx
	.cfi_offset 13, -32
	.cfi_offset 12, -40
	.cfi_offset 3, -48
	movq	%rdi, %rbx
	subq	$160, %rsp
	movss	144(%rdi), %xmm5
	movss	148(%rdi), %xmm4
	movq	%rsi, %rdi
	movq	%fs:40, %rax
	movq	%rax, -40(%rbp)
	xorl	%eax, %eax
	movss	%xmm5, -184(%rbp)
	movss	%xmm4, -188(%rbp)
.LEHB129:
	call	_ZNK6Engine16is_up_arrow_downEv@PLT
	testb	%al, %al
	je	.L1966
	cmpb	$0, 200(%rbx)
	jne	.L2078
.L1966:
	movq	%r14, %rdi
	call	_ZNK6Engine18is_down_arrow_downEv@PLT
	testb	%al, %al
	je	.L1970
	movss	-188(%rbp), %xmm3
	addss	.LC6(%rip), %xmm3
	movss	%xmm3, -188(%rbp)
.L1970:
	movq	%r14, %rdi
	leaq	-128(%rbp), %r12
	call	_ZNK6Engine18is_left_arrow_downEv@PLT
	testb	%al, %al
	jne	.L2079
	movq	%r14, %rdi
	call	_ZNK6Engine19is_right_arrow_downEv@PLT
	testb	%al, %al
	jne	.L2080
.L1987:
	movq	%r14, %rdi
	call	_ZNK6Engine19is_right_arrow_downEv@PLT
	pxor	%xmm5, %xmm5
	movss	%xmm5, -192(%rbp)
	testb	%al, %al
	jne	.L2081
.L2003:
	movq	%r14, %rdi
	call	_ZNK6Engine19is_right_arrow_downEv@PLT
	testb	%al, %al
	je	.L2082
.L2004:
	movss	-184(%rbp), %xmm7
	movss	-188(%rbp), %xmm6
	movss	156(%rbx), %xmm2
	comiss	-192(%rbp), %xmm2
	movaps	%xmm7, %xmm0
	unpcklps	%xmm6, %xmm0
	movlps	%xmm0, 144(%rbx)
	jbe	.L2005
	movaps	%xmm6, %xmm1
	movaps	%xmm7, %xmm0
	mulss	%xmm6, %xmm1
	mulss	%xmm7, %xmm0
	addss	%xmm1, %xmm0
	comiss	152(%rbx), %xmm0
	ja	.L2083
.L2005:
	movq	%r14, %rdi
	call	_ZN6Engine14get_delta_timeEv@PLT
	cmpb	$0, 192(%rbx)
	movss	144(%rbx), %xmm1
	movapd	%xmm0, %xmm3
	jne	.L2008
	movss	148(%rbx), %xmm0
.L2009:
	cvtss2sd	%xmm1, %xmm1
	mulsd	%xmm3, %xmm1
	cvtss2sd	%xmm0, %xmm0
	pxor	%xmm2, %xmm2
	mulsd	%xmm3, %xmm0
	cvtss2sd	60(%rbx), %xmm2
	movq	%r12, %rdx
	movq	160(%rbx), %rax
	leaq	-160(%rbp), %rdi
	movq	%rbx, %rsi
	leaq	-64(%rbp), %r13
	movq	%rax, -128(%rbp)
	addsd	%xmm1, %xmm2
	pxor	%xmm1, %xmm1
	cvtss2sd	64(%rbx), %xmm1
	addsd	%xmm0, %xmm1
	cvtsd2ss	%xmm2, %xmm2
	movss	%xmm2, 60(%rbx)
	cvtsd2ss	%xmm1, %xmm1
	movss	%xmm1, 64(%rbx)
	call	_ZNK6Entity14local_to_worldE6Point2IfE@PLT
.LEHE129:
	movaps	.LC12(%rip), %xmm0
	movl	$31076, %ecx
	movq	%rbx, %rdi
	movq	-160(%rbp), %rax
	movb	$0, -88(%rbp)
	movups	%xmm0, -120(%rbp)
	movaps	.LC13(%rip), %xmm0
	movq	%rax, -128(%rbp)
	movabsq	$8026082370797398354, %rax
	movups	%xmm0, -104(%rbp)
	pxor	%xmm0, %xmm0
	movq	%r13, -80(%rbp)
	movq	%rax, -64(%rbp)
	movw	%cx, -56(%rbp)
	movq	$10, -72(%rbp)
	movb	$0, -54(%rbp)
	movaps	%xmm0, -144(%rbp)
.LEHB130:
	call	_ZNK6Entity13get_entity_idEv@PLT
	movl	%eax, %edx
	subq	$8, %rsp
	leaq	-144(%rbp), %rax
	movq	%r12, %rsi
	pushq	%rax
	leaq	-80(%rbp), %rcx
	leaq	-164(%rbp), %r9
	movq	%r14, %rdi
	leaq	-168(%rbp), %r8
	.cfi_escape 0x2e,0x10
	call	_ZN6Engine12intesect_rayER3RayiRKNSt7__cxx1112basic_stringIcSt11char_traitsIcESaIcEEERfSA_RSt10shared_ptrI6EntityE@PLT
.LEHE130:
	movq	-80(%rbp), %rdi
	movl	%eax, %r14d
	popq	%rax
	popq	%rdx
	cmpq	%r13, %rdi
	je	.L2013
	movq	-64(%rbp), %rax
	leaq	1(%rax), %rsi
	call	_ZdlPvm@PLT
.L2013:
	movl	-164(%rbp), %r12d
	testb	%r14b, %r14b
	jne	.L2084
.L2032:
	movq	-136(%rbp), %r12
	xorl	%r14d, %r14d
	movl	$1, %eax
	testq	%r12, %r12
	je	.L2019
	cmpb	$0, __libc_single_threaded(%rip)
	je	.L2020
.L2088:
	movl	8(%r12), %eax
	leal	-1(%rax), %edx
	movl	%edx, 8(%r12)
	cmpl	$1, %eax
	je	.L2085
.L2023:
	testb	%r14b, %r14b
	sete	%al
.L2019:
	movb	%r14b, 200(%rbx)
	movb	%al, 192(%rbx)
	movq	-40(%rbp), %rax
	subq	%fs:40, %rax
	jne	.L2086
	leaq	-32(%rbp), %rsp
	popq	%rbx
	popq	%r12
	popq	%r13
	popq	%r14
	popq	%rbp
	.cfi_remember_state
	.cfi_def_cfa 7, 8
	ret
	.p2align 4,,10
	.p2align 3
.L2079:
	.cfi_restore_state
	leaq	208(%rbx), %rsi
	movq	%r12, %rdi
.LEHB131:
	call	_ZN7TextureC1ERKS_@PLT
.LEHE131:
	movq	%r12, %rsi
	movq	%rbx, %rdi
.LEHB132:
	.cfi_escape 0x2e,0
	call	_ZN6Entity18set_active_textureE7Texture@PLT
.LEHE132:
	movq	-104(%rbp), %r13
	testq	%r13, %r13
	je	.L1973
	cmpb	$0, __libc_single_threaded(%rip)
	je	.L1974
	movl	8(%r13), %eax
	leal	-1(%rax), %edx
	movl	%edx, 8(%r13)
.L1975:
	cmpl	$1, %eax
	jne	.L1973
	movq	0(%r13), %rax
	movq	%r13, %rdi
	call	*16(%rax)
	cmpb	$0, __libc_single_threaded(%rip)
	je	.L1977
	movl	12(%r13), %eax
	leal	-1(%rax), %edx
	movl	%edx, 12(%r13)
.L1978:
	cmpl	$1, %eax
	jne	.L1973
	movq	0(%r13), %rax
	movq	%r13, %rdi
	call	*24(%rax)
	.p2align 4,,10
	.p2align 3
.L1973:
	movq	-120(%rbp), %r13
	testq	%r13, %r13
	je	.L1980
	cmpb	$0, __libc_single_threaded(%rip)
	je	.L1981
	movl	8(%r13), %eax
	leal	-1(%rax), %edx
	movl	%edx, 8(%r13)
.L1982:
	cmpl	$1, %eax
	jne	.L1980
	movq	0(%r13), %rax
	movq	%r13, %rdi
	call	*16(%rax)
	cmpb	$0, __libc_single_threaded(%rip)
	je	.L1984
	movl	12(%r13), %eax
	leal	-1(%rax), %edx
	movl	%edx, 12(%r13)
.L1985:
	cmpl	$1, %eax
	jne	.L1980
	movq	0(%r13), %rax
	movq	%r13, %rdi
	call	*24(%rax)
	.p2align 4,,10
	.p2align 3
.L1980:
	movss	.LC75(%rip), %xmm3
	movq	%r14, %rdi
	movss	%xmm3, -184(%rbp)
.LEHB133:
	call	_ZNK6Engine19is_right_arrow_downEv@PLT
	testb	%al, %al
	je	.L1987
.L2080:
	leaq	248(%rbx), %rsi
	movq	%r12, %rdi
	call	_ZN7TextureC1ERKS_@PLT
.LEHE133:
	movq	%r12, %rsi
	movq	%rbx, %rdi
.LEHB134:
	call	_ZN6Entity18set_active_textureE7Texture@PLT
.LEHE134:
	movq	-104(%rbp), %r13
	testq	%r13, %r13
	je	.L1989
	cmpb	$0, __libc_single_threaded(%rip)
	je	.L1990
	movl	8(%r13), %eax
	leal	-1(%rax), %edx
	movl	%edx, 8(%r13)
.L1991:
	cmpl	$1, %eax
	jne	.L1989
	movq	0(%r13), %rax
	movq	%r13, %rdi
	call	*16(%rax)
	cmpb	$0, __libc_single_threaded(%rip)
	je	.L1993
	movl	12(%r13), %eax
	leal	-1(%rax), %edx
	movl	%edx, 12(%r13)
.L1994:
	cmpl	$1, %eax
	jne	.L1989
	movq	0(%r13), %rax
	movq	%r13, %rdi
	call	*24(%rax)
	.p2align 4,,10
	.p2align 3
.L1989:
	movq	-120(%rbp), %r13
	testq	%r13, %r13
	je	.L1996
	cmpb	$0, __libc_single_threaded(%rip)
	je	.L1997
	movl	8(%r13), %eax
	leal	-1(%rax), %edx
	movl	%edx, 8(%r13)
.L1998:
	cmpl	$1, %eax
	jne	.L1996
	movq	0(%r13), %rax
	movq	%r13, %rdi
	call	*16(%rax)
	cmpb	$0, __libc_single_threaded(%rip)
	je	.L2000
	movl	12(%r13), %eax
	leal	-1(%rax), %edx
	movl	%edx, 12(%r13)
.L2001:
	cmpl	$1, %eax
	jne	.L1996
	movq	0(%r13), %rax
	movq	%r13, %rdi
	call	*24(%rax)
	.p2align 4,,10
	.p2align 3
.L1996:
	movss	.LC76(%rip), %xmm7
	movss	%xmm7, -184(%rbp)
	jmp	.L1987
	.p2align 4,,10
	.p2align 3
.L2008:
	cvtsd2ss	%xmm0, %xmm0
	mulss	196(%rbx), %xmm0
	movss	156(%rbx), %xmm4
	addss	148(%rbx), %xmm0
	comiss	-192(%rbp), %xmm4
	movss	%xmm0, 148(%rbx)
	jbe	.L2009
	movaps	%xmm0, %xmm5
	movaps	%xmm1, %xmm2
	mulss	%xmm0, %xmm5
	mulss	%xmm1, %xmm2
	addss	%xmm5, %xmm2
	comiss	152(%rbx), %xmm2
	jbe	.L2009
	mulss	%xmm4, %xmm0
	movaps	%xmm2, %xmm5
	mulss	%xmm1, %xmm4
	rsqrtss	%xmm5, %xmm5
	mulss	%xmm5, %xmm2
	mulss	%xmm5, %xmm2
	mulss	.LC5(%rip), %xmm5
	addss	.LC4(%rip), %xmm2
	mulss	%xmm5, %xmm2
	mulss	%xmm2, %xmm4
	mulss	%xmm2, %xmm0
	movaps	%xmm4, %xmm1
	movss	%xmm4, 144(%rbx)
	movss	%xmm0, 148(%rbx)
	jmp	.L2009
	.p2align 4,,10
	.p2align 3
.L2082:
	movq	%r14, %rdi
.LEHB135:
	call	_ZNK6Engine18is_left_arrow_downEv@PLT
	testb	%al, %al
	jne	.L2004
	movss	-192(%rbp), %xmm3
	movss	%xmm3, -184(%rbp)
	jmp	.L2004
	.p2align 4,,10
	.p2align 3
.L2081:
	movq	%r14, %rdi
	call	_ZNK6Engine18is_left_arrow_downEv@PLT
.LEHE135:
	testb	%al, %al
	je	.L2003
	movss	-192(%rbp), %xmm7
	movss	%xmm7, -184(%rbp)
	jmp	.L2003
	.p2align 4,,10
	.p2align 3
.L2084:
	movq	-160(%rbp), %rax
	movq	-144(%rbp), %rdi
	leaq	-152(%rbp), %rsi
	movq	%rax, -152(%rbp)
.LEHB136:
	call	_ZNK6Entity8containsE6Point2IfE@PLT
	testb	%al, %al
	je	.L2015
	pxor	%xmm4, %xmm4
	movsd	%xmm4, -184(%rbp)
.L2033:
	leaq	_ZSt4cout(%rip), %r12
	movl	$18, %edx
	leaq	.LC14(%rip), %rsi
	movq	%r12, %rdi
	call	_ZSt16__ostream_insertIcSt11char_traitsIcEERSt13basic_ostreamIT_T0_ES6_PKS3_l@PLT
	movsd	-184(%rbp), %xmm0
	movq	%r12, %rdi
	call	_ZNSo9_M_insertIdEERSoT_@PLT
	movl	$7, %edx
	leaq	.LC15(%rip), %rsi
	movq	%rax, %rdi
	movq	%rax, %r12
	call	_ZSt16__ostream_insertIcSt11char_traitsIcEERSt13basic_ostreamIT_T0_ES6_PKS3_l@PLT
	pxor	%xmm0, %xmm0
	movq	%r12, %rdi
	cvtss2sd	-164(%rbp), %xmm0
	call	_ZNSo9_M_insertIdEERSoT_@PLT
	movq	%rax, %r12
	movq	(%rax), %rax
	movq	-24(%rax), %rax
	movq	240(%r12,%rax), %r13
	testq	%r13, %r13
	je	.L2087
	cmpb	$0, 56(%r13)
	je	.L2017
	movsbl	67(%r13), %esi
.L2018:
	movq	%r12, %rdi
	call	_ZNSo3putEc@PLT
	movq	%rax, %rdi
	call	_ZNSo5flushEv@PLT
	movq	-136(%rbp), %r12
	xorl	%eax, %eax
	testq	%r12, %r12
	je	.L2019
	cmpb	$0, __libc_single_threaded(%rip)
	jne	.L2088
	jmp	.L2020
	.p2align 4,,10
	.p2align 3
.L2015:
	movsd	.LC23(%rip), %xmm0
	movd	%r12d, %xmm4
	pxor	%xmm5, %xmm5
	cvtss2sd	%xmm4, %xmm5
	movsd	%xmm5, -184(%rbp)
	comisd	%xmm5, %xmm0
	jbe	.L2032
	jmp	.L2033
	.p2align 4,,10
	.p2align 3
.L2083:
	movaps	%xmm0, %xmm1
	rsqrtss	%xmm1, %xmm1
	mulss	%xmm1, %xmm0
	mulss	%xmm1, %xmm0
	mulss	.LC5(%rip), %xmm1
	addss	.LC4(%rip), %xmm0
	mulss	%xmm1, %xmm0
	movaps	%xmm7, %xmm1
	mulss	%xmm2, %xmm1
	mulss	%xmm0, %xmm1
	movss	%xmm1, 144(%rbx)
	movaps	%xmm6, %xmm1
	mulss	%xmm2, %xmm1
	mulss	%xmm0, %xmm1
	movss	%xmm1, 148(%rbx)
	jmp	.L2005
	.p2align 4,,10
	.p2align 3
.L2020:
	movl	$-1, %eax
	lock xaddl	%eax, 8(%r12)
	cmpl	$1, %eax
	jne	.L2023
.L2085:
	movq	(%r12), %rax
	movq	%r12, %rdi
	call	*16(%rax)
	cmpb	$0, __libc_single_threaded(%rip)
	je	.L2024
	movl	12(%r12), %eax
	leal	-1(%rax), %edx
	movl	%edx, 12(%r12)
.L2025:
	cmpl	$1, %eax
	jne	.L2023
	movq	(%r12), %rax
	movq	%r12, %rdi
	call	*24(%rax)
	jmp	.L2023
	.p2align 4,,10
	.p2align 3
.L2078:
	movss	156(%rbx), %xmm1
	pxor	%xmm3, %xmm3
	movss	-184(%rbp), %xmm4
	movss	.LC21(%rip), %xmm2
	comiss	%xmm3, %xmm1
	movss	%xmm4, 144(%rbx)
	movss	%xmm2, 148(%rbx)
	jbe	.L1967
	movaps	%xmm4, %xmm0
	mulss	%xmm4, %xmm0
	addss	.LC6(%rip), %xmm0
	comiss	152(%rbx), %xmm0
	ja	.L2089
.L1967:
	movb	$0, 200(%rbx)
	movss	%xmm2, -188(%rbp)
	jmp	.L1966
	.p2align 4,,10
	.p2align 3
.L2017:
	movq	%r13, %rdi
	call	_ZNKSt5ctypeIcE13_M_widen_initEv@PLT
	movq	0(%r13), %rax
	leaq	_ZNKSt5ctypeIcE8do_widenEc(%rip), %rdx
	movl	$10, %esi
	movq	48(%rax), %rax
	cmpq	%rdx, %rax
	je	.L2018
	movq	%r13, %rdi
	call	*%rax
	movsbl	%al, %esi
	jmp	.L2018
	.p2align 4,,10
	.p2align 3
.L1974:
	movl	$-1, %eax
	lock xaddl	%eax, 8(%r13)
	jmp	.L1975
	.p2align 4,,10
	.p2align 3
.L1997:
	movl	$-1, %eax
	lock xaddl	%eax, 8(%r13)
	jmp	.L1998
	.p2align 4,,10
	.p2align 3
.L1981:
	movl	$-1, %eax
	lock xaddl	%eax, 8(%r13)
	jmp	.L1982
	.p2align 4,,10
	.p2align 3
.L1990:
	movl	$-1, %eax
	lock xaddl	%eax, 8(%r13)
	jmp	.L1991
	.p2align 4,,10
	.p2align 3
.L2024:
	movl	$-1, %eax
	lock xaddl	%eax, 12(%r12)
	jmp	.L2025
	.p2align 4,,10
	.p2align 3
.L1993:
	movl	$-1, %eax
	lock xaddl	%eax, 12(%r13)
	jmp	.L1994
	.p2align 4,,10
	.p2align 3
.L1977:
	movl	$-1, %eax
	lock xaddl	%eax, 12(%r13)
	jmp	.L1978
	.p2align 4,,10
	.p2align 3
.L2000:
	movl	$-1, %eax
	lock xaddl	%eax, 12(%r13)
	jmp	.L2001
	.p2align 4,,10
	.p2align 3
.L1984:
	movl	$-1, %eax
	lock xaddl	%eax, 12(%r13)
	jmp	.L1985
	.p2align 4,,10
	.p2align 3
.L2089:
	movaps	%xmm0, %xmm3
	rsqrtss	%xmm3, %xmm3
	mulss	%xmm3, %xmm0
	mulss	%xmm3, %xmm0
	mulss	.LC5(%rip), %xmm3
	addss	.LC4(%rip), %xmm0
	mulss	%xmm3, %xmm0
	movaps	%xmm4, %xmm3
	mulss	%xmm1, %xmm3
	mulss	%xmm0, %xmm1
	mulss	%xmm0, %xmm3
	xorps	.LC22(%rip), %xmm1
	unpcklps	%xmm1, %xmm3
	movlps	%xmm3, 144(%rbx)
	jmp	.L1967
.L2086:
	call	__stack_chk_fail@PLT
.L2087:
	call	_ZSt16__throw_bad_castv@PLT
.LEHE136:
.L2040:
	endbr64
	movq	%rax, %rbx
	jmp	.L2029
.L2041:
	endbr64
	movq	%rax, %rbx
.L2027:
	movq	-80(%rbp), %rdi
	cmpq	%r13, %rdi
	je	.L2029
	movq	-64(%rbp), %rax
	leaq	1(%rax), %rsi
	call	_ZdlPvm@PLT
.L2029:
	movq	-136(%rbp), %rdi
	testq	%rdi, %rdi
	je	.L2030
	call	_ZNSt16_Sp_counted_baseILN9__gnu_cxx12_Lock_policyE2EE10_M_releaseEv
.L2030:
	movq	%rbx, %rdi
.LEHB137:
	call	_Unwind_Resume@PLT
.L2043:
	endbr64
.L2077:
	movq	%rax, %rbx
	jmp	.L2002
.L2042:
	endbr64
	jmp	.L2077
.L2002:
	movq	%r12, %rdi
	call	_ZN7TextureD1Ev
	movq	%rbx, %rdi
	call	_Unwind_Resume@PLT
.LEHE137:
	.cfi_endproc
.LFE12045:
	.section	.gcc_except_table
.LLSDA12045:
	.byte	0xff
	.byte	0xff
	.byte	0x1
	.uleb128 .LLSDACSE12045-.LLSDACSB12045
.LLSDACSB12045:
	.uleb128 .LEHB129-.LFB12045
	.uleb128 .LEHE129-.LEHB129
	.uleb128 0
	.uleb128 0
	.uleb128 .LEHB130-.LFB12045
	.uleb128 .LEHE130-.LEHB130
	.uleb128 .L2041-.LFB12045
	.uleb128 0
	.uleb128 .LEHB131-.LFB12045
	.uleb128 .LEHE131-.LEHB131
	.uleb128 0
	.uleb128 0
	.uleb128 .LEHB132-.LFB12045
	.uleb128 .LEHE132-.LEHB132
	.uleb128 .L2042-.LFB12045
	.uleb128 0
	.uleb128 .LEHB133-.LFB12045
	.uleb128 .LEHE133-.LEHB133
	.uleb128 0
	.uleb128 0
	.uleb128 .LEHB134-.LFB12045
	.uleb128 .LEHE134-.LEHB134
	.uleb128 .L2043-.LFB12045
	.uleb128 0
	.uleb128 .LEHB135-.LFB12045
	.uleb128 .LEHE135-.LEHB135
	.uleb128 0
	.uleb128 0
	.uleb128 .LEHB136-.LFB12045
	.uleb128 .LEHE136-.LEHB136
	.uleb128 .L2040-.LFB12045
	.uleb128 0
	.uleb128 .LEHB137-.LFB12045
	.uleb128 .LEHE137-.LEHB137
	.uleb128 0
	.uleb128 0
.LLSDACSE12045:
	.section	.text._ZN6Geralt15update_positionER6Engine,"axG",@progbits,_ZN6Geralt15update_positionER6Engine,comdat
	.size	_ZN6Geralt15update_positionER6Engine, .-_ZN6Geralt15update_positionER6Engine
	.section	.rodata._ZNSt7__cxx1112basic_stringIcSt11char_traitsIcESaIcEE9_M_mutateEmmPKcm.str1.1,"aMS",@progbits,1
.LC77:
	.string	"basic_string::_M_create"
	.section	.text._ZNSt7__cxx1112basic_stringIcSt11char_traitsIcESaIcEE9_M_mutateEmmPKcm,"axG",@progbits,_ZNSt7__cxx1112basic_stringIcSt11char_traitsIcESaIcEE9_M_mutateEmmPKcm,comdat
	.align 2
	.p2align 4
	.weak	_ZNSt7__cxx1112basic_stringIcSt11char_traitsIcESaIcEE9_M_mutateEmmPKcm
	.type	_ZNSt7__cxx1112basic_stringIcSt11char_traitsIcESaIcEE9_M_mutateEmmPKcm, @function
_ZNSt7__cxx1112basic_stringIcSt11char_traitsIcESaIcEE9_M_mutateEmmPKcm:
.LFB13070:
	.cfi_startproc
	endbr64
	pushq	%r15
	.cfi_def_cfa_offset 16
	.cfi_offset 15, -16
	pushq	%r14
	.cfi_def_cfa_offset 24
	.cfi_offset 14, -24
	movq	%r8, %r14
	pushq	%r13
	.cfi_def_cfa_offset 32
	.cfi_offset 13, -32
	pushq	%r12
	.cfi_def_cfa_offset 40
	.cfi_offset 12, -40
	movq	%rsi, %r12
	addq	%rdx, %rsi
	pushq	%rbp
	.cfi_def_cfa_offset 48
	.cfi_offset 6, -48
	movq	%r8, %rbp
	pushq	%rbx
	.cfi_def_cfa_offset 56
	.cfi_offset 3, -56
	movq	%rdi, %rbx
	subq	%rdx, %rbp
	leaq	16(%rbx), %r13
	subq	$40, %rsp
	.cfi_def_cfa_offset 96
	movq	8(%rdi), %rax
	movq	%rsi, 24(%rsp)
	movq	%rax, %rdi
	addq	%rax, %rbp
	subq	%rsi, %rdi
	movq	%rdi, 8(%rsp)
	cmpq	(%rbx), %r13
	je	.L2103
	movq	16(%rbx), %rax
.L2091:
	testq	%rbp, %rbp
	js	.L2117
	cmpq	%rax, %rbp
	jbe	.L2093
	addq	%rax, %rax
	cmpq	%rax, %rbp
	jnb	.L2093
	testq	%rax, %rax
	js	.L2094
	movq	%rax, %rbp
	.p2align 4,,10
	.p2align 3
.L2093:
	movq	%rbp, %rdi
	addq	$1, %rdi
	js	.L2094
	movq	%rcx, 16(%rsp)
	call	_Znwm@PLT
	testq	%r12, %r12
	movq	16(%rsp), %rcx
	movq	%rax, %r15
	je	.L2096
	movq	(%rbx), %rsi
	cmpq	$1, %r12
	je	.L2118
	movq	%r12, %rdx
	movq	%rax, %rdi
	movq	%rcx, 16(%rsp)
	call	memcpy@PLT
	movq	16(%rsp), %rcx
.L2096:
	testq	%rcx, %rcx
	je	.L2098
	testq	%r14, %r14
	je	.L2098
	leaq	(%r15,%r12), %rdi
	cmpq	$1, %r14
	je	.L2119
	movq	%r14, %rdx
	movq	%rcx, %rsi
	call	memcpy@PLT
.L2098:
	movq	8(%rsp), %rax
	movq	(%rbx), %r9
	testq	%rax, %rax
	je	.L2100
.L2121:
	movq	24(%rsp), %rsi
	leaq	(%r12,%r14), %r8
	leaq	(%r15,%r8), %rdi
	addq	%r9, %rsi
	cmpq	$1, %rax
	je	.L2120
	movq	%rax, %rdx
	movq	%r9, 16(%rsp)
	call	memcpy@PLT
	movq	16(%rsp), %r9
.L2100:
	cmpq	%r9, %r13
	je	.L2102
.L2122:
	movq	16(%rbx), %rax
	movq	%r9, %rdi
	leaq	1(%rax), %rsi
	call	_ZdlPvm@PLT
.L2102:
	movq	%r15, (%rbx)
	movq	%rbp, 16(%rbx)
	addq	$40, %rsp
	.cfi_remember_state
	.cfi_def_cfa_offset 56
	popq	%rbx
	.cfi_def_cfa_offset 48
	popq	%rbp
	.cfi_def_cfa_offset 40
	popq	%r12
	.cfi_def_cfa_offset 32
	popq	%r13
	.cfi_def_cfa_offset 24
	popq	%r14
	.cfi_def_cfa_offset 16
	popq	%r15
	.cfi_def_cfa_offset 8
	ret
	.p2align 4,,10
	.p2align 3
.L2094:
	.cfi_restore_state
	call	_ZSt17__throw_bad_allocv@PLT
	.p2align 4,,10
	.p2align 3
.L2103:
	movl	$15, %eax
	jmp	.L2091
	.p2align 4,,10
	.p2align 3
.L2118:
	movzbl	(%rsi), %eax
	movb	%al, (%r15)
	jmp	.L2096
	.p2align 4,,10
	.p2align 3
.L2119:
	movzbl	(%rcx), %eax
	movq	(%rbx), %r9
