	.file	"texture.cpp"
	.text
	.section	.text._ZNSt19_Sp_counted_deleterIP11SDL_TexturePFvS1_ESaIvELN9__gnu_cxx12_Lock_policyE2EED2Ev,"axG",@progbits,_ZNSt19_Sp_counted_deleterIP11SDL_TexturePFvS1_ESaIvELN9__gnu_cxx12_Lock_policyE2EED5Ev,comdat
	.align 2
	.p2align 4
	.weak	_ZNSt19_Sp_counted_deleterIP11SDL_TexturePFvS1_ESaIvELN9__gnu_cxx12_Lock_policyE2EED2Ev
	.type	_ZNSt19_Sp_counted_deleterIP11SDL_TexturePFvS1_ESaIvELN9__gnu_cxx12_Lock_policyE2EED2Ev, @function
_ZNSt19_Sp_counted_deleterIP11SDL_TexturePFvS1_ESaIvELN9__gnu_cxx12_Lock_policyE2EED2Ev:
.LFB11213:
	.cfi_startproc
	endbr64
	ret
	.cfi_endproc
.LFE11213:
	.size	_ZNSt19_Sp_counted_deleterIP11SDL_TexturePFvS1_ESaIvELN9__gnu_cxx12_Lock_policyE2EED2Ev, .-_ZNSt19_Sp_counted_deleterIP11SDL_TexturePFvS1_ESaIvELN9__gnu_cxx12_Lock_policyE2EED2Ev
	.weak	_ZNSt19_Sp_counted_deleterIP11SDL_TexturePFvS1_ESaIvELN9__gnu_cxx12_Lock_policyE2EED1Ev
	.set	_ZNSt19_Sp_counted_deleterIP11SDL_TexturePFvS1_ESaIvELN9__gnu_cxx12_Lock_policyE2EED1Ev,_ZNSt19_Sp_counted_deleterIP11SDL_TexturePFvS1_ESaIvELN9__gnu_cxx12_Lock_policyE2EED2Ev
	.section	.text._ZNSt19_Sp_counted_deleterIP11SDL_TexturePFvS1_ESaIvELN9__gnu_cxx12_Lock_policyE2EE10_M_disposeEv,"axG",@progbits,_ZNSt19_Sp_counted_deleterIP11SDL_TexturePFvS1_ESaIvELN9__gnu_cxx12_Lock_policyE2EE10_M_disposeEv,comdat
	.align 2
	.p2align 4
	.weak	_ZNSt19_Sp_counted_deleterIP11SDL_TexturePFvS1_ESaIvELN9__gnu_cxx12_Lock_policyE2EE10_M_disposeEv
	.type	_ZNSt19_Sp_counted_deleterIP11SDL_TexturePFvS1_ESaIvELN9__gnu_cxx12_Lock_policyE2EE10_M_disposeEv, @function
_ZNSt19_Sp_counted_deleterIP11SDL_TexturePFvS1_ESaIvELN9__gnu_cxx12_Lock_policyE2EE10_M_disposeEv:
.LFB11216:
	.cfi_startproc
	.cfi_personality 0x9b,DW.ref.__gxx_personality_v0
	.cfi_lsda 0x1b,.LLSDA11216
	endbr64
	subq	$8, %rsp
	.cfi_def_cfa_offset 16
	movq	%rdi, %rax
	movq	24(%rdi), %rdi
	call	*16(%rax)
	addq	$8, %rsp
	.cfi_def_cfa_offset 8
	ret
	.cfi_endproc
.LFE11216:
	.globl	__gxx_personality_v0
	.section	.gcc_except_table._ZNSt19_Sp_counted_deleterIP11SDL_TexturePFvS1_ESaIvELN9__gnu_cxx12_Lock_policyE2EE10_M_disposeEv,"aG",@progbits,_ZNSt19_Sp_counted_deleterIP11SDL_TexturePFvS1_ESaIvELN9__gnu_cxx12_Lock_policyE2EE10_M_disposeEv,comdat
.LLSDA11216:
	.byte	0xff
	.byte	0xff
	.byte	0x1
	.uleb128 .LLSDACSE11216-.LLSDACSB11216
.LLSDACSB11216:
.LLSDACSE11216:
	.section	.text._ZNSt19_Sp_counted_deleterIP11SDL_TexturePFvS1_ESaIvELN9__gnu_cxx12_Lock_policyE2EE10_M_disposeEv,"axG",@progbits,_ZNSt19_Sp_counted_deleterIP11SDL_TexturePFvS1_ESaIvELN9__gnu_cxx12_Lock_policyE2EE10_M_disposeEv,comdat
	.size	_ZNSt19_Sp_counted_deleterIP11SDL_TexturePFvS1_ESaIvELN9__gnu_cxx12_Lock_policyE2EE10_M_disposeEv, .-_ZNSt19_Sp_counted_deleterIP11SDL_TexturePFvS1_ESaIvELN9__gnu_cxx12_Lock_policyE2EE10_M_disposeEv
	.section	.text._ZNSt19_Sp_counted_deleterIP11SDL_SurfacePFvS1_ESaIvELN9__gnu_cxx12_Lock_policyE2EED2Ev,"axG",@progbits,_ZNSt19_Sp_counted_deleterIP11SDL_SurfacePFvS1_ESaIvELN9__gnu_cxx12_Lock_policyE2EED5Ev,comdat
	.align 2
	.p2align 4
	.weak	_ZNSt19_Sp_counted_deleterIP11SDL_SurfacePFvS1_ESaIvELN9__gnu_cxx12_Lock_policyE2EED2Ev
	.type	_ZNSt19_Sp_counted_deleterIP11SDL_SurfacePFvS1_ESaIvELN9__gnu_cxx12_Lock_policyE2EED2Ev, @function
_ZNSt19_Sp_counted_deleterIP11SDL_SurfacePFvS1_ESaIvELN9__gnu_cxx12_Lock_policyE2EED2Ev:
.LFB11220:
	.cfi_startproc
	endbr64
	ret
	.cfi_endproc
.LFE11220:
	.size	_ZNSt19_Sp_counted_deleterIP11SDL_SurfacePFvS1_ESaIvELN9__gnu_cxx12_Lock_policyE2EED2Ev, .-_ZNSt19_Sp_counted_deleterIP11SDL_SurfacePFvS1_ESaIvELN9__gnu_cxx12_Lock_policyE2EED2Ev
	.weak	_ZNSt19_Sp_counted_deleterIP11SDL_SurfacePFvS1_ESaIvELN9__gnu_cxx12_Lock_policyE2EED1Ev
	.set	_ZNSt19_Sp_counted_deleterIP11SDL_SurfacePFvS1_ESaIvELN9__gnu_cxx12_Lock_policyE2EED1Ev,_ZNSt19_Sp_counted_deleterIP11SDL_SurfacePFvS1_ESaIvELN9__gnu_cxx12_Lock_policyE2EED2Ev
	.section	.text._ZNSt19_Sp_counted_deleterIP11SDL_SurfacePFvS1_ESaIvELN9__gnu_cxx12_Lock_policyE2EE10_M_disposeEv,"axG",@progbits,_ZNSt19_Sp_counted_deleterIP11SDL_SurfacePFvS1_ESaIvELN9__gnu_cxx12_Lock_policyE2EE10_M_disposeEv,comdat
	.align 2
	.p2align 4
	.weak	_ZNSt19_Sp_counted_deleterIP11SDL_SurfacePFvS1_ESaIvELN9__gnu_cxx12_Lock_policyE2EE10_M_disposeEv
	.type	_ZNSt19_Sp_counted_deleterIP11SDL_SurfacePFvS1_ESaIvELN9__gnu_cxx12_Lock_policyE2EE10_M_disposeEv, @function
_ZNSt19_Sp_counted_deleterIP11SDL_SurfacePFvS1_ESaIvELN9__gnu_cxx12_Lock_policyE2EE10_M_disposeEv:
.LFB11223:
	.cfi_startproc
	.cfi_personality 0x9b,DW.ref.__gxx_personality_v0
	.cfi_lsda 0x1b,.LLSDA11223
	endbr64
	subq	$8, %rsp
	.cfi_def_cfa_offset 16
	movq	%rdi, %rax
	movq	24(%rdi), %rdi
	call	*16(%rax)
	addq	$8, %rsp
	.cfi_def_cfa_offset 8
	ret
	.cfi_endproc
.LFE11223:
	.section	.gcc_except_table._ZNSt19_Sp_counted_deleterIP11SDL_SurfacePFvS1_ESaIvELN9__gnu_cxx12_Lock_policyE2EE10_M_disposeEv,"aG",@progbits,_ZNSt19_Sp_counted_deleterIP11SDL_SurfacePFvS1_ESaIvELN9__gnu_cxx12_Lock_policyE2EE10_M_disposeEv,comdat
.LLSDA11223:
	.byte	0xff
	.byte	0xff
	.byte	0x1
	.uleb128 .LLSDACSE11223-.LLSDACSB11223
.LLSDACSB11223:
.LLSDACSE11223:
	.section	.text._ZNSt19_Sp_counted_deleterIP11SDL_SurfacePFvS1_ESaIvELN9__gnu_cxx12_Lock_policyE2EE10_M_disposeEv,"axG",@progbits,_ZNSt19_Sp_counted_deleterIP11SDL_SurfacePFvS1_ESaIvELN9__gnu_cxx12_Lock_policyE2EE10_M_disposeEv,comdat
	.size	_ZNSt19_Sp_counted_deleterIP11SDL_SurfacePFvS1_ESaIvELN9__gnu_cxx12_Lock_policyE2EE10_M_disposeEv, .-_ZNSt19_Sp_counted_deleterIP11SDL_SurfacePFvS1_ESaIvELN9__gnu_cxx12_Lock_policyE2EE10_M_disposeEv
	.section	.text._ZNSt19_Sp_counted_deleterIDnPFvP11SDL_SurfaceESaIvELN9__gnu_cxx12_Lock_policyE2EED2Ev,"axG",@progbits,_ZNSt19_Sp_counted_deleterIDnPFvP11SDL_SurfaceESaIvELN9__gnu_cxx12_Lock_policyE2EED5Ev,comdat
	.align 2
	.p2align 4
	.weak	_ZNSt19_Sp_counted_deleterIDnPFvP11SDL_SurfaceESaIvELN9__gnu_cxx12_Lock_policyE2EED2Ev
	.type	_ZNSt19_Sp_counted_deleterIDnPFvP11SDL_SurfaceESaIvELN9__gnu_cxx12_Lock_policyE2EED2Ev, @function
_ZNSt19_Sp_counted_deleterIDnPFvP11SDL_SurfaceESaIvELN9__gnu_cxx12_Lock_policyE2EED2Ev:
.LFB11227:
	.cfi_startproc
	endbr64
	ret
	.cfi_endproc
.LFE11227:
	.size	_ZNSt19_Sp_counted_deleterIDnPFvP11SDL_SurfaceESaIvELN9__gnu_cxx12_Lock_policyE2EED2Ev, .-_ZNSt19_Sp_counted_deleterIDnPFvP11SDL_SurfaceESaIvELN9__gnu_cxx12_Lock_policyE2EED2Ev
	.weak	_ZNSt19_Sp_counted_deleterIDnPFvP11SDL_SurfaceESaIvELN9__gnu_cxx12_Lock_policyE2EED1Ev
	.set	_ZNSt19_Sp_counted_deleterIDnPFvP11SDL_SurfaceESaIvELN9__gnu_cxx12_Lock_policyE2EED1Ev,_ZNSt19_Sp_counted_deleterIDnPFvP11SDL_SurfaceESaIvELN9__gnu_cxx12_Lock_policyE2EED2Ev
	.section	.text._ZNSt19_Sp_counted_deleterIDnPFvP11SDL_SurfaceESaIvELN9__gnu_cxx12_Lock_policyE2EE10_M_disposeEv,"axG",@progbits,_ZNSt19_Sp_counted_deleterIDnPFvP11SDL_SurfaceESaIvELN9__gnu_cxx12_Lock_policyE2EE10_M_disposeEv,comdat
	.align 2
	.p2align 4
	.weak	_ZNSt19_Sp_counted_deleterIDnPFvP11SDL_SurfaceESaIvELN9__gnu_cxx12_Lock_policyE2EE10_M_disposeEv
	.type	_ZNSt19_Sp_counted_deleterIDnPFvP11SDL_SurfaceESaIvELN9__gnu_cxx12_Lock_policyE2EE10_M_disposeEv, @function
_ZNSt19_Sp_counted_deleterIDnPFvP11SDL_SurfaceESaIvELN9__gnu_cxx12_Lock_policyE2EE10_M_disposeEv:
.LFB11230:
	.cfi_startproc
	.cfi_personality 0x9b,DW.ref.__gxx_personality_v0
	.cfi_lsda 0x1b,.LLSDA11230
	endbr64
	subq	$8, %rsp
	.cfi_def_cfa_offset 16
	movq	%rdi, %r8
	xorl	%edi, %edi
	call	*16(%r8)
	addq	$8, %rsp
	.cfi_def_cfa_offset 8
	ret
	.cfi_endproc
.LFE11230:
	.section	.gcc_except_table._ZNSt19_Sp_counted_deleterIDnPFvP11SDL_SurfaceESaIvELN9__gnu_cxx12_Lock_policyE2EE10_M_disposeEv,"aG",@progbits,_ZNSt19_Sp_counted_deleterIDnPFvP11SDL_SurfaceESaIvELN9__gnu_cxx12_Lock_policyE2EE10_M_disposeEv,comdat
.LLSDA11230:
	.byte	0xff
	.byte	0xff
	.byte	0x1
	.uleb128 .LLSDACSE11230-.LLSDACSB11230
.LLSDACSB11230:
.LLSDACSE11230:
	.section	.text._ZNSt19_Sp_counted_deleterIDnPFvP11SDL_SurfaceESaIvELN9__gnu_cxx12_Lock_policyE2EE10_M_disposeEv,"axG",@progbits,_ZNSt19_Sp_counted_deleterIDnPFvP11SDL_SurfaceESaIvELN9__gnu_cxx12_Lock_policyE2EE10_M_disposeEv,comdat
	.size	_ZNSt19_Sp_counted_deleterIDnPFvP11SDL_SurfaceESaIvELN9__gnu_cxx12_Lock_policyE2EE10_M_disposeEv, .-_ZNSt19_Sp_counted_deleterIDnPFvP11SDL_SurfaceESaIvELN9__gnu_cxx12_Lock_policyE2EE10_M_disposeEv
	.section	.text._ZNSt19_Sp_counted_deleterIP11SDL_SurfacePFvS1_ESaIvELN9__gnu_cxx12_Lock_policyE2EED0Ev,"axG",@progbits,_ZNSt19_Sp_counted_deleterIP11SDL_SurfacePFvS1_ESaIvELN9__gnu_cxx12_Lock_policyE2EED5Ev,comdat
	.align 2
	.p2align 4
	.weak	_ZNSt19_Sp_counted_deleterIP11SDL_SurfacePFvS1_ESaIvELN9__gnu_cxx12_Lock_policyE2EED0Ev
	.type	_ZNSt19_Sp_counted_deleterIP11SDL_SurfacePFvS1_ESaIvELN9__gnu_cxx12_Lock_policyE2EED0Ev, @function
_ZNSt19_Sp_counted_deleterIP11SDL_SurfacePFvS1_ESaIvELN9__gnu_cxx12_Lock_policyE2EED0Ev:
.LFB11222:
	.cfi_startproc
	endbr64
	movl	$32, %esi
	jmp	_ZdlPvm@PLT
	.cfi_endproc
.LFE11222:
	.size	_ZNSt19_Sp_counted_deleterIP11SDL_SurfacePFvS1_ESaIvELN9__gnu_cxx12_Lock_policyE2EED0Ev, .-_ZNSt19_Sp_counted_deleterIP11SDL_SurfacePFvS1_ESaIvELN9__gnu_cxx12_Lock_policyE2EED0Ev
	.section	.text._ZNSt19_Sp_counted_deleterIP11SDL_TexturePFvS1_ESaIvELN9__gnu_cxx12_Lock_policyE2EED0Ev,"axG",@progbits,_ZNSt19_Sp_counted_deleterIP11SDL_TexturePFvS1_ESaIvELN9__gnu_cxx12_Lock_policyE2EED5Ev,comdat
	.align 2
	.p2align 4
	.weak	_ZNSt19_Sp_counted_deleterIP11SDL_TexturePFvS1_ESaIvELN9__gnu_cxx12_Lock_policyE2EED0Ev
	.type	_ZNSt19_Sp_counted_deleterIP11SDL_TexturePFvS1_ESaIvELN9__gnu_cxx12_Lock_policyE2EED0Ev, @function
_ZNSt19_Sp_counted_deleterIP11SDL_TexturePFvS1_ESaIvELN9__gnu_cxx12_Lock_policyE2EED0Ev:
.LFB11215:
	.cfi_startproc
	endbr64
	movl	$32, %esi
	jmp	_ZdlPvm@PLT
	.cfi_endproc
.LFE11215:
	.size	_ZNSt19_Sp_counted_deleterIP11SDL_TexturePFvS1_ESaIvELN9__gnu_cxx12_Lock_policyE2EED0Ev, .-_ZNSt19_Sp_counted_deleterIP11SDL_TexturePFvS1_ESaIvELN9__gnu_cxx12_Lock_policyE2EED0Ev
	.section	.text._ZNSt19_Sp_counted_deleterIDnPFvP11SDL_SurfaceESaIvELN9__gnu_cxx12_Lock_policyE2EED0Ev,"axG",@progbits,_ZNSt19_Sp_counted_deleterIDnPFvP11SDL_SurfaceESaIvELN9__gnu_cxx12_Lock_policyE2EED5Ev,comdat
	.align 2
	.p2align 4
	.weak	_ZNSt19_Sp_counted_deleterIDnPFvP11SDL_SurfaceESaIvELN9__gnu_cxx12_Lock_policyE2EED0Ev
	.type	_ZNSt19_Sp_counted_deleterIDnPFvP11SDL_SurfaceESaIvELN9__gnu_cxx12_Lock_policyE2EED0Ev, @function
_ZNSt19_Sp_counted_deleterIDnPFvP11SDL_SurfaceESaIvELN9__gnu_cxx12_Lock_policyE2EED0Ev:
.LFB11229:
	.cfi_startproc
	endbr64
	movl	$32, %esi
	jmp	_ZdlPvm@PLT
	.cfi_endproc
.LFE11229:
	.size	_ZNSt19_Sp_counted_deleterIDnPFvP11SDL_SurfaceESaIvELN9__gnu_cxx12_Lock_policyE2EED0Ev, .-_ZNSt19_Sp_counted_deleterIDnPFvP11SDL_SurfaceESaIvELN9__gnu_cxx12_Lock_policyE2EED0Ev
	.section	.text._ZNSt19_Sp_counted_deleterIDnPFvP11SDL_SurfaceESaIvELN9__gnu_cxx12_Lock_policyE2EE14_M_get_deleterERKSt9type_info,"axG",@progbits,_ZNSt19_Sp_counted_deleterIDnPFvP11SDL_SurfaceESaIvELN9__gnu_cxx12_Lock_policyE2EE14_M_get_deleterERKSt9type_info,comdat
	.align 2
	.p2align 4
	.weak	_ZNSt19_Sp_counted_deleterIDnPFvP11SDL_SurfaceESaIvELN9__gnu_cxx12_Lock_policyE2EE14_M_get_deleterERKSt9type_info
	.type	_ZNSt19_Sp_counted_deleterIDnPFvP11SDL_SurfaceESaIvELN9__gnu_cxx12_Lock_policyE2EE14_M_get_deleterERKSt9type_info, @function
_ZNSt19_Sp_counted_deleterIDnPFvP11SDL_SurfaceESaIvELN9__gnu_cxx12_Lock_policyE2EE14_M_get_deleterERKSt9type_info:
.LFB11232:
	.cfi_startproc
	endbr64
	pushq	%r12
	.cfi_def_cfa_offset 16
	.cfi_offset 12, -16
	pushq	%rbx
	.cfi_def_cfa_offset 24
	.cfi_offset 3, -24
	movq	%rdi, %rbx
	subq	$8, %rsp
	.cfi_def_cfa_offset 32
	movq	8(%rsi), %rdi
	leaq	_ZTSPFvP11SDL_SurfaceE(%rip), %rsi
	cmpq	%rsi, %rdi
	je	.L15
	xorl	%r12d, %r12d
	cmpb	$42, (%rdi)
	je	.L14
	call	strcmp@PLT
	testl	%eax, %eax
	jne	.L14
.L15:
	leaq	16(%rbx), %r12
.L14:
	addq	$8, %rsp
	.cfi_def_cfa_offset 24
	movq	%r12, %rax
	popq	%rbx
	.cfi_def_cfa_offset 16
	popq	%r12
	.cfi_def_cfa_offset 8
	ret
	.cfi_endproc
.LFE11232:
	.size	_ZNSt19_Sp_counted_deleterIDnPFvP11SDL_SurfaceESaIvELN9__gnu_cxx12_Lock_policyE2EE14_M_get_deleterERKSt9type_info, .-_ZNSt19_Sp_counted_deleterIDnPFvP11SDL_SurfaceESaIvELN9__gnu_cxx12_Lock_policyE2EE14_M_get_deleterERKSt9type_info
	.section	.text._ZNSt19_Sp_counted_deleterIP11SDL_TexturePFvS1_ESaIvELN9__gnu_cxx12_Lock_policyE2EE10_M_destroyEv,"axG",@progbits,_ZNSt19_Sp_counted_deleterIP11SDL_TexturePFvS1_ESaIvELN9__gnu_cxx12_Lock_policyE2EE10_M_destroyEv,comdat
	.align 2
	.p2align 4
	.weak	_ZNSt19_Sp_counted_deleterIP11SDL_TexturePFvS1_ESaIvELN9__gnu_cxx12_Lock_policyE2EE10_M_destroyEv
	.type	_ZNSt19_Sp_counted_deleterIP11SDL_TexturePFvS1_ESaIvELN9__gnu_cxx12_Lock_policyE2EE10_M_destroyEv, @function
_ZNSt19_Sp_counted_deleterIP11SDL_TexturePFvS1_ESaIvELN9__gnu_cxx12_Lock_policyE2EE10_M_destroyEv:
.LFB11217:
	.cfi_startproc
	endbr64
	movl	$32, %esi
	jmp	_ZdlPvm@PLT
	.cfi_endproc
.LFE11217:
	.size	_ZNSt19_Sp_counted_deleterIP11SDL_TexturePFvS1_ESaIvELN9__gnu_cxx12_Lock_policyE2EE10_M_destroyEv, .-_ZNSt19_Sp_counted_deleterIP11SDL_TexturePFvS1_ESaIvELN9__gnu_cxx12_Lock_policyE2EE10_M_destroyEv
	.section	.text._ZNSt19_Sp_counted_deleterIP11SDL_SurfacePFvS1_ESaIvELN9__gnu_cxx12_Lock_policyE2EE10_M_destroyEv,"axG",@progbits,_ZNSt19_Sp_counted_deleterIP11SDL_SurfacePFvS1_ESaIvELN9__gnu_cxx12_Lock_policyE2EE10_M_destroyEv,comdat
	.align 2
	.p2align 4
	.weak	_ZNSt19_Sp_counted_deleterIP11SDL_SurfacePFvS1_ESaIvELN9__gnu_cxx12_Lock_policyE2EE10_M_destroyEv
	.type	_ZNSt19_Sp_counted_deleterIP11SDL_SurfacePFvS1_ESaIvELN9__gnu_cxx12_Lock_policyE2EE10_M_destroyEv, @function
_ZNSt19_Sp_counted_deleterIP11SDL_SurfacePFvS1_ESaIvELN9__gnu_cxx12_Lock_policyE2EE10_M_destroyEv:
.LFB11224:
	.cfi_startproc
	endbr64
	movl	$32, %esi
	jmp	_ZdlPvm@PLT
	.cfi_endproc
.LFE11224:
	.size	_ZNSt19_Sp_counted_deleterIP11SDL_SurfacePFvS1_ESaIvELN9__gnu_cxx12_Lock_policyE2EE10_M_destroyEv, .-_ZNSt19_Sp_counted_deleterIP11SDL_SurfacePFvS1_ESaIvELN9__gnu_cxx12_Lock_policyE2EE10_M_destroyEv
	.section	.text._ZNSt19_Sp_counted_deleterIDnPFvP11SDL_SurfaceESaIvELN9__gnu_cxx12_Lock_policyE2EE10_M_destroyEv,"axG",@progbits,_ZNSt19_Sp_counted_deleterIDnPFvP11SDL_SurfaceESaIvELN9__gnu_cxx12_Lock_policyE2EE10_M_destroyEv,comdat
	.align 2
	.p2align 4
	.weak	_ZNSt19_Sp_counted_deleterIDnPFvP11SDL_SurfaceESaIvELN9__gnu_cxx12_Lock_policyE2EE10_M_destroyEv
	.type	_ZNSt19_Sp_counted_deleterIDnPFvP11SDL_SurfaceESaIvELN9__gnu_cxx12_Lock_policyE2EE10_M_destroyEv, @function
_ZNSt19_Sp_counted_deleterIDnPFvP11SDL_SurfaceESaIvELN9__gnu_cxx12_Lock_policyE2EE10_M_destroyEv:
.LFB11231:
	.cfi_startproc
	endbr64
	movl	$32, %esi
	jmp	_ZdlPvm@PLT
	.cfi_endproc
.LFE11231:
	.size	_ZNSt19_Sp_counted_deleterIDnPFvP11SDL_SurfaceESaIvELN9__gnu_cxx12_Lock_policyE2EE10_M_destroyEv, .-_ZNSt19_Sp_counted_deleterIDnPFvP11SDL_SurfaceESaIvELN9__gnu_cxx12_Lock_policyE2EE10_M_destroyEv
	.section	.text._ZNSt19_Sp_counted_deleterIP11SDL_TexturePFvS1_ESaIvELN9__gnu_cxx12_Lock_policyE2EE14_M_get_deleterERKSt9type_info,"axG",@progbits,_ZNSt19_Sp_counted_deleterIP11SDL_TexturePFvS1_ESaIvELN9__gnu_cxx12_Lock_policyE2EE14_M_get_deleterERKSt9type_info,comdat
	.align 2
	.p2align 4
	.weak	_ZNSt19_Sp_counted_deleterIP11SDL_TexturePFvS1_ESaIvELN9__gnu_cxx12_Lock_policyE2EE14_M_get_deleterERKSt9type_info
	.type	_ZNSt19_Sp_counted_deleterIP11SDL_TexturePFvS1_ESaIvELN9__gnu_cxx12_Lock_policyE2EE14_M_get_deleterERKSt9type_info, @function
_ZNSt19_Sp_counted_deleterIP11SDL_TexturePFvS1_ESaIvELN9__gnu_cxx12_Lock_policyE2EE14_M_get_deleterERKSt9type_info:
.LFB11218:
	.cfi_startproc
	endbr64
	pushq	%r12
	.cfi_def_cfa_offset 16
	.cfi_offset 12, -16
	pushq	%rbx
	.cfi_def_cfa_offset 24
	.cfi_offset 3, -24
	movq	%rdi, %rbx
	subq	$8, %rsp
	.cfi_def_cfa_offset 32
	movq	8(%rsi), %rdi
	leaq	_ZTSPFvP11SDL_TextureE(%rip), %rsi
	cmpq	%rsi, %rdi
	je	.L24
	xorl	%r12d, %r12d
	cmpb	$42, (%rdi)
	je	.L23
	call	strcmp@PLT
	testl	%eax, %eax
	jne	.L23
.L24:
	leaq	16(%rbx), %r12
.L23:
	addq	$8, %rsp
	.cfi_def_cfa_offset 24
	movq	%r12, %rax
	popq	%rbx
	.cfi_def_cfa_offset 16
	popq	%r12
	.cfi_def_cfa_offset 8
	ret
	.cfi_endproc
.LFE11218:
	.size	_ZNSt19_Sp_counted_deleterIP11SDL_TexturePFvS1_ESaIvELN9__gnu_cxx12_Lock_policyE2EE14_M_get_deleterERKSt9type_info, .-_ZNSt19_Sp_counted_deleterIP11SDL_TexturePFvS1_ESaIvELN9__gnu_cxx12_Lock_policyE2EE14_M_get_deleterERKSt9type_info
	.section	.text._ZNSt19_Sp_counted_deleterIP11SDL_SurfacePFvS1_ESaIvELN9__gnu_cxx12_Lock_policyE2EE14_M_get_deleterERKSt9type_info,"axG",@progbits,_ZNSt19_Sp_counted_deleterIP11SDL_SurfacePFvS1_ESaIvELN9__gnu_cxx12_Lock_policyE2EE14_M_get_deleterERKSt9type_info,comdat
	.align 2
	.p2align 4
	.weak	_ZNSt19_Sp_counted_deleterIP11SDL_SurfacePFvS1_ESaIvELN9__gnu_cxx12_Lock_policyE2EE14_M_get_deleterERKSt9type_info
	.type	_ZNSt19_Sp_counted_deleterIP11SDL_SurfacePFvS1_ESaIvELN9__gnu_cxx12_Lock_policyE2EE14_M_get_deleterERKSt9type_info, @function
_ZNSt19_Sp_counted_deleterIP11SDL_SurfacePFvS1_ESaIvELN9__gnu_cxx12_Lock_policyE2EE14_M_get_deleterERKSt9type_info:
.LFB11225:
	.cfi_startproc
	endbr64
	pushq	%r12
	.cfi_def_cfa_offset 16
	.cfi_offset 12, -16
	pushq	%rbx
	.cfi_def_cfa_offset 24
	.cfi_offset 3, -24
	movq	%rdi, %rbx
	subq	$8, %rsp
	.cfi_def_cfa_offset 32
	movq	8(%rsi), %rdi
	leaq	_ZTSPFvP11SDL_SurfaceE(%rip), %rsi
	cmpq	%rsi, %rdi
	je	.L30
	xorl	%r12d, %r12d
	cmpb	$42, (%rdi)
	je	.L29
	call	strcmp@PLT
	testl	%eax, %eax
	jne	.L29
.L30:
	leaq	16(%rbx), %r12
.L29:
	addq	$8, %rsp
	.cfi_def_cfa_offset 24
	movq	%r12, %rax
	popq	%rbx
	.cfi_def_cfa_offset 16
	popq	%r12
	.cfi_def_cfa_offset 8
	ret
	.cfi_endproc
.LFE11225:
	.size	_ZNSt19_Sp_counted_deleterIP11SDL_SurfacePFvS1_ESaIvELN9__gnu_cxx12_Lock_policyE2EE14_M_get_deleterERKSt9type_info, .-_ZNSt19_Sp_counted_deleterIP11SDL_SurfacePFvS1_ESaIvELN9__gnu_cxx12_Lock_policyE2EE14_M_get_deleterERKSt9type_info
	.text
	.align 2
	.p2align 4
	.globl	_ZN7TextureC2ERKS_
	.type	_ZN7TextureC2ERKS_, @function
_ZN7TextureC2ERKS_:
.LFB10186:
	.cfi_startproc
	endbr64
	movdqu	(%rsi), %xmm0
	movq	8(%rsi), %rax
	movups	%xmm0, (%rdi)
	testq	%rax, %rax
	je	.L36
	cmpb	$0, __libc_single_threaded(%rip)
	je	.L37
	addl	$1, 8(%rax)
.L36:
	movdqu	16(%rsi), %xmm1
	movq	24(%rsi), %rax
	movups	%xmm1, 16(%rdi)
	testq	%rax, %rax
	je	.L38
	cmpb	$0, __libc_single_threaded(%rip)
	je	.L39
	addl	$1, 8(%rax)
.L38:
	movq	32(%rsi), %rax
	movq	%rax, 32(%rdi)
	ret
	.p2align 4,,10
	.p2align 3
.L37:
	lock addl	$1, 8(%rax)
	jmp	.L36
	.p2align 4,,10
	.p2align 3
.L39:
	lock addl	$1, 8(%rax)
	movq	32(%rsi), %rax
	movq	%rax, 32(%rdi)
	ret
	.cfi_endproc
.LFE10186:
	.size	_ZN7TextureC2ERKS_, .-_ZN7TextureC2ERKS_
	.globl	_ZN7TextureC1ERKS_
	.set	_ZN7TextureC1ERKS_,_ZN7TextureC2ERKS_
	.align 2
	.p2align 4
	.globl	_ZN7TextureaSERKS_
	.type	_ZN7TextureaSERKS_, @function
_ZN7TextureaSERKS_:
.LFB10188:
	.cfi_startproc
	endbr64
	pushq	%r13
	.cfi_def_cfa_offset 16
	.cfi_offset 13, -16
	pushq	%r12
	.cfi_def_cfa_offset 24
	.cfi_offset 12, -24
	movq	%rdi, %r12
	pushq	%rbp
	.cfi_def_cfa_offset 32
	.cfi_offset 6, -32
	pushq	%rbx
	.cfi_def_cfa_offset 40
	.cfi_offset 3, -40
	movq	%rsi, %rbx
	subq	$8, %rsp
	.cfi_def_cfa_offset 48
	movq	(%rsi), %rax
	movq	8(%rsi), %rbp
	movq	8(%rdi), %r13
	movq	%rax, (%rdi)
	cmpq	%r13, %rbp
	je	.L47
	testq	%rbp, %rbp
	je	.L48
	cmpb	$0, __libc_single_threaded(%rip)
	je	.L49
	addl	$1, 8(%rbp)
	testq	%r13, %r13
	je	.L51
.L50:
	movl	8(%r13), %eax
	leal	-1(%rax), %edx
	movl	%edx, 8(%r13)
	cmpl	$1, %eax
	je	.L80
.L51:
	movq	%rbp, 8(%r12)
.L47:
	movq	16(%rbx), %rax
	movq	24(%rbx), %rbp
	movq	24(%r12), %r13
	movq	%rax, 16(%r12)
	cmpq	%r13, %rbp
	je	.L57
	testq	%rbp, %rbp
	je	.L58
	cmpb	$0, __libc_single_threaded(%rip)
	je	.L59
	addl	$1, 8(%rbp)
	testq	%r13, %r13
	je	.L61
.L60:
	movl	8(%r13), %eax
	leal	-1(%rax), %edx
	movl	%edx, 8(%r13)
	cmpl	$1, %eax
	je	.L81
.L61:
	movq	%rbp, 24(%r12)
.L57:
	movq	32(%rbx), %rax
	movq	%rax, 32(%r12)
	addq	$8, %rsp
	.cfi_remember_state
	.cfi_def_cfa_offset 40
	movq	%r12, %rax
	popq	%rbx
	.cfi_def_cfa_offset 32
	popq	%rbp
	.cfi_def_cfa_offset 24
	popq	%r12
	.cfi_def_cfa_offset 16
	popq	%r13
	.cfi_def_cfa_offset 8
	ret
	.p2align 4,,10
	.p2align 3
.L49:
	.cfi_restore_state
	lock addl	$1, 8(%rbp)
	movq	8(%rdi), %r13
.L48:
	testq	%r13, %r13
	je	.L51
	cmpb	$0, __libc_single_threaded(%rip)
	jne	.L50
	movl	$-1, %eax
	lock xaddl	%eax, 8(%r13)
	cmpl	$1, %eax
	jne	.L51
.L80:
	movq	0(%r13), %rax
	movq	%r13, %rdi
	call	*16(%rax)
	cmpb	$0, __libc_single_threaded(%rip)
	je	.L55
	movl	12(%r13), %eax
	leal	-1(%rax), %edx
	movl	%edx, 12(%r13)
.L56:
	cmpl	$1, %eax
	jne	.L51
	movq	0(%r13), %rax
	movq	%r13, %rdi
	call	*24(%rax)
	jmp	.L51
	.p2align 4,,10
	.p2align 3
.L59:
	lock addl	$1, 8(%rbp)
	movq	24(%r12), %r13
.L58:
	testq	%r13, %r13
	je	.L61
	cmpb	$0, __libc_single_threaded(%rip)
	jne	.L60
	movl	$-1, %eax
	lock xaddl	%eax, 8(%r13)
	cmpl	$1, %eax
	jne	.L61
.L81:
	movq	0(%r13), %rax
	movq	%r13, %rdi
	call	*16(%rax)
	cmpb	$0, __libc_single_threaded(%rip)
	je	.L65
	movl	12(%r13), %eax
	leal	-1(%rax), %edx
	movl	%edx, 12(%r13)
.L66:
	cmpl	$1, %eax
	jne	.L61
	movq	0(%r13), %rax
	movq	%r13, %rdi
	call	*24(%rax)
	jmp	.L61
	.p2align 4,,10
	.p2align 3
.L65:
	movl	$-1, %eax
	lock xaddl	%eax, 12(%r13)
	jmp	.L66
	.p2align 4,,10
	.p2align 3
.L55:
	movl	$-1, %eax
	lock xaddl	%eax, 12(%r13)
	jmp	.L56
	.cfi_endproc
.LFE10188:
	.size	_ZN7TextureaSERKS_, .-_ZN7TextureaSERKS_
	.align 2
	.p2align 4
	.globl	_ZNK7Texture3getEv
	.type	_ZNK7Texture3getEv, @function
_ZNK7Texture3getEv:
.LFB10196:
	.cfi_startproc
	endbr64
	movq	(%rdi), %rax
	ret
	.cfi_endproc
.LFE10196:
	.size	_ZNK7Texture3getEv, .-_ZNK7Texture3getEv
	.align 2
	.p2align 4
	.globl	_ZNK7Texture11get_surfaceEv
	.type	_ZNK7Texture11get_surfaceEv, @function
_ZNK7Texture11get_surfaceEv:
.LFB10197:
	.cfi_startproc
	endbr64
	movq	16(%rdi), %rax
	ret
	.cfi_endproc
.LFE10197:
	.size	_ZNK7Texture11get_surfaceEv, .-_ZNK7Texture11get_surfaceEv
	.align 2
	.p2align 4
	.globl	_ZNK7Texture9get_widthEv
	.type	_ZNK7Texture9get_widthEv, @function
_ZNK7Texture9get_widthEv:
.LFB10198:
	.cfi_startproc
	endbr64
	movl	32(%rdi), %eax
	ret
	.cfi_endproc
.LFE10198:
	.size	_ZNK7Texture9get_widthEv, .-_ZNK7Texture9get_widthEv
	.align 2
	.p2align 4
	.globl	_ZNK7Texture10get_heightEv
	.type	_ZNK7Texture10get_heightEv, @function
_ZNK7Texture10get_heightEv:
.LFB10199:
	.cfi_startproc
	endbr64
	movl	36(%rdi), %eax
	ret
	.cfi_endproc
.LFE10199:
	.size	_ZNK7Texture10get_heightEv, .-_ZNK7Texture10get_heightEv
	.section	.rodata._ZN9__gnu_cxx12__to_xstringINSt7__cxx1112basic_stringIcSt11char_traitsIcESaIcEEEcEET_PFiPT0_mPKS8_P13__va_list_tagEmSB_z.str1.1,"aMS",@progbits,1
.LC0:
	.string	"basic_string::_M_create"
	.section	.text._ZN9__gnu_cxx12__to_xstringINSt7__cxx1112basic_stringIcSt11char_traitsIcESaIcEEEcEET_PFiPT0_mPKS8_P13__va_list_tagEmSB_z,"axG",@progbits,_ZN9__gnu_cxx12__to_xstringINSt7__cxx1112basic_stringIcSt11char_traitsIcESaIcEEEcEET_PFiPT0_mPKS8_P13__va_list_tagEmSB_z,comdat
	.p2align 4
	.weak	_ZN9__gnu_cxx12__to_xstringINSt7__cxx1112basic_stringIcSt11char_traitsIcESaIcEEEcEET_PFiPT0_mPKS8_P13__va_list_tagEmSB_z
	.type	_ZN9__gnu_cxx12__to_xstringINSt7__cxx1112basic_stringIcSt11char_traitsIcESaIcEEEcEET_PFiPT0_mPKS8_P13__va_list_tagEmSB_z, @function
_ZN9__gnu_cxx12__to_xstringINSt7__cxx1112basic_stringIcSt11char_traitsIcESaIcEEEcEET_PFiPT0_mPKS8_P13__va_list_tagEmSB_z:
.LFB10319:
	.cfi_startproc
	endbr64
	pushq	%rbp
	.cfi_def_cfa_offset 16
	.cfi_offset 6, -16
	movq	%rsi, %r10
	movq	%rcx, %r11
	movq	%rdx, %rsi
	movq	%rsp, %rbp
	.cfi_def_cfa_register 6
	pushq	%r13
	pushq	%r12
	.cfi_offset 13, -24
	.cfi_offset 12, -32
	movq	%rdi, %r12
	pushq	%rbx
	subq	$216, %rsp
	.cfi_offset 3, -40
	movq	%r8, -176(%rbp)
	movq	%r9, -168(%rbp)
	testb	%al, %al
	je	.L87
	movaps	%xmm0, -160(%rbp)
	movaps	%xmm1, -144(%rbp)
	movaps	%xmm2, -128(%rbp)
	movaps	%xmm3, -112(%rbp)
	movaps	%xmm4, -96(%rbp)
	movaps	%xmm5, -80(%rbp)
	movaps	%xmm6, -64(%rbp)
	movaps	%xmm7, -48(%rbp)
.L87:
	movq	%fs:40, %rax
	movq	%rax, -216(%rbp)
	xorl	%eax, %eax
	leaq	23(%rsi), %rax
	movq	%rsp, %rcx
	movq	%rax, %rdx
	andq	$-4096, %rax
	subq	%rax, %rcx
	andq	$-16, %rdx
	cmpq	%rcx, %rsp
	je	.L89
.L105:
	subq	$4096, %rsp
	orq	$0, 4088(%rsp)
	cmpq	%rcx, %rsp
	jne	.L105
.L89:
	andl	$4095, %edx
	subq	%rdx, %rsp
	testq	%rdx, %rdx
	jne	.L106
.L90:
	leaq	16(%rbp), %rax
	leaq	15(%rsp), %r13
	movq	%r11, %rdx
	movl	$32, -240(%rbp)
	movq	%rax, -232(%rbp)
	andq	$-16, %r13
	leaq	-208(%rbp), %rax
	leaq	-240(%rbp), %rcx
	movq	%r13, %rdi
	movq	%rax, -224(%rbp)
	movl	$48, -236(%rbp)
	call	*%r10
	leaq	16(%r12), %rdi
	movslq	%eax, %rbx
	movq	%rdi, (%r12)
	cmpq	$15, %rbx
	ja	.L107
	cmpq	$1, %rbx
	jne	.L95
	movzbl	0(%r13), %eax
	movb	%al, 16(%r12)
.L96:
	movq	%rbx, 8(%r12)
	movb	$0, (%rdi,%rbx)
	movq	-216(%rbp), %rax
	subq	%fs:40, %rax
	jne	.L108
	leaq	-24(%rbp), %rsp
	movq	%r12, %rax
	popq	%rbx
	popq	%r12
	popq	%r13
	popq	%rbp
	.cfi_remember_state
	.cfi_def_cfa 7, 8
	ret
	.p2align 4,,10
	.p2align 3
.L95:
	.cfi_restore_state
	testq	%rbx, %rbx
	je	.L96
	movq	%rbx, %rdx
	movq	%r13, %rsi
	call	memcpy@PLT
	movq	(%r12), %rdi
	jmp	.L96
	.p2align 4,,10
	.p2align 3
.L107:
	testl	%eax, %eax
	js	.L109
	movq	%rbx, %rdi
	addq	$1, %rdi
	js	.L110
	call	_Znwm@PLT
	movq	%rbx, 16(%r12)
	movq	%rbx, %rdx
	movq	%r13, %rsi
	movq	%rax, (%r12)
	movq	%rax, %rdi
	call	memcpy@PLT
	movq	(%r12), %rdi
	jmp	.L96
	.p2align 4,,10
	.p2align 3
.L106:
	orq	$0, -8(%rsp,%rdx)
	jmp	.L90
	.p2align 4,,10
	.p2align 3
.L110:
	call	_ZSt17__throw_bad_allocv@PLT
.L108:
	call	__stack_chk_fail@PLT
.L109:
	leaq	.LC0(%rip), %rdi
	call	_ZSt20__throw_length_errorPKc@PLT
	.cfi_endproc
.LFE10319:
	.size	_ZN9__gnu_cxx12__to_xstringINSt7__cxx1112basic_stringIcSt11char_traitsIcESaIcEEEcEET_PFiPT0_mPKS8_P13__va_list_tagEmSB_z, .-_ZN9__gnu_cxx12__to_xstringINSt7__cxx1112basic_stringIcSt11char_traitsIcESaIcEEEcEET_PFiPT0_mPKS8_P13__va_list_tagEmSB_z
	.section	.text._ZNSt16_Sp_counted_baseILN9__gnu_cxx12_Lock_policyE2EE10_M_releaseEv,"axG",@progbits,_ZNSt16_Sp_counted_baseILN9__gnu_cxx12_Lock_policyE2EE10_M_releaseEv,comdat
	.align 2
	.p2align 4
	.weak	_ZNSt16_Sp_counted_baseILN9__gnu_cxx12_Lock_policyE2EE10_M_releaseEv
	.type	_ZNSt16_Sp_counted_baseILN9__gnu_cxx12_Lock_policyE2EE10_M_releaseEv, @function
_ZNSt16_Sp_counted_baseILN9__gnu_cxx12_Lock_policyE2EE10_M_releaseEv:
.LFB10761:
	.cfi_startproc
	endbr64
	cmpb	$0, __libc_single_threaded(%rip)
	pushq	%rbp
	.cfi_def_cfa_offset 16
	.cfi_offset 6, -16
	movq	%rdi, %rbp
	je	.L112
	movl	8(%rdi), %eax
	leal	-1(%rax), %edx
	movl	%edx, 8(%rdi)
.L113:
	cmpl	$1, %eax
	je	.L120
.L111:
	popq	%rbp
	.cfi_remember_state
	.cfi_def_cfa_offset 8
	ret
	.p2align 4,,10
	.p2align 3
.L120:
	.cfi_restore_state
	movq	0(%rbp), %rax
	movq	%rbp, %rdi
	call	*16(%rax)
	cmpb	$0, __libc_single_threaded(%rip)
	je	.L116
	movl	12(%rbp), %eax
	leal	-1(%rax), %edx
	movl	%edx, 12(%rbp)
.L117:
	cmpl	$1, %eax
	jne	.L111
	movq	0(%rbp), %rax
	movq	%rbp, %rdi
	popq	%rbp
	.cfi_remember_state
	.cfi_def_cfa_offset 8
	movq	24(%rax), %rax
	jmp	*%rax
	.p2align 4,,10
	.p2align 3
.L112:
	.cfi_restore_state
	movl	$-1, %eax
	lock xaddl	%eax, 8(%rdi)
	jmp	.L113
	.p2align 4,,10
	.p2align 3
.L116:
	movl	$-1, %eax
	lock xaddl	%eax, 12(%rbp)
	jmp	.L117
	.cfi_endproc
.LFE10761:
	.size	_ZNSt16_Sp_counted_baseILN9__gnu_cxx12_Lock_policyE2EE10_M_releaseEv, .-_ZNSt16_Sp_counted_baseILN9__gnu_cxx12_Lock_policyE2EE10_M_releaseEv
	.section	.text.unlikely,"ax",@progbits
	.align 2
.LCOLDB2:
	.text
.LHOTB2:
	.align 2
	.p2align 4
	.globl	_ZN7TextureC2EP11SDL_Texture
	.type	_ZN7TextureC2EP11SDL_Texture, @function
_ZN7TextureC2EP11SDL_Texture:
.LFB10171:
	.cfi_startproc
	.cfi_personality 0x9b,DW.ref.__gxx_personality_v0
	.cfi_lsda 0x1b,.LLSDA10171
	endbr64
	pushq	%r12
	.cfi_def_cfa_offset 16
	.cfi_offset 12, -16
	pushq	%rbp
	.cfi_def_cfa_offset 24
	.cfi_offset 6, -24
	movq	%rsi, %rbp
	pushq	%rbx
	.cfi_def_cfa_offset 32
	.cfi_offset 3, -32
	movq	%rdi, %rbx
	movq	%rsi, (%rdi)
	movq	$0, 8(%rdi)
	movl	$32, %edi
.LEHB0:
	call	_Znwm@PLT
.LEHE0:
	movq	.LC1(%rip), %r12
	movq	SDL_DestroyTexture@GOTPCREL(%rip), %rdx
	leaq	16+_ZTVSt19_Sp_counted_deleterIP11SDL_TexturePFvS1_ESaIvELN9__gnu_cxx12_Lock_policyE2EE(%rip), %rcx
	movq	%rbp, 24(%rax)
	movq	%rcx, (%rax)
	movl	$32, %edi
	movq	%r12, 8(%rax)
	movq	%rdx, 16(%rax)
	movq	%rax, 8(%rbx)
	movq	$0, 16(%rbx)
	movq	$0, 24(%rbx)
.LEHB1:
	call	_Znwm@PLT
.LEHE1:
	movq	%r12, 8(%rax)
	leaq	32(%rbx), %rcx
	leaq	36(%rbx), %r8
	movq	%rbp, %rdi
	movq	SDL_FreeSurface@GOTPCREL(%rip), %rdx
	leaq	16+_ZTVSt19_Sp_counted_deleterIDnPFvP11SDL_SurfaceESaIvELN9__gnu_cxx12_Lock_policyE2EE(%rip), %rsi
	movq	%rax, 24(%rbx)
	movq	%rsi, (%rax)
	xorl	%esi, %esi
	movq	%rdx, 16(%rax)
	xorl	%edx, %edx
	movq	$0, 24(%rax)
	movq	$0, 32(%rbx)
.LEHB2:
	call	SDL_QueryTexture@PLT
.LEHE2:
	popq	%rbx
	.cfi_remember_state
	.cfi_def_cfa_offset 24
	popq	%rbp
	.cfi_def_cfa_offset 16
	popq	%r12
	.cfi_def_cfa_offset 8
	ret
.L136:
	.cfi_restore_state
	endbr64
	movq	%rax, %rdi
	jmp	.L123
.L132:
	endbr64
	movq	%rax, %rbp
	jmp	.L129
.L134:
	endbr64
	movq	%rax, %rdi
	jmp	.L126
	.section	.gcc_except_table,"a",@progbits
	.align 4
.LLSDA10171:
	.byte	0xff
	.byte	0x9b
	.uleb128 .LLSDATT10171-.LLSDATTD10171
.LLSDATTD10171:
	.byte	0x1
	.uleb128 .LLSDACSE10171-.LLSDACSB10171
.LLSDACSB10171:
	.uleb128 .LEHB0-.LFB10171
	.uleb128 .LEHE0-.LEHB0
	.uleb128 .L136-.LFB10171
	.uleb128 0x1
	.uleb128 .LEHB1-.LFB10171
	.uleb128 .LEHE1-.LEHB1
	.uleb128 .L134-.LFB10171
	.uleb128 0x1
	.uleb128 .LEHB2-.LFB10171
	.uleb128 .LEHE2-.LEHB2
	.uleb128 .L132-.LFB10171
	.uleb128 0
.LLSDACSE10171:
	.byte	0x1
	.byte	0
	.align 4
	.long	0

.LLSDATT10171:
	.text
	.cfi_endproc
	.section	.text.unlikely
	.cfi_startproc
	.cfi_personality 0x9b,DW.ref.__gxx_personality_v0
	.cfi_lsda 0x1b,.LLSDAC10171
	.type	_ZN7TextureC2EP11SDL_Texture.cold, @function
_ZN7TextureC2EP11SDL_Texture.cold:
.LFSB10171:
.L123:
	.cfi_def_cfa_offset 32
	.cfi_offset 3, -32
	.cfi_offset 6, -24
	.cfi_offset 12, -16
	call	__cxa_begin_catch@PLT
	movq	%rbp, %rdi
.LEHB3:
	call	SDL_DestroyTexture@PLT
	call	__cxa_rethrow@PLT
.LEHE3:
.L129:
	movq	24(%rbx), %rdi
	testq	%rdi, %rdi
	je	.L128
	call	_ZNSt16_Sp_counted_baseILN9__gnu_cxx12_Lock_policyE2EE10_M_releaseEv
	jmp	.L128
.L126:
	call	__cxa_begin_catch@PLT
	xorl	%edi, %edi
.LEHB4:
	call	SDL_FreeSurface@PLT
	call	__cxa_rethrow@PLT
.LEHE4:
.L135:
	endbr64
	movq	%rax, %rbp
	call	__cxa_end_catch@PLT
	movq	%rbp, %rdi
.LEHB5:
	call	_Unwind_Resume@PLT
.LEHE5:
.L133:
	endbr64
	movq	%rax, %rbp
	call	__cxa_end_catch@PLT
.L128:
	movq	8(%rbx), %rdi
	testq	%rdi, %rdi
	je	.L131
	call	_ZNSt16_Sp_counted_baseILN9__gnu_cxx12_Lock_policyE2EE10_M_releaseEv
.L131:
	movq	%rbp, %rdi
.LEHB6:
	call	_Unwind_Resume@PLT
.LEHE6:
	.cfi_endproc
.LFE10171:
	.section	.gcc_except_table
	.align 4
.LLSDAC10171:
	.byte	0xff
	.byte	0x9b
	.uleb128 .LLSDATTC10171-.LLSDATTDC10171
.LLSDATTDC10171:
	.byte	0x1
	.uleb128 .LLSDACSEC10171-.LLSDACSBC10171
.LLSDACSBC10171:
	.uleb128 .LEHB3-.LCOLDB2
	.uleb128 .LEHE3-.LEHB3
	.uleb128 .L135-.LCOLDB2
	.uleb128 0
	.uleb128 .LEHB4-.LCOLDB2
	.uleb128 .LEHE4-.LEHB4
	.uleb128 .L133-.LCOLDB2
	.uleb128 0
	.uleb128 .LEHB5-.LCOLDB2
	.uleb128 .LEHE5-.LEHB5
	.uleb128 0
	.uleb128 0
	.uleb128 .LEHB6-.LCOLDB2
	.uleb128 .LEHE6-.LEHB6
	.uleb128 0
	.uleb128 0
.LLSDACSEC10171:
	.byte	0x1
	.byte	0
	.align 4
	.long	0

.LLSDATTC10171:
	.section	.text.unlikely
	.text
	.size	_ZN7TextureC2EP11SDL_Texture, .-_ZN7TextureC2EP11SDL_Texture
	.section	.text.unlikely
	.size	_ZN7TextureC2EP11SDL_Texture.cold, .-_ZN7TextureC2EP11SDL_Texture.cold
.LCOLDE2:
	.text
.LHOTE2:
	.globl	_ZN7TextureC1EP11SDL_Texture
	.set	_ZN7TextureC1EP11SDL_Texture,_ZN7TextureC2EP11SDL_Texture
	.section	.text._ZNSt7__cxx1112basic_stringIcSt11char_traitsIcESaIcEE9_M_mutateEmmPKcm,"axG",@progbits,_ZNSt7__cxx1112basic_stringIcSt11char_traitsIcESaIcEE9_M_mutateEmmPKcm,comdat
	.align 2
	.p2align 4
	.weak	_ZNSt7__cxx1112basic_stringIcSt11char_traitsIcESaIcEE9_M_mutateEmmPKcm
	.type	_ZNSt7__cxx1112basic_stringIcSt11char_traitsIcESaIcEE9_M_mutateEmmPKcm, @function
_ZNSt7__cxx1112basic_stringIcSt11char_traitsIcESaIcEE9_M_mutateEmmPKcm:
.LFB10903:
	.cfi_startproc
	endbr64
	pushq	%r15
	.cfi_def_cfa_offset 16
	.cfi_offset 15, -16
	pushq	%r14
	.cfi_def_cfa_offset 24
	.cfi_offset 14, -24
	movq	%r8, %r14
	pushq	%r13
	.cfi_def_cfa_offset 32
	.cfi_offset 13, -32
	pushq	%r12
	.cfi_def_cfa_offset 40
	.cfi_offset 12, -40
	movq	%rsi, %r12
	addq	%rdx, %rsi
	pushq	%rbp
	.cfi_def_cfa_offset 48
	.cfi_offset 6, -48
	movq	%r8, %rbp
	pushq	%rbx
	.cfi_def_cfa_offset 56
	.cfi_offset 3, -56
	movq	%rdi, %rbx
	subq	%rdx, %rbp
	leaq	16(%rbx), %r13
	subq	$40, %rsp
	.cfi_def_cfa_offset 96
	movq	8(%rdi), %rax
	movq	%rsi, 24(%rsp)
	movq	%rax, %rdi
	addq	%rax, %rbp
	subq	%rsi, %rdi
	movq	%rdi, 8(%rsp)
	cmpq	(%rbx), %r13
	je	.L158
	movq	16(%rbx), %rax
.L146:
	testq	%rbp, %rbp
	js	.L172
	cmpq	%rax, %rbp
	jbe	.L148
	addq	%rax, %rax
	cmpq	%rax, %rbp
	jnb	.L148
	testq	%rax, %rax
	js	.L149
	movq	%rax, %rbp
	.p2align 4,,10
	.p2align 3
.L148:
	movq	%rbp, %rdi
	addq	$1, %rdi
	js	.L149
	movq	%rcx, 16(%rsp)
	call	_Znwm@PLT
	testq	%r12, %r12
	movq	16(%rsp), %rcx
	movq	%rax, %r15
	je	.L151
	movq	(%rbx), %rsi
	cmpq	$1, %r12
	je	.L173
	movq	%r12, %rdx
	movq	%rax, %rdi
	movq	%rcx, 16(%rsp)
	call	memcpy@PLT
	movq	16(%rsp), %rcx
.L151:
	testq	%rcx, %rcx
	je	.L153
	testq	%r14, %r14
	je	.L153
	leaq	(%r15,%r12), %rdi
	cmpq	$1, %r14
	je	.L174
	movq	%r14, %rdx
	movq	%rcx, %rsi
	call	memcpy@PLT
.L153:
	movq	8(%rsp), %rax
	movq	(%rbx), %r9
	testq	%rax, %rax
	je	.L155
.L176:
	movq	24(%rsp), %rsi
	leaq	(%r12,%r14), %r8
	leaq	(%r15,%r8), %rdi
	addq	%r9, %rsi
	cmpq	$1, %rax
	je	.L175
	movq	%rax, %rdx
	movq	%r9, 16(%rsp)
	call	memcpy@PLT
	movq	16(%rsp), %r9
.L155:
	cmpq	%r9, %r13
	je	.L157
.L177:
	movq	16(%rbx), %rax
	movq	%r9, %rdi
	leaq	1(%rax), %rsi
	call	_ZdlPvm@PLT
.L157:
	movq	%r15, (%rbx)
	movq	%rbp, 16(%rbx)
	addq	$40, %rsp
	.cfi_remember_state
	.cfi_def_cfa_offset 56
	popq	%rbx
	.cfi_def_cfa_offset 48
	popq	%rbp
	.cfi_def_cfa_offset 40
	popq	%r12
	.cfi_def_cfa_offset 32
	popq	%r13
	.cfi_def_cfa_offset 24
	popq	%r14
	.cfi_def_cfa_offset 16
	popq	%r15
	.cfi_def_cfa_offset 8
	ret
	.p2align 4,,10
	.p2align 3
.L149:
	.cfi_restore_state
	call	_ZSt17__throw_bad_allocv@PLT
	.p2align 4,,10
	.p2align 3
.L158:
	movl	$15, %eax
	jmp	.L146
	.p2align 4,,10
	.p2align 3
.L173:
	movzbl	(%rsi), %eax
	movb	%al, (%r15)
	jmp	.L151
	.p2align 4,,10
	.p2align 3
.L174:
	movzbl	(%rcx), %eax
	movq	(%rbx), %r9
	movb	%al, (%rdi)
	movq	8(%rsp), %rax
	testq	%rax, %rax
	je	.L155
	jmp	.L176
	.p2align 4,,10
	.p2align 3
.L175:
	movzbl	(%rsi), %eax
	movb	%al, (%rdi)
	cmpq	%r9, %r13
	jne	.L177
	jmp	.L157
.L172:
	leaq	.LC0(%rip), %rdi
	call	_ZSt20__throw_length_errorPKc@PLT
	.cfi_endproc
.LFE10903:
	.size	_ZNSt7__cxx1112basic_stringIcSt11char_traitsIcESaIcEE9_M_mutateEmmPKcm, .-_ZNSt7__cxx1112basic_stringIcSt11char_traitsIcESaIcEE9_M_mutateEmmPKcm
	.section	.rodata._ZStplIcSt11char_traitsIcESaIcEENSt7__cxx1112basic_stringIT_T0_T1_EEOS8_PKS5_.str1.1,"aMS",@progbits,1
.LC3:
	.string	"basic_string::append"
	.section	.text._ZStplIcSt11char_traitsIcESaIcEENSt7__cxx1112basic_stringIT_T0_T1_EEOS8_PKS5_,"axG",@progbits,_ZStplIcSt11char_traitsIcESaIcEENSt7__cxx1112basic_stringIT_T0_T1_EEOS8_PKS5_,comdat
	.p2align 4
	.weak	_ZStplIcSt11char_traitsIcESaIcEENSt7__cxx1112basic_stringIT_T0_T1_EEOS8_PKS5_
	.type	_ZStplIcSt11char_traitsIcESaIcEENSt7__cxx1112basic_stringIT_T0_T1_EEOS8_PKS5_, @function
_ZStplIcSt11char_traitsIcESaIcEENSt7__cxx1112basic_stringIT_T0_T1_EEOS8_PKS5_:
.LFB10566:
	.cfi_startproc
	endbr64
	pushq	%r14
	.cfi_def_cfa_offset 16
	.cfi_offset 14, -16
	pushq	%r13
	.cfi_def_cfa_offset 24
	.cfi_offset 13, -24
	movq	%rdx, %r13
	pushq	%r12
	.cfi_def_cfa_offset 32
	.cfi_offset 12, -32
	movq	%rdi, %r12
	movq	%rdx, %rdi
	pushq	%rbp
	.cfi_def_cfa_offset 40
	.cfi_offset 6, -40
	pushq	%rbx
	.cfi_def_cfa_offset 48
	.cfi_offset 3, -48
	movq	%rsi, %rbx
	call	strlen@PLT
	movq	8(%rbx), %rsi
	movq	%rax, %r8
	movabsq	$9223372036854775807, %rax
	subq	%rsi, %rax
	cmpq	%rax, %r8
	ja	.L191
	movq	(%rbx), %rdi
	leaq	16(%rbx), %rbp
	leaq	(%r8,%rsi), %r14
	cmpq	%rbp, %rdi
	je	.L186
	movq	16(%rbx), %rax
.L180:
	cmpq	%rax, %r14
	ja	.L181
	testq	%r8, %r8
	jne	.L192
.L182:
	leaq	16(%r12), %rax
	movq	%r14, 8(%rbx)
	movb	$0, (%rdi,%r14)
	movq	%rax, (%r12)
	movq	(%rbx), %rax
	cmpq	%rbp, %rax
	je	.L193
	movq	%rax, (%r12)
	movq	16(%rbx), %rax
	movq	%rax, 16(%r12)
.L185:
	movq	8(%rbx), %rax
	movq	%rbp, (%rbx)
	movq	$0, 8(%rbx)
	movq	%rax, 8(%r12)
	movq	%r12, %rax
	movb	$0, 16(%rbx)
	popq	%rbx
	.cfi_remember_state
	.cfi_def_cfa_offset 40
	popq	%rbp
	.cfi_def_cfa_offset 32
	popq	%r12
	.cfi_def_cfa_offset 24
	popq	%r13
	.cfi_def_cfa_offset 16
	popq	%r14
	.cfi_def_cfa_offset 8
	ret
	.p2align 4,,10
	.p2align 3
.L192:
	.cfi_restore_state
	addq	%rsi, %rdi
	cmpq	$1, %r8
	je	.L194
	movq	%r8, %rdx
	movq	%r13, %rsi
	call	memcpy@PLT
	movq	(%rbx), %rdi
	jmp	.L182
	.p2align 4,,10
	.p2align 3
.L181:
	movq	%rbx, %rdi
	movq	%r13, %rcx
	xorl	%edx, %edx
	call	_ZNSt7__cxx1112basic_stringIcSt11char_traitsIcESaIcEE9_M_mutateEmmPKcm
	movq	(%rbx), %rdi
	jmp	.L182
	.p2align 4,,10
	.p2align 3
.L193:
	movdqu	16(%rbx), %xmm0
	movups	%xmm0, 16(%r12)
	jmp	.L185
	.p2align 4,,10
	.p2align 3
.L186:
	movl	$15, %eax
	jmp	.L180
	.p2align 4,,10
	.p2align 3
.L194:
	movzbl	0(%r13), %eax
	movb	%al, (%rdi)
	movq	(%rbx), %rdi
	jmp	.L182
.L191:
	leaq	.LC3(%rip), %rdi
	call	_ZSt20__throw_length_errorPKc@PLT
	.cfi_endproc
.LFE10566:
	.size	_ZStplIcSt11char_traitsIcESaIcEENSt7__cxx1112basic_stringIT_T0_T1_EEOS8_PKS5_, .-_ZStplIcSt11char_traitsIcESaIcEENSt7__cxx1112basic_stringIT_T0_T1_EEOS8_PKS5_
	.section	.text._ZStplIcSt11char_traitsIcESaIcEENSt7__cxx1112basic_stringIT_T0_T1_EEPKS5_RKS8_,"axG",@progbits,_ZStplIcSt11char_traitsIcESaIcEENSt7__cxx1112basic_stringIT_T0_T1_EEPKS5_RKS8_,comdat
	.p2align 4
	.weak	_ZStplIcSt11char_traitsIcESaIcEENSt7__cxx1112basic_stringIT_T0_T1_EEPKS5_RKS8_
	.type	_ZStplIcSt11char_traitsIcESaIcEENSt7__cxx1112basic_stringIT_T0_T1_EEPKS5_RKS8_, @function
_ZStplIcSt11char_traitsIcESaIcEENSt7__cxx1112basic_stringIT_T0_T1_EEPKS5_RKS8_:
.LFB10565:
	.cfi_startproc
	.cfi_personality 0x9b,DW.ref.__gxx_personality_v0
	.cfi_lsda 0x1b,.LLSDA10565
	endbr64
	pushq	%r15
	.cfi_def_cfa_offset 16
	.cfi_offset 15, -16
	pushq	%r14
	.cfi_def_cfa_offset 24
	.cfi_offset 14, -24
	movq	%rsi, %r14
	pushq	%r13
	.cfi_def_cfa_offset 32
	.cfi_offset 13, -32
	pushq	%r12
	.cfi_def_cfa_offset 40
	.cfi_offset 12, -40
	movq	%rdi, %r12
	movq	%rsi, %rdi
	pushq	%rbp
	.cfi_def_cfa_offset 48
	.cfi_offset 6, -48
	leaq	16(%r12), %rbp
	pushq	%rbx
	.cfi_def_cfa_offset 56
	.cfi_offset 3, -56
	movq	%rdx, %rbx
	subq	$24, %rsp
	.cfi_def_cfa_offset 80
	call	strlen@PLT
	movb	$0, 16(%r12)
	movq	$0, 8(%r12)
	movq	8(%rbx), %r15
	movq	%rax, %r13
	movq	%rbp, (%r12)
	addq	%rax, %r15
	cmpq	$15, %r15
	ja	.L231
	movq	%rax, %r15
	movq	%rbp, %rcx
	xorl	%r9d, %r9d
	movl	$15, %eax
.L196:
	cmpq	%r15, %rax
	jb	.L203
	.p2align 4,,10
	.p2align 3
.L241:
	testq	%r13, %r13
	jne	.L232
.L204:
	movq	%r15, 8(%r12)
	movb	$0, (%rcx,%r15)
	movq	8(%rbx), %r8
	movq	8(%r12), %rsi
	movq	(%r12), %rdi
	movq	(%rbx), %rcx
	leaq	(%r8,%rsi), %rbx
	cmpq	%rdi, %rbp
	je	.L217
	movq	16(%r12), %rax
.L206:
	cmpq	%rax, %rbx
	ja	.L207
	testq	%r8, %r8
	je	.L208
	addq	%rsi, %rdi
	cmpq	$1, %r8
	je	.L233
	movq	%r8, %rdx
	movq	%rcx, %rsi
	call	memcpy@PLT
	movq	(%r12), %rdi
.L208:
	movq	%rbx, 8(%r12)
	movq	%r12, %rax
	movb	$0, (%rdi,%rbx)
	addq	$24, %rsp
	.cfi_remember_state
	.cfi_def_cfa_offset 56
	popq	%rbx
	.cfi_def_cfa_offset 48
	popq	%rbp
	.cfi_def_cfa_offset 40
	popq	%r12
	.cfi_def_cfa_offset 32
	popq	%r13
	.cfi_def_cfa_offset 24
	popq	%r14
	.cfi_def_cfa_offset 16
	popq	%r15
	.cfi_def_cfa_offset 8
	ret
	.p2align 4,,10
	.p2align 3
.L232:
	.cfi_restore_state
	leaq	(%rcx,%r9), %rdi
	cmpq	$1, %r13
	je	.L234
	movq	%r13, %rdx
	movq	%r14, %rsi
	call	memcpy@PLT
	movq	(%r12), %rcx
	jmp	.L204
	.p2align 4,,10
	.p2align 3
.L231:
	testq	%r15, %r15
	js	.L235
	cmpq	$29, %r15
	jbe	.L215
	movq	%r15, %rdi
	addq	$1, %rdi
	js	.L236
.L198:
.LEHB7:
	call	_Znwm@PLT
	movq	8(%r12), %r9
	movq	(%r12), %r8
	movq	%rax, %rcx
	leaq	1(%r9), %rdx
	testq	%r9, %r9
	je	.L237
	testq	%rdx, %rdx
	jne	.L238
	cmpq	%r8, %rbp
	je	.L239
.L212:
	movq	16(%r12), %rax
	movq	%r8, %rdi
	movq	%rcx, (%rsp)
	leaq	1(%rax), %rsi
	call	_ZdlPvm@PLT
	movq	8(%r12), %r9
	movq	(%rsp), %rcx
.L201:
	movabsq	$9223372036854775807, %rax
	movq	%rcx, (%r12)
	subq	%r9, %rax
	movq	%r15, 16(%r12)
	cmpq	%rax, %r13
	ja	.L240
.L202:
	leaq	0(%r13,%r9), %r15
	cmpq	%rcx, %rbp
	je	.L216
	movq	16(%r12), %rax
	cmpq	%r15, %rax
	jnb	.L241
.L203:
	movq	%r13, %r8
	movq	%r14, %rcx
	xorl	%edx, %edx
	movq	%r9, %rsi
	movq	%r12, %rdi
	call	_ZNSt7__cxx1112basic_stringIcSt11char_traitsIcESaIcEE9_M_mutateEmmPKcm
	movq	(%r12), %rcx
	jmp	.L204
	.p2align 4,,10
	.p2align 3
.L207:
	xorl	%edx, %edx
	movq	%r12, %rdi
	call	_ZNSt7__cxx1112basic_stringIcSt11char_traitsIcESaIcEE9_M_mutateEmmPKcm
	movq	(%r12), %rdi
	jmp	.L208
	.p2align 4,,10
	.p2align 3
.L238:
	movq	%r8, %rsi
	movq	%rax, %rdi
	movq	%r9, 8(%rsp)
	movq	%r8, (%rsp)
	call	memcpy@PLT
	movq	(%rsp), %r8
	movq	8(%rsp), %r9
	movq	%rax, %rcx
	cmpq	%r8, %rbp
	jne	.L212
	jmp	.L201
	.p2align 4,,10
	.p2align 3
.L239:
	movq	%rcx, (%r12)
	movq	%r15, 16(%r12)
	jmp	.L202
	.p2align 4,,10
	.p2align 3
.L215:
	movl	$30, %r15d
	movl	$31, %edi
	jmp	.L198
	.p2align 4,,10
	.p2align 3
.L217:
	movl	$15, %eax
	jmp	.L206
	.p2align 4,,10
	.p2align 3
.L237:
	movzbl	(%r8), %eax
	movb	%al, (%rcx)
	cmpq	%r8, %rbp
	jne	.L212
	jmp	.L239
	.p2align 4,,10
	.p2align 3
.L234:
	movzbl	(%r14), %eax
	movb	%al, (%rdi)
	movq	(%r12), %rcx
	jmp	.L204
	.p2align 4,,10
	.p2align 3
.L233:
	movzbl	(%rcx), %eax
	movb	%al, (%rdi)
	movq	(%r12), %rdi
	jmp	.L208
	.p2align 4,,10
	.p2align 3
.L236:
	call	_ZSt17__throw_bad_allocv@PLT
.L240:
	leaq	.LC3(%rip), %rdi
	call	_ZSt20__throw_length_errorPKc@PLT
.L235:
	leaq	.LC0(%rip), %rdi
	call	_ZSt20__throw_length_errorPKc@PLT
.LEHE7:
.L216:
	movl	$15, %eax
	jmp	.L196
.L218:
	endbr64
	movq	%rax, %r13
.L210:
	movq	(%r12), %rdi
	cmpq	%rdi, %rbp
	je	.L211
	movq	16(%r12), %rsi
	addq	$1, %rsi
	call	_ZdlPvm@PLT
.L211:
	movq	%r13, %rdi
.LEHB8:
	call	_Unwind_Resume@PLT
.LEHE8:
	.cfi_endproc
.LFE10565:
	.section	.gcc_except_table
.LLSDA10565:
	.byte	0xff
	.byte	0xff
	.byte	0x1
	.uleb128 .LLSDACSE10565-.LLSDACSB10565
.LLSDACSB10565:
	.uleb128 .LEHB7-.LFB10565
	.uleb128 .LEHE7-.LEHB7
	.uleb128 .L218-.LFB10565
	.uleb128 0
	.uleb128 .LEHB8-.LFB10565
	.uleb128 .LEHE8-.LEHB8
	.uleb128 0
	.uleb128 0
.LLSDACSE10565:
	.section	.text._ZStplIcSt11char_traitsIcESaIcEENSt7__cxx1112basic_stringIT_T0_T1_EEPKS5_RKS8_,"axG",@progbits,_ZStplIcSt11char_traitsIcESaIcEENSt7__cxx1112basic_stringIT_T0_T1_EEPKS5_RKS8_,comdat
	.size	_ZStplIcSt11char_traitsIcESaIcEENSt7__cxx1112basic_stringIT_T0_T1_EEPKS5_RKS8_, .-_ZStplIcSt11char_traitsIcESaIcEENSt7__cxx1112basic_stringIT_T0_T1_EEPKS5_RKS8_
	.section	.rodata.str1.1,"aMS",@progbits,1
.LC4:
	.string	"Failed to load image \""
.LC5:
	.string	"\""
.LC6:
	.string	"Failed to load texture \""
	.section	.text.unlikely
	.align 2
.LCOLDB7:
	.text
.LHOTB7:
	.align 2
	.p2align 4
	.globl	_ZN7Texture10load_imageERKNSt7__cxx1112basic_stringIcSt11char_traitsIcESaIcEEEP12SDL_Renderer
	.type	_ZN7Texture10load_imageERKNSt7__cxx1112basic_stringIcSt11char_traitsIcESaIcEEEP12SDL_Renderer, @function
_ZN7Texture10load_imageERKNSt7__cxx1112basic_stringIcSt11char_traitsIcESaIcEEEP12SDL_Renderer:
.LFB10155:
	.cfi_startproc
	.cfi_personality 0x9b,DW.ref.__gxx_personality_v0
	.cfi_lsda 0x1b,.LLSDA10155
	endbr64
	pushq	%r14
	.cfi_def_cfa_offset 16
	.cfi_offset 14, -16
	pushq	%r13
	.cfi_def_cfa_offset 24
	.cfi_offset 13, -24
	movq	%rsi, %r13
	pushq	%r12
	.cfi_def_cfa_offset 32
	.cfi_offset 12, -32
	movq	%rdx, %r12
	pushq	%rbp
	.cfi_def_cfa_offset 40
	.cfi_offset 6, -40
	pushq	%rbx
	.cfi_def_cfa_offset 48
	.cfi_offset 3, -48
	movq	%rdi, %rbx
	subq	$80, %rsp
	.cfi_def_cfa_offset 128
	movq	(%rsi), %rdi
	movq	%fs:40, %rax
	movq	%rax, 72(%rsp)
	xorl	%eax, %eax
.LEHB9:
	call	IMG_Load@PLT
	testq	%rax, %rax
	je	.L289
	movq	%r12, %rdi
	movq	%rax, %rsi
	movq	%rax, %rbp
	call	SDL_CreateTextureFromSurface@PLT
.LEHE9:
	movq	%rax, %r12
	testq	%rax, %rax
	je	.L290
	movl	$32, %edi
.LEHB10:
	call	_Znwm@PLT
.LEHE10:
	movq	.LC1(%rip), %r13
	movq	SDL_FreeSurface@GOTPCREL(%rip), %rdx
	movq	%rbp, %xmm0
	movq	%rax, %xmm1
	movq	24(%rbx), %r14
	leaq	16+_ZTVSt19_Sp_counted_deleterIP11SDL_SurfacePFvS1_ESaIvELN9__gnu_cxx12_Lock_policyE2EE(%rip), %rcx
	punpcklqdq	%xmm1, %xmm0
	movq	%rbp, 24(%rax)
	movq	%r13, 8(%rax)
	movq	%rcx, (%rax)
	movq	%rdx, 16(%rax)
	movups	%xmm0, 16(%rbx)
	testq	%r14, %r14
	je	.L250
	cmpb	$0, __libc_single_threaded(%rip)
	je	.L253
	movl	8(%r14), %eax
	leal	-1(%rax), %edx
	movl	%edx, 8(%r14)
.L254:
	cmpl	$1, %eax
	je	.L305
.L250:
	movl	$32, %edi
.LEHB11:
	call	_Znwm@PLT
.LEHE11:
	movq	SDL_DestroyTexture@GOTPCREL(%rip), %rdx
	movq	8(%rbx), %rbp
	movq	%r13, 8(%rax)
	movq	%r12, %xmm0
	movq	%rax, %xmm2
	leaq	16+_ZTVSt19_Sp_counted_deleterIP11SDL_TexturePFvS1_ESaIvELN9__gnu_cxx12_Lock_policyE2EE(%rip), %rcx
	movq	%r12, 24(%rax)
	punpcklqdq	%xmm2, %xmm0
	movq	%rcx, (%rax)
	movq	%rdx, 16(%rax)
	movups	%xmm0, (%rbx)
	testq	%rbp, %rbp
	je	.L242
	cmpb	$0, __libc_single_threaded(%rip)
	je	.L262
	movl	8(%rbp), %eax
	leal	-1(%rax), %edx
	movl	%edx, 8(%rbp)
.L263:
	cmpl	$1, %eax
	je	.L306
.L242:
	movq	72(%rsp), %rax
	subq	%fs:40, %rax
	jne	.L292
	addq	$80, %rsp
	.cfi_remember_state
	.cfi_def_cfa_offset 48
	popq	%rbx
	.cfi_def_cfa_offset 40
	popq	%rbp
	.cfi_def_cfa_offset 32
	popq	%r12
	.cfi_def_cfa_offset 24
	popq	%r13
	.cfi_def_cfa_offset 16
	popq	%r14
	.cfi_def_cfa_offset 8
	ret
	.p2align 4,,10
	.p2align 3
.L305:
	.cfi_restore_state
	movq	(%r14), %rax
	movq	%r14, %rdi
	call	*16(%rax)
	cmpb	$0, __libc_single_threaded(%rip)
	je	.L256
	movl	12(%r14), %eax
	leal	-1(%rax), %edx
	movl	%edx, 12(%r14)
.L257:
	cmpl	$1, %eax
	jne	.L250
	movq	(%r14), %rax
	movq	%r14, %rdi
	call	*24(%rax)
	jmp	.L250
	.p2align 4,,10
	.p2align 3
.L253:
	movl	$-1, %eax
	lock xaddl	%eax, 8(%r14)
	jmp	.L254
	.p2align 4,,10
	.p2align 3
.L306:
	movq	0(%rbp), %rax
	movq	%rbp, %rdi
	call	*16(%rax)
	cmpb	$0, __libc_single_threaded(%rip)
	je	.L265
	movl	12(%rbp), %eax
	leal	-1(%rax), %edx
	movl	%edx, 12(%rbp)
.L266:
	cmpl	$1, %eax
	jne	.L242
	movq	72(%rsp), %rax
	subq	%fs:40, %rax
	jne	.L292
	movq	0(%rbp), %rax
	movq	%rbp, %rdi
	movq	24(%rax), %rax
	addq	$80, %rsp
	.cfi_remember_state
	.cfi_def_cfa_offset 48
	popq	%rbx
	.cfi_def_cfa_offset 40
	popq	%rbp
	.cfi_def_cfa_offset 32
	popq	%r12
	.cfi_def_cfa_offset 24
	popq	%r13
	.cfi_def_cfa_offset 16
	popq	%r14
	.cfi_def_cfa_offset 8
	jmp	*%rax
	.p2align 4,,10
	.p2align 3
.L262:
	.cfi_restore_state
	movl	$-1, %eax
	lock xaddl	%eax, 8(%rbp)
	jmp	.L263
	.p2align 4,,10
	.p2align 3
.L256:
	movl	$-1, %eax
	lock xaddl	%eax, 12(%r14)
	jmp	.L257
	.p2align 4,,10
	.p2align 3
.L265:
	movl	$-1, %eax
	lock xaddl	%eax, 12(%rbp)
	jmp	.L266
.L292:
	call	__stack_chk_fail@PLT
.L288:
	endbr64
	movq	%rax, %rdi
	jmp	.L260
.L286:
	endbr64
	movq	%rax, %rdi
	jmp	.L251
	.section	.gcc_except_table
	.align 4
.LLSDA10155:
	.byte	0xff
	.byte	0x9b
	.uleb128 .LLSDATT10155-.LLSDATTD10155
.LLSDATTD10155:
	.byte	0x1
	.uleb128 .LLSDACSE10155-.LLSDACSB10155
.LLSDACSB10155:
	.uleb128 .LEHB9-.LFB10155
	.uleb128 .LEHE9-.LEHB9
	.uleb128 0
	.uleb128 0
	.uleb128 .LEHB10-.LFB10155
	.uleb128 .LEHE10-.LEHB10
	.uleb128 .L286-.LFB10155
	.uleb128 0x1
	.uleb128 .LEHB11-.LFB10155
	.uleb128 .LEHE11-.LEHB11
	.uleb128 .L288-.LFB10155
	.uleb128 0x1
.LLSDACSE10155:
	.byte	0x1
	.byte	0
	.align 4
	.long	0

.LLSDATT10155:
	.text
	.cfi_endproc
	.section	.text.unlikely
	.cfi_startproc
	.cfi_personality 0x9b,DW.ref.__gxx_personality_v0
	.cfi_lsda 0x1b,.LLSDAC10155
	.type	_ZN7Texture10load_imageERKNSt7__cxx1112basic_stringIcSt11char_traitsIcESaIcEEEP12SDL_Renderer.cold, @function
_ZN7Texture10load_imageERKNSt7__cxx1112basic_stringIcSt11char_traitsIcESaIcEEEP12SDL_Renderer.cold:
.LFSB10155:
.L290:
	.cfi_def_cfa_offset 128
	.cfi_offset 3, -48
	.cfi_offset 6, -40
	.cfi_offset 12, -32
	.cfi_offset 13, -24
	.cfi_offset 14, -16
	movl	$16, %edi
	movq	%rsp, %r14
	call	__cxa_allocate_exception@PLT
	movq	%r13, %rdx
	leaq	.LC6(%rip), %rsi
	movq	%r14, %rdi
	movq	%rax, %rbp
.LEHB12:
	call	_ZStplIcSt11char_traitsIcESaIcEENSt7__cxx1112basic_stringIT_T0_T1_EEPKS5_RKS8_
.LEHE12:
	leaq	32(%rsp), %r12
	leaq	.LC5(%rip), %rdx
	movq	%r14, %rsi
	movq	%r12, %rdi
.LEHB13:
	call	_ZStplIcSt11char_traitsIcESaIcEENSt7__cxx1112basic_stringIT_T0_T1_EEOS8_PKS5_
.LEHE13:
	movq	%r12, %rsi
	movq	%rbp, %rdi
.LEHB14:
	call	_ZNSt13runtime_errorC1ERKNSt7__cxx1112basic_stringIcSt11char_traitsIcESaIcEEE@PLT
.LEHE14:
.L302:
	movq	32(%rsp), %rdi
	leaq	48(%rsp), %rax
	cmpq	%rax, %rdi
	je	.L247
	movq	48(%rsp), %rax
	leaq	1(%rax), %rsi
	call	_ZdlPvm@PLT
.L247:
	movq	(%rsp), %rdi
	leaq	16(%rsp), %rax
	cmpq	%rax, %rdi
	je	.L248
	movq	16(%rsp), %rax
	leaq	1(%rax), %rsi
	call	_ZdlPvm@PLT
.L248:
	movq	_ZNSt13runtime_errorD1Ev@GOTPCREL(%rip), %rdx
	leaq	_ZTISt13runtime_error(%rip), %rsi
	movq	%rbp, %rdi
.LEHB15:
	call	__cxa_throw@PLT
.LEHE15:
.L260:
	call	__cxa_begin_catch@PLT
	movq	%r12, %rdi
.LEHB16:
	call	SDL_DestroyTexture@PLT
	call	__cxa_rethrow@PLT
.LEHE16:
.L287:
	endbr64
	movq	%rax, %rbp
	call	__cxa_end_catch@PLT
	movq	%rbp, %rdi
.LEHB17:
	call	_Unwind_Resume@PLT
.L284:
	endbr64
.L304:
	movq	32(%rsp), %rdi
	movq	%rax, %rbx
	leaq	48(%rsp), %rax
	cmpq	%rax, %rdi
	je	.L275
	movq	48(%rsp), %rax
	leaq	1(%rax), %rsi
	call	_ZdlPvm@PLT
.L275:
	movq	(%rsp), %rdi
	leaq	16(%rsp), %rax
	cmpq	%rax, %rdi
	je	.L277
	movq	16(%rsp), %rax
	leaq	1(%rax), %rsi
	call	_ZdlPvm@PLT
.L277:
	movq	%rbp, %rdi
	call	__cxa_free_exception@PLT
	movq	%rbx, %rdi
	call	_Unwind_Resume@PLT
.LEHE17:
.L283:
	endbr64
.L299:
	movq	%rax, %rbx
	jmp	.L275
.L289:
	movl	$16, %edi
	movq	%rsp, %r14
	call	__cxa_allocate_exception@PLT
	movq	%r13, %rdx
	leaq	.LC4(%rip), %rsi
	movq	%r14, %rdi
	movq	%rax, %rbp
.LEHB18:
	call	_ZStplIcSt11char_traitsIcESaIcEENSt7__cxx1112basic_stringIT_T0_T1_EEPKS5_RKS8_
.LEHE18:
	leaq	32(%rsp), %r12
	leaq	.LC5(%rip), %rdx
	movq	%r14, %rsi
	movq	%r12, %rdi
.LEHB19:
	call	_ZStplIcSt11char_traitsIcESaIcEENSt7__cxx1112basic_stringIT_T0_T1_EEOS8_PKS5_
.LEHE19:
	movq	%r12, %rsi
	movq	%rbp, %rdi
.LEHB20:
	call	_ZNSt13runtime_errorC1ERKNSt7__cxx1112basic_stringIcSt11char_traitsIcESaIcEEE@PLT
.LEHE20:
	jmp	.L302
.L282:
	endbr64
.L294:
	movq	%rax, %rbx
	jmp	.L277
.L251:
	call	__cxa_begin_catch@PLT
	movq	%rbp, %rdi
.LEHB21:
	call	SDL_FreeSurface@PLT
	call	__cxa_rethrow@PLT
.LEHE21:
.L285:
	endbr64
	movq	%rax, %rbp
	call	__cxa_end_catch@PLT
	movq	%rbp, %rdi
.LEHB22:
	call	_Unwind_Resume@PLT
.LEHE22:
.L281:
	endbr64
	jmp	.L304
.L280:
	endbr64
	jmp	.L299
.L279:
	endbr64
	jmp	.L294
	.cfi_endproc
.LFE10155:
	.section	.gcc_except_table
	.align 4
.LLSDAC10155:
	.byte	0xff
	.byte	0x9b
	.uleb128 .LLSDATTC10155-.LLSDATTDC10155
.LLSDATTDC10155:
	.byte	0x1
	.uleb128 .LLSDACSEC10155-.LLSDACSBC10155
.LLSDACSBC10155:
	.uleb128 .LEHB12-.LCOLDB7
	.uleb128 .LEHE12-.LEHB12
	.uleb128 .L282-.LCOLDB7
	.uleb128 0
	.uleb128 .LEHB13-.LCOLDB7
	.uleb128 .LEHE13-.LEHB13
	.uleb128 .L283-.LCOLDB7
	.uleb128 0
	.uleb128 .LEHB14-.LCOLDB7
	.uleb128 .LEHE14-.LEHB14
	.uleb128 .L284-.LCOLDB7
	.uleb128 0
	.uleb128 .LEHB15-.LCOLDB7
	.uleb128 .LEHE15-.LEHB15
	.uleb128 0
	.uleb128 0
	.uleb128 .LEHB16-.LCOLDB7
	.uleb128 .LEHE16-.LEHB16
	.uleb128 .L287-.LCOLDB7
	.uleb128 0
	.uleb128 .LEHB17-.LCOLDB7
	.uleb128 .LEHE17-.LEHB17
	.uleb128 0
	.uleb128 0
	.uleb128 .LEHB18-.LCOLDB7
	.uleb128 .LEHE18-.LEHB18
	.uleb128 .L279-.LCOLDB7
	.uleb128 0
	.uleb128 .LEHB19-.LCOLDB7
	.uleb128 .LEHE19-.LEHB19
	.uleb128 .L280-.LCOLDB7
	.uleb128 0
	.uleb128 .LEHB20-.LCOLDB7
	.uleb128 .LEHE20-.LEHB20
	.uleb128 .L281-.LCOLDB7
	.uleb128 0
	.uleb128 .LEHB21-.LCOLDB7
	.uleb128 .LEHE21-.LEHB21
	.uleb128 .L285-.LCOLDB7
	.uleb128 0
	.uleb128 .LEHB22-.LCOLDB7
	.uleb128 .LEHE22-.LEHB22
	.uleb128 0
	.uleb128 0
.LLSDACSEC10155:
	.byte	0x1
	.byte	0
	.align 4
	.long	0

.LLSDATTC10155:
	.section	.text.unlikely
	.text
	.size	_ZN7Texture10load_imageERKNSt7__cxx1112basic_stringIcSt11char_traitsIcESaIcEEEP12SDL_Renderer, .-_ZN7Texture10load_imageERKNSt7__cxx1112basic_stringIcSt11char_traitsIcESaIcEEEP12SDL_Renderer
	.section	.text.unlikely
	.size	_ZN7Texture10load_imageERKNSt7__cxx1112basic_stringIcSt11char_traitsIcESaIcEEEP12SDL_Renderer.cold, .-_ZN7Texture10load_imageERKNSt7__cxx1112basic_stringIcSt11char_traitsIcESaIcEEEP12SDL_Renderer.cold
.LCOLDE7:
	.text
.LHOTE7:
	.align 2
	.p2align 4
	.globl	_ZN7Texture4loadERKNSt7__cxx1112basic_stringIcSt11char_traitsIcESaIcEEEP12SDL_Renderer
	.type	_ZN7Texture4loadERKNSt7__cxx1112basic_stringIcSt11char_traitsIcESaIcEEEP12SDL_Renderer, @function
_ZN7Texture4loadERKNSt7__cxx1112basic_stringIcSt11char_traitsIcESaIcEEEP12SDL_Renderer:
.LFB10193:
	.cfi_startproc
	endbr64
	pushq	%rbx
	.cfi_def_cfa_offset 16
	.cfi_offset 3, -16
	movq	%rdi, %rbx
	call	_ZN7Texture10load_imageERKNSt7__cxx1112basic_stringIcSt11char_traitsIcESaIcEEEP12SDL_Renderer
	movq	(%rbx), %rdi
	leaq	32(%rbx), %rcx
	leaq	36(%rbx), %r8
	xorl	%edx, %edx
	xorl	%esi, %esi
	popq	%rbx
	.cfi_def_cfa_offset 8
	jmp	SDL_QueryTexture@PLT
	.cfi_endproc
.LFE10193:
	.size	_ZN7Texture4loadERKNSt7__cxx1112basic_stringIcSt11char_traitsIcESaIcEEEP12SDL_Renderer, .-_ZN7Texture4loadERKNSt7__cxx1112basic_stringIcSt11char_traitsIcESaIcEEEP12SDL_Renderer
	.section	.rodata._ZNSt7__cxx1112basic_stringIcSt11char_traitsIcESaIcEE10_M_replaceEmmPKcm.str1.1,"aMS",@progbits,1
.LC8:
	.string	"basic_string::_M_replace"
	.section	.text._ZNSt7__cxx1112basic_stringIcSt11char_traitsIcESaIcEE10_M_replaceEmmPKcm,"axG",@progbits,_ZNSt7__cxx1112basic_stringIcSt11char_traitsIcESaIcEE10_M_replaceEmmPKcm,comdat
	.align 2
	.p2align 4
	.weak	_ZNSt7__cxx1112basic_stringIcSt11char_traitsIcESaIcEE10_M_replaceEmmPKcm
	.type	_ZNSt7__cxx1112basic_stringIcSt11char_traitsIcESaIcEE10_M_replaceEmmPKcm, @function
_ZNSt7__cxx1112basic_stringIcSt11char_traitsIcESaIcEE10_M_replaceEmmPKcm:
.LFB10904:
	.cfi_startproc
	endbr64
	movabsq	$9223372036854775807, %rax
	pushq	%r15
	.cfi_def_cfa_offset 16
	.cfi_offset 15, -16
	pushq	%r14
	.cfi_def_cfa_offset 24
	.cfi_offset 14, -24
	pushq	%r13
	.cfi_def_cfa_offset 32
	.cfi_offset 13, -32
	movq	%rdx, %r13
	pushq	%r12
	.cfi_def_cfa_offset 40
	.cfi_offset 12, -40
	addq	%r13, %rax
	pushq	%rbp
	.cfi_def_cfa_offset 48
	.cfi_offset 6, -48
	pushq	%rbx
	.cfi_def_cfa_offset 56
	.cfi_offset 3, -56
	subq	$24, %rsp
	.cfi_def_cfa_offset 80
	movq	8(%rdi), %rdx
	subq	%rdx, %rax
	cmpq	%rax, %r8
	ja	.L353
	movq	%r8, %rbp
	movq	(%rdi), %rax
	movq	%rcx, %r15
	leaq	16(%rdi), %rcx
	subq	%r13, %rbp
	movq	%rdi, %r12
	movq	%r8, %r14
	leaq	(%rdx,%rbp), %rbx
	cmpq	%rcx, %rax
	je	.L332
	movq	16(%rdi), %rcx
.L311:
	cmpq	%rbx, %rcx
	jb	.L312
	leaq	(%rax,%rsi), %r8
	movq	%rdx, %r9
	addq	%r13, %rsi
	subq	%rsi, %r9
	cmpq	%r15, %rax
	jbe	.L354
.L313:
	testq	%r9, %r9
	je	.L316
	cmpq	%r14, %r13
	je	.L316
	leaq	(%r8,%r13), %rsi
	leaq	(%r8,%r14), %rdi
	cmpq	$1, %r9
	je	.L355
	movq	%r9, %rdx
	movq	%r8, 8(%rsp)
	call	memmove@PLT
	movq	8(%rsp), %r8
.L316:
	testq	%r14, %r14
	je	.L319
	cmpq	$1, %r14
	je	.L352
	movq	%r14, %rdx
	movq	%r15, %rsi
	movq	%r8, %rdi
	call	memcpy@PLT
.L319:
	movq	(%r12), %rax
	movq	%rbx, 8(%r12)
	movb	$0, (%rax,%rbx)
	addq	$24, %rsp
	.cfi_remember_state
	.cfi_def_cfa_offset 56
	movq	%r12, %rax
	popq	%rbx
	.cfi_def_cfa_offset 48
	popq	%rbp
	.cfi_def_cfa_offset 40
	popq	%r12
	.cfi_def_cfa_offset 32
	popq	%r13
	.cfi_def_cfa_offset 24
	popq	%r14
	.cfi_def_cfa_offset 16
	popq	%r15
	.cfi_def_cfa_offset 8
	ret
	.p2align 4,,10
	.p2align 3
.L354:
	.cfi_restore_state
	addq	%rdx, %rax
	cmpq	%rax, %r15
	ja	.L313
	leaq	-1(%r14), %rax
	cmpq	%rax, %r13
	jbe	.L315
	cmpq	$1, %r14
	je	.L356
	movq	%r8, %rdi
	movq	%r14, %rdx
	movq	%r15, %rsi
	movq	%r9, 8(%rsp)
	call	memmove@PLT
	movq	8(%rsp), %r9
	movq	%rax, %r8
.L315:
	testq	%r9, %r9
	je	.L322
	cmpq	%r14, %r13
	je	.L322
	leaq	(%r8,%r13), %rsi
	leaq	(%r8,%r14), %rdi
	cmpq	$1, %r9
	je	.L357
	movq	%r9, %rdx
	movq	%r8, 8(%rsp)
	call	memmove@PLT
	movq	8(%rsp), %r8
.L322:
	cmpq	%r14, %r13
	jnb	.L319
	addq	%r8, %r13
	leaq	(%r15,%r14), %rax
	cmpq	%rax, %r13
	jnb	.L358
	cmpq	%r15, %r13
	ja	.L327
	leaq	(%r15,%rbp), %rsi
	cmpq	$1, %r14
	je	.L359
	movq	%r14, %rdx
	movq	%r8, %rdi
	call	memcpy@PLT
	jmp	.L319
	.p2align 4,,10
	.p2align 3
.L312:
	movq	%r14, %r8
	movq	%r15, %rcx
	movq	%r13, %rdx
	movq	%r12, %rdi
	call	_ZNSt7__cxx1112basic_stringIcSt11char_traitsIcESaIcEE9_M_mutateEmmPKcm
	jmp	.L319
	.p2align 4,,10
	.p2align 3
.L352:
	movzbl	(%r15), %eax
	movb	%al, (%r8)
	jmp	.L319
	.p2align 4,,10
	.p2align 3
.L355:
	movzbl	(%rsi), %eax
	movb	%al, (%rdi)
	jmp	.L316
	.p2align 4,,10
	.p2align 3
.L332:
	movl	$15, %ecx
	jmp	.L311
	.p2align 4,,10
	.p2align 3
.L358:
	cmpq	$1, %r14
	je	.L352
	movq	%r14, %rdx
	movq	%r15, %rsi
	movq	%r8, %rdi
	call	memmove@PLT
	jmp	.L319
	.p2align 4,,10
	.p2align 3
.L357:
	movzbl	(%rsi), %eax
	movb	%al, (%rdi)
	jmp	.L322
	.p2align 4,,10
	.p2align 3
.L356:
	movzbl	(%r15), %eax
	movb	%al, (%r8)
	jmp	.L315
	.p2align 4,,10
	.p2align 3
.L327:
	subq	%r15, %r13
	cmpq	$1, %r13
	je	.L360
	testq	%r13, %r13
	je	.L330
	movq	%r8, %rdi
	movq	%r13, %rdx
	movq	%r15, %rsi
	call	memmove@PLT
	movq	%rax, %r8
.L330:
	movq	%r14, %rdx
	leaq	(%r8,%r14), %rsi
	leaq	(%r8,%r13), %rdi
	subq	%r13, %rdx
	cmpq	$1, %rdx
	je	.L361
	testq	%rdx, %rdx
	je	.L319
	call	memcpy@PLT
	jmp	.L319
.L360:
	movzbl	(%r15), %eax
	movb	%al, (%r8)
	jmp	.L330
.L361:
	movzbl	(%rsi), %eax
	movb	%al, (%rdi)
	jmp	.L319
.L359:
	movzbl	(%rsi), %eax
	movb	%al, (%r8)
	jmp	.L319
.L353:
	leaq	.LC8(%rip), %rdi
	call	_ZSt20__throw_length_errorPKc@PLT
	.cfi_endproc
.LFE10904:
	.size	_ZNSt7__cxx1112basic_stringIcSt11char_traitsIcESaIcEE10_M_replaceEmmPKcm, .-_ZNSt7__cxx1112basic_stringIcSt11char_traitsIcESaIcEE10_M_replaceEmmPKcm
	.section	.rodata.str1.1
.LC11:
	.string	"No surface loaded"
.LC12:
	.string	"%f"
	.section	.rodata.str1.8,"aMS",@progbits,1
	.align 8
.LC13:
	.string	"Pixel coordinates out of range on alpha check, lpixel: "
	.section	.rodata.str1.1
.LC14:
	.string	", "
.LC15:
	.string	"Unknown pixel format"
	.section	.text.unlikely
	.align 2
.LCOLDB16:
	.text
.LHOTB16:
	.align 2
	.p2align 4
	.globl	_ZNK7Texture14is_alpha_pixelE6Point2IfE
	.type	_ZNK7Texture14is_alpha_pixelE6Point2IfE, @function
_ZNK7Texture14is_alpha_pixelE6Point2IfE:
.LFB10194:
	.cfi_startproc
	.cfi_personality 0x9b,DW.ref.__gxx_personality_v0
	.cfi_lsda 0x1b,.LLSDA10194
	endbr64
	pushq	%r15
	.cfi_def_cfa_offset 16
	.cfi_offset 15, -16
	pushq	%r14
	.cfi_def_cfa_offset 24
	.cfi_offset 14, -24
	pushq	%r13
	.cfi_def_cfa_offset 32
	.cfi_offset 13, -32
	pushq	%r12
	.cfi_def_cfa_offset 40
	.cfi_offset 12, -40
	pushq	%rbp
	.cfi_def_cfa_offset 48
	.cfi_offset 6, -48
	pushq	%rbx
	.cfi_def_cfa_offset 56
	.cfi_offset 3, -56
	subq	$216, %rsp
	.cfi_def_cfa_offset 272
	movq	(%rsi), %xmm0
	movq	16(%rdi), %rdx
	movq	.LC9(%rip), %xmm1
	movq	%fs:40, %rax
	movq	%rax, 200(%rsp)
	xorl	%eax, %eax
	minps	%xmm1, %xmm0
	movq	.LC10(%rip), %xmm1
	maxps	%xmm1, %xmm0
	pxor	%xmm1, %xmm1
	cvtsi2ssl	32(%rdi), %xmm1
	movlps	%xmm0, (%rsi)
	mulss	%xmm0, %xmm1
	shufps	$0xe5, %xmm0, %xmm0
	cvttss2sil	%xmm1, %r8d
	pxor	%xmm1, %xmm1
	cvtsi2ssl	36(%rdi), %xmm1
	mulss	%xmm0, %xmm1
	testq	%rdx, %rdx
	je	.L420
	cvttss2sil	%xmm1, %eax
	movl	%r8d, %ecx
	movq	%rsi, %rbx
	orl	%eax, %ecx
	js	.L364
	cmpl	16(%rdx), %r8d
	jge	.L364
	cmpl	20(%rdx), %eax
	jge	.L364
	movq	8(%rdx), %r10
	imull	24(%rdx), %eax
	movzbl	17(%r10), %esi
	cltq
	movl	%esi, %ecx
	imull	%r8d, %esi
	movslq	%esi, %rsi
	addq	%rsi, %rax
	addq	32(%rdx), %rax
	cmpb	$3, %cl
	je	.L367
	ja	.L368
	cmpb	$1, %cl
	jne	.L427
	movzbl	(%rax), %edi
.L393:
	leaq	29(%rsp), %rcx
	leaq	28(%rsp), %rdx
	movq	%r10, %rsi
	leaq	31(%rsp), %r9
	leaq	30(%rsp), %r8
.LEHB23:
	call	SDL_GetRGBA@PLT
.LEHE23:
	cmpb	$0, 31(%rsp)
	sete	%al
	movq	200(%rsp), %rdx
	subq	%fs:40, %rdx
	jne	.L428
	addq	$216, %rsp
	.cfi_remember_state
	.cfi_def_cfa_offset 56
	popq	%rbx
	.cfi_def_cfa_offset 48
	popq	%rbp
	.cfi_def_cfa_offset 40
	popq	%r12
	.cfi_def_cfa_offset 32
	popq	%r13
	.cfi_def_cfa_offset 24
	popq	%r14
	.cfi_def_cfa_offset 16
	popq	%r15
	.cfi_def_cfa_offset 8
	ret
	.p2align 4,,10
	.p2align 3
.L427:
	.cfi_restore_state
	cmpb	$2, %cl
	jne	.L429
	movzwl	(%rax), %edi
	jmp	.L393
	.p2align 4,,10
	.p2align 3
.L368:
	cmpb	$4, %cl
	jne	.L430
	movl	(%rax), %edi
	jmp	.L393
	.p2align 4,,10
	.p2align 3
.L367:
	movzbl	1(%rax), %edi
	movzbl	2(%rax), %edx
	movzbl	(%rax), %eax
	sall	$8, %edi
	sall	$16, %edx
	orl	%edx, %edi
	orl	%eax, %edi
	jmp	.L393
.L428:
	call	__stack_chk_fail@PLT
.L429:
	jmp	.L371
.L430:
	jmp	.L371
	.section	.gcc_except_table
.LLSDA10194:
	.byte	0xff
	.byte	0xff
	.byte	0x1
	.uleb128 .LLSDACSE10194-.LLSDACSB10194
.LLSDACSB10194:
	.uleb128 .LEHB23-.LFB10194
	.uleb128 .LEHE23-.LEHB23
	.uleb128 0
	.uleb128 0
.LLSDACSE10194:
	.text
	.cfi_endproc
	.section	.text.unlikely
	.cfi_startproc
	.cfi_personality 0x9b,DW.ref.__gxx_personality_v0
	.cfi_lsda 0x1b,.LLSDAC10194
	.type	_ZNK7Texture14is_alpha_pixelE6Point2IfE.cold, @function
_ZNK7Texture14is_alpha_pixelE6Point2IfE.cold:
.LFSB10194:
.L371:
	.cfi_def_cfa_offset 272
	.cfi_offset 3, -56
	.cfi_offset 6, -48
	.cfi_offset 12, -40
	.cfi_offset 13, -32
	.cfi_offset 14, -24
	.cfi_offset 15, -16
	movl	$16, %edi
	call	__cxa_allocate_exception@PLT
	leaq	.LC15(%rip), %rsi
	movq	%rax, %rdi
	movq	%rax, %rbp
.LEHB24:
	call	_ZNSt13runtime_errorC1EPKc@PLT
.LEHE24:
	movq	_ZNSt13runtime_errorD1Ev@GOTPCREL(%rip), %rdx
	leaq	_ZTISt13runtime_error(%rip), %rsi
	movq	%rbp, %rdi
.LEHB25:
	call	__cxa_throw@PLT
.LEHE25:
.L364:
	movl	$16, %edi
	leaq	128(%rsp), %r15
	leaq	.LC12(%rip), %r14
	call	__cxa_allocate_exception@PLT
	pxor	%xmm0, %xmm0
	movq	%r14, %rcx
	movq	%r15, %rdi
	movq	vsnprintf@GOTPCREL(%rip), %r13
	movq	%rax, %rbp
	movl	$58, %edx
	movl	$1, %eax
	cvtss2sd	4(%rbx), %xmm0
	movq	%r13, %rsi
.LEHB26:
	call	_ZN9__gnu_cxx12__to_xstringINSt7__cxx1112basic_stringIcSt11char_traitsIcESaIcEEEcEET_PFiPT0_mPKS8_P13__va_list_tagEmSB_z
.LEHE26:
	leaq	32(%rsp), %r12
	pxor	%xmm0, %xmm0
	movq	%r14, %rcx
	movq	%r13, %rsi
	movl	$58, %edx
	movq	%r12, %rdi
	movl	$1, %eax
	cvtss2sd	(%rbx), %xmm0
.LEHB27:
	call	_ZN9__gnu_cxx12__to_xstringINSt7__cxx1112basic_stringIcSt11char_traitsIcESaIcEEEcEET_PFiPT0_mPKS8_P13__va_list_tagEmSB_z
.LEHE27:
	movl	$55, %r8d
	xorl	%edx, %edx
	xorl	%esi, %esi
	movq	%r12, %rdi
	leaq	.LC13(%rip), %rcx
.LEHB28:
	call	_ZNSt7__cxx1112basic_stringIcSt11char_traitsIcESaIcEE10_M_replaceEmmPKcm
.LEHE28:
	leaq	80(%rsp), %rbx
	leaq	16(%rax), %rdx
	movq	%rbx, 64(%rsp)
	movq	(%rax), %rcx
	movq	%rbx, 8(%rsp)
	cmpq	%rdx, %rcx
	jne	.L373
	movdqu	16(%rax), %xmm3
	movaps	%xmm3, 80(%rsp)
.L374:
	movq	8(%rax), %rcx
	movb	$0, 16(%rax)
	leaq	96(%rsp), %r14
	leaq	64(%rsp), %rsi
	movq	%r14, %rdi
	movq	%rcx, 72(%rsp)
	movq	%rdx, (%rax)
	leaq	.LC14(%rip), %rdx
	movq	$0, 8(%rax)
.LEHB29:
	call	_ZStplIcSt11char_traitsIcESaIcEENSt7__cxx1112basic_stringIT_T0_T1_EEOS8_PKS5_
.LEHE29:
	movq	104(%rsp), %rsi
	movq	96(%rsp), %rcx
	leaq	112(%rsp), %r12
	movq	136(%rsp), %r8
	movq	112(%rsp), %rax
	leaq	(%rsi,%r8), %r13
	cmpq	%r12, %rcx
	je	.L431
.L375:
	movq	128(%rsp), %r9
	cmpq	%rax, %r13
	jbe	.L376
	leaq	144(%rsp), %rbx
	movq	144(%rsp), %rax
	cmpq	%rbx, %r9
	je	.L432
.L377:
	cmpq	%rax, %r13
	ja	.L378
	movq	%rsi, %r8
	xorl	%edx, %edx
	xorl	%esi, %esi
	movq	%r15, %rdi
.LEHB30:
	call	_ZNSt7__cxx1112basic_stringIcSt11char_traitsIcESaIcEE10_M_replaceEmmPKcm
.LEHE30:
	leaq	176(%rsp), %r14
	leaq	16(%rax), %rdx
	movq	%r14, 160(%rsp)
	movq	(%rax), %rcx
	cmpq	%rdx, %rcx
	jne	.L422
	movdqu	16(%rax), %xmm4
	movaps	%xmm4, 176(%rsp)
.L385:
	movq	8(%rax), %rcx
	movb	$0, 16(%rax)
	movq	%rcx, 168(%rsp)
	movq	%rdx, (%rax)
	movq	$0, 8(%rax)
.L386:
	leaq	160(%rsp), %rsi
	movq	%rbp, %rdi
.LEHB31:
	call	_ZNSt12out_of_rangeC1ERKNSt7__cxx1112basic_stringIcSt11char_traitsIcESaIcEEE@PLT
.LEHE31:
	movq	160(%rsp), %rdi
	cmpq	%r14, %rdi
	je	.L388
	movq	176(%rsp), %rax
	leaq	1(%rax), %rsi
	call	_ZdlPvm@PLT
.L388:
	movq	96(%rsp), %rdi
	cmpq	%r12, %rdi
	je	.L389
	movq	112(%rsp), %rax
	leaq	1(%rax), %rsi
	call	_ZdlPvm@PLT
.L389:
	movq	64(%rsp), %rdi
	cmpq	8(%rsp), %rdi
	je	.L390
	movq	80(%rsp), %rax
	leaq	1(%rax), %rsi
	call	_ZdlPvm@PLT
.L390:
	movq	32(%rsp), %rdi
	leaq	48(%rsp), %rax
	cmpq	%rax, %rdi
	je	.L391
	movq	48(%rsp), %rax
	leaq	1(%rax), %rsi
	call	_ZdlPvm@PLT
.L391:
	movq	128(%rsp), %rdi
	cmpq	%rbx, %rdi
	je	.L392
	movq	144(%rsp), %rax
	leaq	1(%rax), %rsi
	call	_ZdlPvm@PLT
.L392:
	movq	_ZNSt12out_of_rangeD1Ev@GOTPCREL(%rip), %rdx
	leaq	_ZTISt12out_of_range(%rip), %rsi
	movq	%rbp, %rdi
.LEHB32:
	call	__cxa_throw@PLT
.LEHE32:
.L420:
	movl	$16, %edi
	call	__cxa_allocate_exception@PLT
	leaq	.LC11(%rip), %rsi
	movq	%rax, %rdi
	movq	%rax, %rbp
.LEHB33:
	call	_ZNSt13runtime_errorC1EPKc@PLT
.LEHE33:
	movq	_ZNSt13runtime_errorD1Ev@GOTPCREL(%rip), %rdx
	leaq	_ZTISt13runtime_error(%rip), %rsi
	movq	%rbp, %rdi
.LEHB34:
	call	__cxa_throw@PLT
.L419:
	endbr64
	movq	%rax, %r12
	movq	%rbp, %rdi
	call	__cxa_free_exception@PLT
	movq	%r12, %rdi
	call	_Unwind_Resume@PLT
.L373:
	movq	%rcx, 64(%rsp)
	movq	16(%rax), %rcx
	movq	%rcx, 80(%rsp)
	jmp	.L374
.L412:
	endbr64
	movq	%rax, %r12
	movq	%rbp, %rdi
	call	__cxa_free_exception@PLT
	movq	%r12, %rdi
	call	_Unwind_Resume@PLT
.L414:
	endbr64
	movq	%rax, %r12
	leaq	144(%rsp), %rbx
.L403:
	movq	128(%rsp), %rdi
	cmpq	%rbx, %rdi
	je	.L405
	movq	144(%rsp), %rax
	leaq	1(%rax), %rsi
	call	_ZdlPvm@PLT
.L405:
	movq	%rbp, %rdi
	call	__cxa_free_exception@PLT
	movq	%r12, %rdi
	call	_Unwind_Resume@PLT
.LEHE34:
.L413:
	endbr64
	movq	%rax, %r12
	jmp	.L405
.L415:
	endbr64
	movq	%rax, %r12
	leaq	144(%rsp), %rbx
.L401:
	movq	32(%rsp), %rdi
	leaq	48(%rsp), %rax
	cmpq	%rax, %rdi
	je	.L403
	movq	48(%rsp), %rax
	leaq	1(%rax), %rsi
	call	_ZdlPvm@PLT
	jmp	.L403
.L431:
	movl	$15, %eax
	jmp	.L375
.L416:
	endbr64
	movq	%rax, %r12
	leaq	144(%rsp), %rbx
.L399:
	movq	64(%rsp), %rdi
	cmpq	8(%rsp), %rdi
	je	.L401
	movq	80(%rsp), %rax
	leaq	1(%rax), %rsi
	call	_ZdlPvm@PLT
	jmp	.L401
.L376:
	testq	%r8, %r8
	je	.L426
	leaq	(%rcx,%rsi), %rdi
	cmpq	$1, %r8
	jne	.L381
	movzbl	(%r9), %eax
	leaq	144(%rsp), %rbx
	movb	%al, (%rdi)
	movq	96(%rsp), %rcx
.L382:
	movq	%r13, 104(%rsp)
	leaq	176(%rsp), %r14
	movb	$0, (%rcx,%r13)
	movq	96(%rsp), %rax
	movq	%r14, 160(%rsp)
	cmpq	%r12, %rax
	jne	.L423
	movdqa	112(%rsp), %xmm5
	movaps	%xmm5, 176(%rsp)
.L387:
	movq	104(%rsp), %rax
	movq	%r12, 96(%rsp)
	movq	$0, 104(%rsp)
	movq	%rax, 168(%rsp)
	movb	$0, 112(%rsp)
	jmp	.L386
.L432:
	movl	$15, %eax
	jmp	.L377
.L381:
	movq	%r8, %rdx
	movq	%r9, %rsi
	call	memcpy@PLT
	movq	96(%rsp), %rcx
.L426:
	leaq	144(%rsp), %rbx
	jmp	.L382
.L378:
	movq	%r9, %rcx
	xorl	%edx, %edx
	movq	%r14, %rdi
.LEHB35:
	call	_ZNSt7__cxx1112basic_stringIcSt11char_traitsIcESaIcEE9_M_mutateEmmPKcm
.LEHE35:
	movq	96(%rsp), %rcx
	jmp	.L382
.L417:
	endbr64
	movq	%rax, %r13
.L397:
	movq	96(%rsp), %rdi
	cmpq	%r12, %rdi
	je	.L398
	movq	112(%rsp), %rax
	leaq	1(%rax), %rsi
	call	_ZdlPvm@PLT
.L398:
	movq	%r13, %r12
	jmp	.L399
.L422:
	movq	%rcx, 160(%rsp)
	movq	16(%rax), %rcx
	movq	%rcx, 176(%rsp)
	jmp	.L385
.L423:
	movq	%rax, 160(%rsp)
	movq	112(%rsp), %rax
	movq	%rax, 176(%rsp)
	jmp	.L387
.L418:
	endbr64
	movq	160(%rsp), %rdi
	movq	%rax, %r13
	cmpq	%r14, %rdi
	je	.L397
	movq	176(%rsp), %rax
	leaq	1(%rax), %rsi
	call	_ZdlPvm@PLT
	jmp	.L397
	.cfi_endproc
.LFE10194:
	.section	.gcc_except_table
.LLSDAC10194:
	.byte	0xff
	.byte	0xff
	.byte	0x1
	.uleb128 .LLSDACSEC10194-.LLSDACSBC10194
.LLSDACSBC10194:
	.uleb128 .LEHB24-.LCOLDB16
	.uleb128 .LEHE24-.LEHB24
	.uleb128 .L419-.LCOLDB16
	.uleb128 0
	.uleb128 .LEHB25-.LCOLDB16
	.uleb128 .LEHE25-.LEHB25
	.uleb128 0
	.uleb128 0
	.uleb128 .LEHB26-.LCOLDB16
	.uleb128 .LEHE26-.LEHB26
	.uleb128 .L413-.LCOLDB16
	.uleb128 0
	.uleb128 .LEHB27-.LCOLDB16
	.uleb128 .LEHE27-.LEHB27
	.uleb128 .L414-.LCOLDB16
	.uleb128 0
	.uleb128 .LEHB28-.LCOLDB16
	.uleb128 .LEHE28-.LEHB28
	.uleb128 .L415-.LCOLDB16
	.uleb128 0
	.uleb128 .LEHB29-.LCOLDB16
	.uleb128 .LEHE29-.LEHB29
	.uleb128 .L416-.LCOLDB16
	.uleb128 0
	.uleb128 .LEHB30-.LCOLDB16
	.uleb128 .LEHE30-.LEHB30
	.uleb128 .L417-.LCOLDB16
	.uleb128 0
	.uleb128 .LEHB31-.LCOLDB16
	.uleb128 .LEHE31-.LEHB31
	.uleb128 .L418-.LCOLDB16
	.uleb128 0
	.uleb128 .LEHB32-.LCOLDB16
	.uleb128 .LEHE32-.LEHB32
	.uleb128 0
	.uleb128 0
	.uleb128 .LEHB33-.LCOLDB16
	.uleb128 .LEHE33-.LEHB33
	.uleb128 .L412-.LCOLDB16
	.uleb128 0
	.uleb128 .LEHB34-.LCOLDB16
	.uleb128 .LEHE34-.LEHB34
	.uleb128 0
	.uleb128 0
	.uleb128 .LEHB35-.LCOLDB16
	.uleb128 .LEHE35-.LEHB35
	.uleb128 .L417-.LCOLDB16
	.uleb128 0
.LLSDACSEC10194:
	.section	.text.unlikely
	.text
	.size	_ZNK7Texture14is_alpha_pixelE6Point2IfE, .-_ZNK7Texture14is_alpha_pixelE6Point2IfE
	.section	.text.unlikely
	.size	_ZNK7Texture14is_alpha_pixelE6Point2IfE.cold, .-_ZNK7Texture14is_alpha_pixelE6Point2IfE.cold
.LCOLDE16:
	.text
.LHOTE16:
	.section	.text.startup,"ax",@progbits
	.p2align 4
	.type	_GLOBAL__sub_I__ZN7Texture10load_imageERKNSt7__cxx1112basic_stringIcSt11char_traitsIcESaIcEEEP12SDL_Renderer, @function
_GLOBAL__sub_I__ZN7Texture10load_imageERKNSt7__cxx1112basic_stringIcSt11char_traitsIcESaIcEEEP12SDL_Renderer:
.LFB11253:
	.cfi_startproc
	endbr64
	pushq	%rbp
	.cfi_def_cfa_offset 16
	.cfi_offset 6, -16
	leaq	_ZStL8__ioinit(%rip), %rbp
	movq	%rbp, %rdi
	call	_ZNSt8ios_base4InitC1Ev@PLT
	movq	_ZNSt8ios_base4InitD1Ev@GOTPCREL(%rip), %rdi
	movq	%rbp, %rsi
	popq	%rbp
	.cfi_def_cfa_offset 8
	leaq	__dso_handle(%rip), %rdx
	jmp	__cxa_atexit@PLT
	.cfi_endproc
.LFE11253:
	.size	_GLOBAL__sub_I__ZN7Texture10load_imageERKNSt7__cxx1112basic_stringIcSt11char_traitsIcESaIcEEEP12SDL_Renderer, .-_GLOBAL__sub_I__ZN7Texture10load_imageERKNSt7__cxx1112basic_stringIcSt11char_traitsIcESaIcEEEP12SDL_Renderer
	.section	.init_array,"aw"
	.align 8
	.quad	_GLOBAL__sub_I__ZN7Texture10load_imageERKNSt7__cxx1112basic_stringIcSt11char_traitsIcESaIcEEEP12SDL_Renderer
	.weak	_ZTSSt11_Mutex_baseILN9__gnu_cxx12_Lock_policyE2EE
	.section	.rodata._ZTSSt11_Mutex_baseILN9__gnu_cxx12_Lock_policyE2EE,"aG",@progbits,_ZTSSt11_Mutex_baseILN9__gnu_cxx12_Lock_policyE2EE,comdat
	.align 32
	.type	_ZTSSt11_Mutex_baseILN9__gnu_cxx12_Lock_policyE2EE, @object
	.size	_ZTSSt11_Mutex_baseILN9__gnu_cxx12_Lock_policyE2EE, 47
_ZTSSt11_Mutex_baseILN9__gnu_cxx12_Lock_policyE2EE:
	.string	"St11_Mutex_baseILN9__gnu_cxx12_Lock_policyE2EE"
	.weak	_ZTISt11_Mutex_baseILN9__gnu_cxx12_Lock_policyE2EE
	.section	.data.rel.ro._ZTISt11_Mutex_baseILN9__gnu_cxx12_Lock_policyE2EE,"awG",@progbits,_ZTISt11_Mutex_baseILN9__gnu_cxx12_Lock_policyE2EE,comdat
	.align 8
	.type	_ZTISt11_Mutex_baseILN9__gnu_cxx12_Lock_policyE2EE, @object
	.size	_ZTISt11_Mutex_baseILN9__gnu_cxx12_Lock_policyE2EE, 16
_ZTISt11_Mutex_baseILN9__gnu_cxx12_Lock_policyE2EE:
	.quad	_ZTVN10__cxxabiv117__class_type_infoE+16
	.quad	_ZTSSt11_Mutex_baseILN9__gnu_cxx12_Lock_policyE2EE
	.weak	_ZTSPFvP11SDL_TextureE
	.section	.rodata._ZTSPFvP11SDL_TextureE,"aG",@progbits,_ZTSPFvP11SDL_TextureE,comdat
	.align 16
	.type	_ZTSPFvP11SDL_TextureE, @object
	.size	_ZTSPFvP11SDL_TextureE, 19
_ZTSPFvP11SDL_TextureE:
	.string	"PFvP11SDL_TextureE"
	.weak	_ZTSPFvP11SDL_SurfaceE
	.section	.rodata._ZTSPFvP11SDL_SurfaceE,"aG",@progbits,_ZTSPFvP11SDL_SurfaceE,comdat
	.align 16
	.type	_ZTSPFvP11SDL_SurfaceE, @object
	.size	_ZTSPFvP11SDL_SurfaceE, 19
_ZTSPFvP11SDL_SurfaceE:
	.string	"PFvP11SDL_SurfaceE"
	.weak	_ZTSSt16_Sp_counted_baseILN9__gnu_cxx12_Lock_policyE2EE
	.section	.rodata._ZTSSt16_Sp_counted_baseILN9__gnu_cxx12_Lock_policyE2EE,"aG",@progbits,_ZTSSt16_Sp_counted_baseILN9__gnu_cxx12_Lock_policyE2EE,comdat
	.align 32
	.type	_ZTSSt16_Sp_counted_baseILN9__gnu_cxx12_Lock_policyE2EE, @object
	.size	_ZTSSt16_Sp_counted_baseILN9__gnu_cxx12_Lock_policyE2EE, 52
_ZTSSt16_Sp_counted_baseILN9__gnu_cxx12_Lock_policyE2EE:
	.string	"St16_Sp_counted_baseILN9__gnu_cxx12_Lock_policyE2EE"
	.weak	_ZTISt16_Sp_counted_baseILN9__gnu_cxx12_Lock_policyE2EE
	.section	.data.rel.ro._ZTISt16_Sp_counted_baseILN9__gnu_cxx12_Lock_policyE2EE,"awG",@progbits,_ZTISt16_Sp_counted_baseILN9__gnu_cxx12_Lock_policyE2EE,comdat
	.align 8
	.type	_ZTISt16_Sp_counted_baseILN9__gnu_cxx12_Lock_policyE2EE, @object
	.size	_ZTISt16_Sp_counted_baseILN9__gnu_cxx12_Lock_policyE2EE, 24
_ZTISt16_Sp_counted_baseILN9__gnu_cxx12_Lock_policyE2EE:
	.quad	_ZTVN10__cxxabiv120__si_class_type_infoE+16
	.quad	_ZTSSt16_Sp_counted_baseILN9__gnu_cxx12_Lock_policyE2EE
	.quad	_ZTISt11_Mutex_baseILN9__gnu_cxx12_Lock_policyE2EE
	.weak	_ZTSSt19_Sp_counted_deleterIDnPFvP11SDL_SurfaceESaIvELN9__gnu_cxx12_Lock_policyE2EE
	.section	.rodata._ZTSSt19_Sp_counted_deleterIDnPFvP11SDL_SurfaceESaIvELN9__gnu_cxx12_Lock_policyE2EE,"aG",@progbits,_ZTSSt19_Sp_counted_deleterIDnPFvP11SDL_SurfaceESaIvELN9__gnu_cxx12_Lock_policyE2EE,comdat
	.align 32
	.type	_ZTSSt19_Sp_counted_deleterIDnPFvP11SDL_SurfaceESaIvELN9__gnu_cxx12_Lock_policyE2EE, @object
	.size	_ZTSSt19_Sp_counted_deleterIDnPFvP11SDL_SurfaceESaIvELN9__gnu_cxx12_Lock_policyE2EE, 80
_ZTSSt19_Sp_counted_deleterIDnPFvP11SDL_SurfaceESaIvELN9__gnu_cxx12_Lock_policyE2EE:
	.string	"St19_Sp_counted_deleterIDnPFvP11SDL_SurfaceESaIvELN9__gnu_cxx12_Lock_policyE2EE"
	.weak	_ZTISt19_Sp_counted_deleterIDnPFvP11SDL_SurfaceESaIvELN9__gnu_cxx12_Lock_policyE2EE
	.section	.data.rel.ro._ZTISt19_Sp_counted_deleterIDnPFvP11SDL_SurfaceESaIvELN9__gnu_cxx12_Lock_policyE2EE,"awG",@progbits,_ZTISt19_Sp_counted_deleterIDnPFvP11SDL_SurfaceESaIvELN9__gnu_cxx12_Lock_policyE2EE,comdat
	.align 8
	.type	_ZTISt19_Sp_counted_deleterIDnPFvP11SDL_SurfaceESaIvELN9__gnu_cxx12_Lock_policyE2EE, @object
	.size	_ZTISt19_Sp_counted_deleterIDnPFvP11SDL_SurfaceESaIvELN9__gnu_cxx12_Lock_policyE2EE, 24
_ZTISt19_Sp_counted_deleterIDnPFvP11SDL_SurfaceESaIvELN9__gnu_cxx12_Lock_policyE2EE:
	.quad	_ZTVN10__cxxabiv120__si_class_type_infoE+16
	.quad	_ZTSSt19_Sp_counted_deleterIDnPFvP11SDL_SurfaceESaIvELN9__gnu_cxx12_Lock_policyE2EE
	.quad	_ZTISt16_Sp_counted_baseILN9__gnu_cxx12_Lock_policyE2EE
	.weak	_ZTSSt19_Sp_counted_deleterIP11SDL_SurfacePFvS1_ESaIvELN9__gnu_cxx12_Lock_policyE2EE
	.section	.rodata._ZTSSt19_Sp_counted_deleterIP11SDL_SurfacePFvS1_ESaIvELN9__gnu_cxx12_Lock_policyE2EE,"aG",@progbits,_ZTSSt19_Sp_counted_deleterIP11SDL_SurfacePFvS1_ESaIvELN9__gnu_cxx12_Lock_policyE2EE,comdat
	.align 32
	.type	_ZTSSt19_Sp_counted_deleterIP11SDL_SurfacePFvS1_ESaIvELN9__gnu_cxx12_Lock_policyE2EE, @object
	.size	_ZTSSt19_Sp_counted_deleterIP11SDL_SurfacePFvS1_ESaIvELN9__gnu_cxx12_Lock_policyE2EE, 81
_ZTSSt19_Sp_counted_deleterIP11SDL_SurfacePFvS1_ESaIvELN9__gnu_cxx12_Lock_policyE2EE:
	.string	"St19_Sp_counted_deleterIP11SDL_SurfacePFvS1_ESaIvELN9__gnu_cxx12_Lock_policyE2EE"
	.weak	_ZTISt19_Sp_counted_deleterIP11SDL_SurfacePFvS1_ESaIvELN9__gnu_cxx12_Lock_policyE2EE
	.section	.data.rel.ro._ZTISt19_Sp_counted_deleterIP11SDL_SurfacePFvS1_ESaIvELN9__gnu_cxx12_Lock_policyE2EE,"awG",@progbits,_ZTISt19_Sp_counted_deleterIP11SDL_SurfacePFvS1_ESaIvELN9__gnu_cxx12_Lock_policyE2EE,comdat
	.align 8
	.type	_ZTISt19_Sp_counted_deleterIP11SDL_SurfacePFvS1_ESaIvELN9__gnu_cxx12_Lock_policyE2EE, @object
	.size	_ZTISt19_Sp_counted_deleterIP11SDL_SurfacePFvS1_ESaIvELN9__gnu_cxx12_Lock_policyE2EE, 24
_ZTISt19_Sp_counted_deleterIP11SDL_SurfacePFvS1_ESaIvELN9__gnu_cxx12_Lock_policyE2EE:
	.quad	_ZTVN10__cxxabiv120__si_class_type_infoE+16
	.quad	_ZTSSt19_Sp_counted_deleterIP11SDL_SurfacePFvS1_ESaIvELN9__gnu_cxx12_Lock_policyE2EE
	.quad	_ZTISt16_Sp_counted_baseILN9__gnu_cxx12_Lock_policyE2EE
	.weak	_ZTSSt19_Sp_counted_deleterIP11SDL_TexturePFvS1_ESaIvELN9__gnu_cxx12_Lock_policyE2EE
	.section	.rodata._ZTSSt19_Sp_counted_deleterIP11SDL_TexturePFvS1_ESaIvELN9__gnu_cxx12_Lock_policyE2EE,"aG",@progbits,_ZTSSt19_Sp_counted_deleterIP11SDL_TexturePFvS1_ESaIvELN9__gnu_cxx12_Lock_policyE2EE,comdat
	.align 32
	.type	_ZTSSt19_Sp_counted_deleterIP11SDL_TexturePFvS1_ESaIvELN9__gnu_cxx12_Lock_policyE2EE, @object
	.size	_ZTSSt19_Sp_counted_deleterIP11SDL_TexturePFvS1_ESaIvELN9__gnu_cxx12_Lock_policyE2EE, 81
_ZTSSt19_Sp_counted_deleterIP11SDL_TexturePFvS1_ESaIvELN9__gnu_cxx12_Lock_policyE2EE:
	.string	"St19_Sp_counted_deleterIP11SDL_TexturePFvS1_ESaIvELN9__gnu_cxx12_Lock_policyE2EE"
	.weak	_ZTISt19_Sp_counted_deleterIP11SDL_TexturePFvS1_ESaIvELN9__gnu_cxx12_Lock_policyE2EE
	.section	.data.rel.ro._ZTISt19_Sp_counted_deleterIP11SDL_TexturePFvS1_ESaIvELN9__gnu_cxx12_Lock_policyE2EE,"awG",@progbits,_ZTISt19_Sp_counted_deleterIP11SDL_TexturePFvS1_ESaIvELN9__gnu_cxx12_Lock_policyE2EE,comdat
	.align 8
	.type	_ZTISt19_Sp_counted_deleterIP11SDL_TexturePFvS1_ESaIvELN9__gnu_cxx12_Lock_policyE2EE, @object
	.size	_ZTISt19_Sp_counted_deleterIP11SDL_TexturePFvS1_ESaIvELN9__gnu_cxx12_Lock_policyE2EE, 24
_ZTISt19_Sp_counted_deleterIP11SDL_TexturePFvS1_ESaIvELN9__gnu_cxx12_Lock_policyE2EE:
	.quad	_ZTVN10__cxxabiv120__si_class_type_infoE+16
	.quad	_ZTSSt19_Sp_counted_deleterIP11SDL_TexturePFvS1_ESaIvELN9__gnu_cxx12_Lock_policyE2EE
	.quad	_ZTISt16_Sp_counted_baseILN9__gnu_cxx12_Lock_policyE2EE
	.weak	_ZTVSt19_Sp_counted_deleterIDnPFvP11SDL_SurfaceESaIvELN9__gnu_cxx12_Lock_policyE2EE
	.section	.data.rel.ro.local._ZTVSt19_Sp_counted_deleterIDnPFvP11SDL_SurfaceESaIvELN9__gnu_cxx12_Lock_policyE2EE,"awG",@progbits,_ZTVSt19_Sp_counted_deleterIDnPFvP11SDL_SurfaceESaIvELN9__gnu_cxx12_Lock_policyE2EE,comdat
	.align 8
	.type	_ZTVSt19_Sp_counted_deleterIDnPFvP11SDL_SurfaceESaIvELN9__gnu_cxx12_Lock_policyE2EE, @object
	.size	_ZTVSt19_Sp_counted_deleterIDnPFvP11SDL_SurfaceESaIvELN9__gnu_cxx12_Lock_policyE2EE, 56
_ZTVSt19_Sp_counted_deleterIDnPFvP11SDL_SurfaceESaIvELN9__gnu_cxx12_Lock_policyE2EE:
	.quad	0
	.quad	_ZTISt19_Sp_counted_deleterIDnPFvP11SDL_SurfaceESaIvELN9__gnu_cxx12_Lock_policyE2EE
	.quad	_ZNSt19_Sp_counted_deleterIDnPFvP11SDL_SurfaceESaIvELN9__gnu_cxx12_Lock_policyE2EED1Ev
	.quad	_ZNSt19_Sp_counted_deleterIDnPFvP11SDL_SurfaceESaIvELN9__gnu_cxx12_Lock_policyE2EED0Ev
	.quad	_ZNSt19_Sp_counted_deleterIDnPFvP11SDL_SurfaceESaIvELN9__gnu_cxx12_Lock_policyE2EE10_M_disposeEv
	.quad	_ZNSt19_Sp_counted_deleterIDnPFvP11SDL_SurfaceESaIvELN9__gnu_cxx12_Lock_policyE2EE10_M_destroyEv
	.quad	_ZNSt19_Sp_counted_deleterIDnPFvP11SDL_SurfaceESaIvELN9__gnu_cxx12_Lock_policyE2EE14_M_get_deleterERKSt9type_info
	.weak	_ZTVSt19_Sp_counted_deleterIP11SDL_SurfacePFvS1_ESaIvELN9__gnu_cxx12_Lock_policyE2EE
	.section	.data.rel.ro.local._ZTVSt19_Sp_counted_deleterIP11SDL_SurfacePFvS1_ESaIvELN9__gnu_cxx12_Lock_policyE2EE,"awG",@progbits,_ZTVSt19_Sp_counted_deleterIP11SDL_SurfacePFvS1_ESaIvELN9__gnu_cxx12_Lock_policyE2EE,comdat
	.align 8
	.type	_ZTVSt19_Sp_counted_deleterIP11SDL_SurfacePFvS1_ESaIvELN9__gnu_cxx12_Lock_policyE2EE, @object
	.size	_ZTVSt19_Sp_counted_deleterIP11SDL_SurfacePFvS1_ESaIvELN9__gnu_cxx12_Lock_policyE2EE, 56
_ZTVSt19_Sp_counted_deleterIP11SDL_SurfacePFvS1_ESaIvELN9__gnu_cxx12_Lock_policyE2EE:
	.quad	0
	.quad	_ZTISt19_Sp_counted_deleterIP11SDL_SurfacePFvS1_ESaIvELN9__gnu_cxx12_Lock_policyE2EE
	.quad	_ZNSt19_Sp_counted_deleterIP11SDL_SurfacePFvS1_ESaIvELN9__gnu_cxx12_Lock_policyE2EED1Ev
	.quad	_ZNSt19_Sp_counted_deleterIP11SDL_SurfacePFvS1_ESaIvELN9__gnu_cxx12_Lock_policyE2EED0Ev
	.quad	_ZNSt19_Sp_counted_deleterIP11SDL_SurfacePFvS1_ESaIvELN9__gnu_cxx12_Lock_policyE2EE10_M_disposeEv
	.quad	_ZNSt19_Sp_counted_deleterIP11SDL_SurfacePFvS1_ESaIvELN9__gnu_cxx12_Lock_policyE2EE10_M_destroyEv
	.quad	_ZNSt19_Sp_counted_deleterIP11SDL_SurfacePFvS1_ESaIvELN9__gnu_cxx12_Lock_policyE2EE14_M_get_deleterERKSt9type_info
	.weak	_ZTVSt19_Sp_counted_deleterIP11SDL_TexturePFvS1_ESaIvELN9__gnu_cxx12_Lock_policyE2EE
	.section	.data.rel.ro.local._ZTVSt19_Sp_counted_deleterIP11SDL_TexturePFvS1_ESaIvELN9__gnu_cxx12_Lock_policyE2EE,"awG",@progbits,_ZTVSt19_Sp_counted_deleterIP11SDL_TexturePFvS1_ESaIvELN9__gnu_cxx12_Lock_policyE2EE,comdat
	.align 8
	.type	_ZTVSt19_Sp_counted_deleterIP11SDL_TexturePFvS1_ESaIvELN9__gnu_cxx12_Lock_policyE2EE, @object
	.size	_ZTVSt19_Sp_counted_deleterIP11SDL_TexturePFvS1_ESaIvELN9__gnu_cxx12_Lock_policyE2EE, 56
_ZTVSt19_Sp_counted_deleterIP11SDL_TexturePFvS1_ESaIvELN9__gnu_cxx12_Lock_policyE2EE:
	.quad	0
	.quad	_ZTISt19_Sp_counted_deleterIP11SDL_TexturePFvS1_ESaIvELN9__gnu_cxx12_Lock_policyE2EE
	.quad	_ZNSt19_Sp_counted_deleterIP11SDL_TexturePFvS1_ESaIvELN9__gnu_cxx12_Lock_policyE2EED1Ev
	.quad	_ZNSt19_Sp_counted_deleterIP11SDL_TexturePFvS1_ESaIvELN9__gnu_cxx12_Lock_policyE2EED0Ev
	.quad	_ZNSt19_Sp_counted_deleterIP11SDL_TexturePFvS1_ESaIvELN9__gnu_cxx12_Lock_policyE2EE10_M_disposeEv
	.quad	_ZNSt19_Sp_counted_deleterIP11SDL_TexturePFvS1_ESaIvELN9__gnu_cxx12_Lock_policyE2EE10_M_destroyEv
	.quad	_ZNSt19_Sp_counted_deleterIP11SDL_TexturePFvS1_ESaIvELN9__gnu_cxx12_Lock_policyE2EE14_M_get_deleterERKSt9type_info
	.local	_ZStL8__ioinit
	.comm	_ZStL8__ioinit,1,1
	.section	.rodata.cst8,"aM",@progbits,8
	.align 8
.LC1:
	.long	1
	.long	1
	.align 8
.LC9:
	.long	1065353199
	.long	1065353199
	.align 8
.LC10:
	.long	841731191
	.long	841731191
	.hidden	DW.ref.__gxx_personality_v0
	.weak	DW.ref.__gxx_personality_v0
	.section	.data.rel.local.DW.ref.__gxx_personality_v0,"awG",@progbits,DW.ref.__gxx_personality_v0,comdat
	.align 8
	.type	DW.ref.__gxx_personality_v0, @object
	.size	DW.ref.__gxx_personality_v0, 8
DW.ref.__gxx_personality_v0:
	.quad	__gxx_personality_v0
	.hidden	__dso_handle
	.ident	"GCC: (Ubuntu 11.4.0-1ubuntu1~22.04) 11.4.0"
	.section	.note.GNU-stack,"",@progbits
	.section	.note.gnu.property,"a"
	.align 8
	.long	1f - 0f
	.long	4f - 1f
	.long	5
0:
	.string	"GNU"
1:
	.align 8
	.long	0xc0000002
	.long	3f - 2f
2:
	.long	0x3
3:
	.align 8
4:
