	.file	"engine.cpp"
	.text
	.section	.text._ZNSt15_Sp_counted_ptrIP4GameLN9__gnu_cxx12_Lock_policyE2EED2Ev,"axG",@progbits,_ZNSt15_Sp_counted_ptrIP4GameLN9__gnu_cxx12_Lock_policyE2EED5Ev,comdat
	.align 2
	.p2align 4
	.weak	_ZNSt15_Sp_counted_ptrIP4GameLN9__gnu_cxx12_Lock_policyE2EED2Ev
	.type	_ZNSt15_Sp_counted_ptrIP4GameLN9__gnu_cxx12_Lock_policyE2EED2Ev, @function
_ZNSt15_Sp_counted_ptrIP4GameLN9__gnu_cxx12_Lock_policyE2EED2Ev:
.LFB13341:
	.cfi_startproc
	endbr64
	ret
	.cfi_endproc
.LFE13341:
	.size	_ZNSt15_Sp_counted_ptrIP4GameLN9__gnu_cxx12_Lock_policyE2EED2Ev, .-_ZNSt15_Sp_counted_ptrIP4GameLN9__gnu_cxx12_Lock_policyE2EED2Ev
	.weak	_ZNSt15_Sp_counted_ptrIP4GameLN9__gnu_cxx12_Lock_policyE2EED1Ev
	.set	_ZNSt15_Sp_counted_ptrIP4GameLN9__gnu_cxx12_Lock_policyE2EED1Ev,_ZNSt15_Sp_counted_ptrIP4GameLN9__gnu_cxx12_Lock_policyE2EED2Ev
	.section	.text._ZNSt15_Sp_counted_ptrIP4GameLN9__gnu_cxx12_Lock_policyE2EE14_M_get_deleterERKSt9type_info,"axG",@progbits,_ZNSt15_Sp_counted_ptrIP4GameLN9__gnu_cxx12_Lock_policyE2EE14_M_get_deleterERKSt9type_info,comdat
	.align 2
	.p2align 4
	.weak	_ZNSt15_Sp_counted_ptrIP4GameLN9__gnu_cxx12_Lock_policyE2EE14_M_get_deleterERKSt9type_info
	.type	_ZNSt15_Sp_counted_ptrIP4GameLN9__gnu_cxx12_Lock_policyE2EE14_M_get_deleterERKSt9type_info, @function
_ZNSt15_Sp_counted_ptrIP4GameLN9__gnu_cxx12_Lock_policyE2EE14_M_get_deleterERKSt9type_info:
.LFB13363:
	.cfi_startproc
	endbr64
	xorl	%eax, %eax
	ret
	.cfi_endproc
.LFE13363:
	.size	_ZNSt15_Sp_counted_ptrIP4GameLN9__gnu_cxx12_Lock_policyE2EE14_M_get_deleterERKSt9type_info, .-_ZNSt15_Sp_counted_ptrIP4GameLN9__gnu_cxx12_Lock_policyE2EE14_M_get_deleterERKSt9type_info
	.section	.text._ZNSt15_Sp_counted_ptrIP4GameLN9__gnu_cxx12_Lock_policyE2EED0Ev,"axG",@progbits,_ZNSt15_Sp_counted_ptrIP4GameLN9__gnu_cxx12_Lock_policyE2EED5Ev,comdat
	.align 2
	.p2align 4
	.weak	_ZNSt15_Sp_counted_ptrIP4GameLN9__gnu_cxx12_Lock_policyE2EED0Ev
	.type	_ZNSt15_Sp_counted_ptrIP4GameLN9__gnu_cxx12_Lock_policyE2EED0Ev, @function
_ZNSt15_Sp_counted_ptrIP4GameLN9__gnu_cxx12_Lock_policyE2EED0Ev:
.LFB13343:
	.cfi_startproc
	endbr64
	movl	$24, %esi
	jmp	_ZdlPvm@PLT
	.cfi_endproc
.LFE13343:
	.size	_ZNSt15_Sp_counted_ptrIP4GameLN9__gnu_cxx12_Lock_policyE2EED0Ev, .-_ZNSt15_Sp_counted_ptrIP4GameLN9__gnu_cxx12_Lock_policyE2EED0Ev
	.section	.text._ZNSt15_Sp_counted_ptrIP4GameLN9__gnu_cxx12_Lock_policyE2EE10_M_destroyEv,"axG",@progbits,_ZNSt15_Sp_counted_ptrIP4GameLN9__gnu_cxx12_Lock_policyE2EE10_M_destroyEv,comdat
	.align 2
	.p2align 4
	.weak	_ZNSt15_Sp_counted_ptrIP4GameLN9__gnu_cxx12_Lock_policyE2EE10_M_destroyEv
	.type	_ZNSt15_Sp_counted_ptrIP4GameLN9__gnu_cxx12_Lock_policyE2EE10_M_destroyEv, @function
_ZNSt15_Sp_counted_ptrIP4GameLN9__gnu_cxx12_Lock_policyE2EE10_M_destroyEv:
.LFB13362:
	.cfi_startproc
	endbr64
	movl	$24, %esi
	jmp	_ZdlPvm@PLT
	.cfi_endproc
.LFE13362:
	.size	_ZNSt15_Sp_counted_ptrIP4GameLN9__gnu_cxx12_Lock_policyE2EE10_M_destroyEv, .-_ZNSt15_Sp_counted_ptrIP4GameLN9__gnu_cxx12_Lock_policyE2EE10_M_destroyEv
	.section	.rodata._ZNSt7__cxx1112basic_stringIcSt11char_traitsIcESaIcEE12_M_constructIPKcEEvT_S8_St20forward_iterator_tag.isra.0.str1.8,"aMS",@progbits,1
	.align 8
.LC0:
	.string	"basic_string::_M_construct null not valid"
	.section	.rodata._ZNSt7__cxx1112basic_stringIcSt11char_traitsIcESaIcEE12_M_constructIPKcEEvT_S8_St20forward_iterator_tag.isra.0.str1.1,"aMS",@progbits,1
.LC1:
	.string	"basic_string::_M_create"
	.section	.text._ZNSt7__cxx1112basic_stringIcSt11char_traitsIcESaIcEE12_M_constructIPKcEEvT_S8_St20forward_iterator_tag.isra.0,"axG",@progbits,_ZN5error13sdl_exceptionESt17basic_string_viewIcSt11char_traitsIcEE,comdat
	.align 2
	.p2align 4
	.type	_ZNSt7__cxx1112basic_stringIcSt11char_traitsIcESaIcEE12_M_constructIPKcEEvT_S8_St20forward_iterator_tag.isra.0, @function
_ZNSt7__cxx1112basic_stringIcSt11char_traitsIcESaIcEE12_M_constructIPKcEEvT_S8_St20forward_iterator_tag.isra.0:
.LFB13390:
	.cfi_startproc
	pushq	%r12
	.cfi_def_cfa_offset 16
	.cfi_offset 12, -16
	movq	%rsi, %r12
	pushq	%rbp
	.cfi_def_cfa_offset 24
	.cfi_offset 6, -24
	movq	%rdi, %rbp
	pushq	%rbx
	.cfi_def_cfa_offset 32
	.cfi_offset 3, -32
	movq	%rdx, %rbx
	testq	%rdx, %rdx
	je	.L7
	testq	%rsi, %rsi
	je	.L24
.L7:
	subq	%r12, %rbx
	cmpq	$15, %rbx
	ja	.L25
	movq	0(%rbp), %rdi
	cmpq	$1, %rbx
	je	.L26
	testq	%rbx, %rbx
	jne	.L11
	movq	%rbx, 8(%rbp)
	movb	$0, (%rdi,%rbx)
	popq	%rbx
	.cfi_remember_state
	.cfi_def_cfa_offset 24
	popq	%rbp
	.cfi_def_cfa_offset 16
	popq	%r12
	.cfi_def_cfa_offset 8
	ret
	.p2align 4,,10
	.p2align 3
.L26:
	.cfi_restore_state
	movzbl	(%r12), %eax
	movb	%al, (%rdi)
	movq	0(%rbp), %rdi
	movq	%rbx, 8(%rbp)
	movb	$0, (%rdi,%rbx)
	popq	%rbx
	.cfi_remember_state
	.cfi_def_cfa_offset 24
	popq	%rbp
	.cfi_def_cfa_offset 16
	popq	%r12
	.cfi_def_cfa_offset 8
	ret
	.p2align 4,,10
	.p2align 3
.L25:
	.cfi_restore_state
	testq	%rbx, %rbx
	js	.L27
	movq	%rbx, %rdi
	addq	$1, %rdi
	js	.L28
	call	_Znwm@PLT
	movq	%rbx, 16(%rbp)
	movq	%rax, 0(%rbp)
	movq	%rax, %rdi
.L11:
	movq	%rbx, %rdx
	movq	%r12, %rsi
	call	memcpy@PLT
	movq	0(%rbp), %rdi
	movq	%rbx, 8(%rbp)
	movb	$0, (%rdi,%rbx)
	popq	%rbx
	.cfi_remember_state
	.cfi_def_cfa_offset 24
	popq	%rbp
	.cfi_def_cfa_offset 16
	popq	%r12
	.cfi_def_cfa_offset 8
	ret
.L24:
	.cfi_restore_state
	leaq	.LC0(%rip), %rdi
	call	_ZSt19__throw_logic_errorPKc@PLT
	.p2align 4,,10
	.p2align 3
.L28:
	call	_ZSt17__throw_bad_allocv@PLT
.L27:
	leaq	.LC1(%rip), %rdi
	call	_ZSt20__throw_length_errorPKc@PLT
	.cfi_endproc
.LFE13390:
	.size	_ZNSt7__cxx1112basic_stringIcSt11char_traitsIcESaIcEE12_M_constructIPKcEEvT_S8_St20forward_iterator_tag.isra.0, .-_ZNSt7__cxx1112basic_stringIcSt11char_traitsIcESaIcEE12_M_constructIPKcEEvT_S8_St20forward_iterator_tag.isra.0
	.section	.text._ZNSt15_Sp_counted_ptrIP4GameLN9__gnu_cxx12_Lock_policyE2EE10_M_disposeEv,"axG",@progbits,_ZNSt15_Sp_counted_ptrIP4GameLN9__gnu_cxx12_Lock_policyE2EE10_M_disposeEv,comdat
	.align 2
	.p2align 4
	.weak	_ZNSt15_Sp_counted_ptrIP4GameLN9__gnu_cxx12_Lock_policyE2EE10_M_disposeEv
	.type	_ZNSt15_Sp_counted_ptrIP4GameLN9__gnu_cxx12_Lock_policyE2EE10_M_disposeEv, @function
_ZNSt15_Sp_counted_ptrIP4GameLN9__gnu_cxx12_Lock_policyE2EE10_M_disposeEv:
.LFB13361:
	.cfi_startproc
	endbr64
	pushq	%r13
	.cfi_def_cfa_offset 16
	.cfi_offset 13, -16
	pushq	%r12
	.cfi_def_cfa_offset 24
	.cfi_offset 12, -24
	pushq	%rbp
	.cfi_def_cfa_offset 32
	.cfi_offset 6, -32
	pushq	%rbx
	.cfi_def_cfa_offset 40
	.cfi_offset 3, -40
	subq	$8, %rsp
	.cfi_def_cfa_offset 48
	movq	16(%rdi), %r13
	testq	%r13, %r13
	je	.L29
	leaq	16+_ZTV4Game(%rip), %rax
	movq	32(%r13), %rdi
	movq	%rax, 0(%r13)
	leaq	48(%r13), %rax
	cmpq	%rax, %rdi
	je	.L31
	movq	48(%r13), %rax
	leaq	1(%rax), %rsi
	call	_ZdlPvm@PLT
.L31:
	movq	16(%r13), %rbx
	movq	8(%r13), %rbp
	cmpq	%rbp, %rbx
	jne	.L40
	testq	%rbp, %rbp
	je	.L41
	.p2align 4,,10
	.p2align 3
.L51:
	movq	24(%r13), %rsi
	movq	%rbp, %rdi
	subq	%rbp, %rsi
	call	_ZdlPvm@PLT
.L41:
	addq	$8, %rsp
	.cfi_remember_state
	.cfi_def_cfa_offset 40
	movq	%r13, %rdi
	movl	$64, %esi
	popq	%rbx
	.cfi_def_cfa_offset 32
	popq	%rbp
	.cfi_def_cfa_offset 24
	popq	%r12
	.cfi_def_cfa_offset 16
	popq	%r13
	.cfi_def_cfa_offset 8
	jmp	_ZdlPvm@PLT
	.p2align 4,,10
	.p2align 3
.L50:
	.cfi_restore_state
	movq	(%r12), %rax
	movq	%r12, %rdi
	call	*16(%rax)
	cmpb	$0, __libc_single_threaded(%rip)
	je	.L38
	movl	12(%r12), %eax
	leal	-1(%rax), %edx
	movl	%edx, 12(%r12)
.L39:
	cmpl	$1, %eax
	je	.L48
	.p2align 4,,10
	.p2align 3
.L34:
	addq	$16, %rbp
	cmpq	%rbp, %rbx
	je	.L49
.L40:
	movq	8(%rbp), %r12
	testq	%r12, %r12
	je	.L34
	cmpb	$0, __libc_single_threaded(%rip)
	je	.L35
	movl	8(%r12), %eax
	leal	-1(%rax), %edx
	movl	%edx, 8(%r12)
.L36:
	cmpl	$1, %eax
	je	.L50
	addq	$16, %rbp
	cmpq	%rbp, %rbx
	jne	.L40
.L49:
	movq	8(%r13), %rbp
	testq	%rbp, %rbp
	jne	.L51
	jmp	.L41
	.p2align 4,,10
	.p2align 3
.L35:
	movl	$-1, %eax
	lock xaddl	%eax, 8(%r12)
	jmp	.L36
	.p2align 4,,10
	.p2align 3
.L48:
	movq	(%r12), %rax
	movq	%r12, %rdi
	call	*24(%rax)
	jmp	.L34
	.p2align 4,,10
	.p2align 3
.L29:
	addq	$8, %rsp
	.cfi_remember_state
	.cfi_def_cfa_offset 40
	popq	%rbx
	.cfi_def_cfa_offset 32
	popq	%rbp
	.cfi_def_cfa_offset 24
	popq	%r12
	.cfi_def_cfa_offset 16
	popq	%r13
	.cfi_def_cfa_offset 8
	ret
	.p2align 4,,10
	.p2align 3
.L38:
	.cfi_restore_state
	movl	$-1, %eax
	lock xaddl	%eax, 12(%r12)
	jmp	.L39
	.cfi_endproc
.LFE13361:
	.size	_ZNSt15_Sp_counted_ptrIP4GameLN9__gnu_cxx12_Lock_policyE2EE10_M_disposeEv, .-_ZNSt15_Sp_counted_ptrIP4GameLN9__gnu_cxx12_Lock_policyE2EE10_M_disposeEv
	.text
	.align 2
	.p2align 4
	.type	_ZNSt10_HashtableINSt7__cxx1112basic_stringIcSt11char_traitsIcESaIcEEESt4pairIKS5_7TextureESaIS9_ENSt8__detail10_Select1stESt8equal_toIS5_ESt4hashIS5_ENSB_18_Mod_range_hashingENSB_20_Default_ranged_hashENSB_20_Prime_rehash_policyENSB_17_Hashtable_traitsILb1ELb0ELb1EEEE14_M_move_assignEOSM_St17integral_constantIbLb1EE.isra.0, @function
_ZNSt10_HashtableINSt7__cxx1112basic_stringIcSt11char_traitsIcESaIcEEESt4pairIKS5_7TextureESaIS9_ENSt8__detail10_Select1stESt8equal_toIS5_ESt4hashIS5_ENSB_18_Mod_range_hashingENSB_20_Default_ranged_hashENSB_20_Prime_rehash_policyENSB_17_Hashtable_traitsILb1ELb0ELb1EEEE14_M_move_assignEOSM_St17integral_constantIbLb1EE.isra.0:
.LFB13395:
	.cfi_startproc
	cmpq	%rdi, %rsi
	je	.L85
	pushq	%r14
	.cfi_def_cfa_offset 16
	.cfi_offset 14, -16
	movq	%rdi, %r14
	pushq	%r13
	.cfi_def_cfa_offset 24
	.cfi_offset 13, -24
	movq	%rsi, %r13
	pushq	%r12
	.cfi_def_cfa_offset 32
	.cfi_offset 12, -32
	pushq	%rbp
	.cfi_def_cfa_offset 40
	.cfi_offset 6, -40
	pushq	%rbx
	.cfi_def_cfa_offset 48
	.cfi_offset 3, -48
	movq	16(%rdi), %rbp
	testq	%rbp, %rbp
	jne	.L71
	jmp	.L54
	.p2align 4,,10
	.p2align 3
.L56:
	movq	48(%rbp), %r12
	testq	%r12, %r12
	je	.L63
	cmpb	$0, __libc_single_threaded(%rip)
	je	.L64
	movl	8(%r12), %eax
	leal	-1(%rax), %edx
	movl	%edx, 8(%r12)
.L65:
	cmpl	$1, %eax
	je	.L88
.L63:
	movq	8(%rbp), %rdi
	leaq	24(%rbp), %rax
	cmpq	%rax, %rdi
	je	.L69
	movq	24(%rbp), %rax
	leaq	1(%rax), %rsi
	call	_ZdlPvm@PLT
.L69:
	movl	$88, %esi
	movq	%rbp, %rdi
	call	_ZdlPvm@PLT
	testq	%rbx, %rbx
	je	.L54
	movq	%rbx, %rbp
.L71:
	movq	64(%rbp), %r12
	movq	0(%rbp), %rbx
	testq	%r12, %r12
	je	.L56
	cmpb	$0, __libc_single_threaded(%rip)
	je	.L57
	movl	8(%r12), %eax
	leal	-1(%rax), %edx
	movl	%edx, 8(%r12)
.L58:
	cmpl	$1, %eax
	jne	.L56
	movq	(%r12), %rax
	movq	%r12, %rdi
	call	*16(%rax)
	cmpb	$0, __libc_single_threaded(%rip)
	je	.L60
	movl	12(%r12), %eax
	leal	-1(%rax), %edx
	movl	%edx, 12(%r12)
.L61:
	cmpl	$1, %eax
	jne	.L56
	movq	(%r12), %rax
	movq	%r12, %rdi
	call	*24(%rax)
	jmp	.L56
	.p2align 4,,10
	.p2align 3
.L88:
	movq	(%r12), %rax
	movq	%r12, %rdi
	call	*16(%rax)
	cmpb	$0, __libc_single_threaded(%rip)
	je	.L67
	movl	12(%r12), %eax
	leal	-1(%rax), %edx
	movl	%edx, 12(%r12)
.L68:
	cmpl	$1, %eax
	jne	.L63
	movq	(%r12), %rax
	movq	%r12, %rdi
	call	*24(%rax)
	jmp	.L63
	.p2align 4,,10
	.p2align 3
.L64:
	movl	$-1, %eax
	lock xaddl	%eax, 8(%r12)
	jmp	.L65
	.p2align 4,,10
	.p2align 3
.L57:
	movl	$-1, %eax
	lock xaddl	%eax, 8(%r12)
	jmp	.L58
	.p2align 4,,10
	.p2align 3
.L54:
	movq	(%r14), %rdi
	leaq	48(%r14), %rbx
	movq	8(%r14), %rsi
	cmpq	%rbx, %rdi
	je	.L72
	salq	$3, %rsi
	call	_ZdlPvm@PLT
.L72:
	movdqu	32(%r13), %xmm0
	movq	0(%r13), %rcx
	leaq	48(%r13), %rdi
	movups	%xmm0, 32(%r14)
	cmpq	%rdi, %rcx
	je	.L89
.L73:
	movq	8(%r13), %rsi
	movq	16(%r13), %rax
	movq	%rcx, (%r14)
	movq	24(%r13), %rdx
	movq	%rsi, 8(%r14)
	movq	%rax, 16(%r14)
	movq	%rdx, 24(%r14)
	testq	%rax, %rax
	je	.L74
	movq	80(%rax), %rax
	xorl	%edx, %edx
	addq	$16, %r14
	divq	%rsi
	movq	%r14, (%rcx,%rdx,8)
.L74:
	movq	$0, 40(%r13)
	movq	$1, 8(%r13)
	movq	$0, 48(%r13)
	movq	%rdi, 0(%r13)
	movq	$0, 16(%r13)
	movq	$0, 24(%r13)
	popq	%rbx
	.cfi_remember_state
	.cfi_def_cfa_offset 40
	popq	%rbp
	.cfi_def_cfa_offset 32
	popq	%r12
	.cfi_def_cfa_offset 24
	popq	%r13
	.cfi_def_cfa_offset 16
	popq	%r14
	.cfi_def_cfa_offset 8
	ret
	.p2align 4,,10
	.p2align 3
.L67:
	.cfi_restore_state
	movl	$-1, %eax
	lock xaddl	%eax, 12(%r12)
	jmp	.L68
	.p2align 4,,10
	.p2align 3
.L60:
	movl	$-1, %eax
	lock xaddl	%eax, 12(%r12)
	jmp	.L61
	.p2align 4,,10
	.p2align 3
.L85:
	.cfi_def_cfa_offset 8
	.cfi_restore 3
	.cfi_restore 6
	.cfi_restore 12
	.cfi_restore 13
	.cfi_restore 14
	ret
	.p2align 4,,10
	.p2align 3
.L89:
	.cfi_def_cfa_offset 48
	.cfi_offset 3, -48
	.cfi_offset 6, -40
	.cfi_offset 12, -32
	.cfi_offset 13, -24
	.cfi_offset 14, -16
	movq	48(%r13), %rax
	movq	%rbx, %rcx
	movq	%rax, 48(%r14)
	jmp	.L73
	.cfi_endproc
.LFE13395:
	.size	_ZNSt10_HashtableINSt7__cxx1112basic_stringIcSt11char_traitsIcESaIcEEESt4pairIKS5_7TextureESaIS9_ENSt8__detail10_Select1stESt8equal_toIS5_ESt4hashIS5_ENSB_18_Mod_range_hashingENSB_20_Default_ranged_hashENSB_20_Prime_rehash_policyENSB_17_Hashtable_traitsILb1ELb0ELb1EEEE14_M_move_assignEOSM_St17integral_constantIbLb1EE.isra.0, .-_ZNSt10_HashtableINSt7__cxx1112basic_stringIcSt11char_traitsIcESaIcEEESt4pairIKS5_7TextureESaIS9_ENSt8__detail10_Select1stESt8equal_toIS5_ESt4hashIS5_ENSB_18_Mod_range_hashingENSB_20_Default_ranged_hashENSB_20_Prime_rehash_policyENSB_17_Hashtable_traitsILb1ELb0ELb1EEEE14_M_move_assignEOSM_St17integral_constantIbLb1EE.isra.0
	.align 2
	.p2align 4
	.globl	_ZN6Engine18SDL_to_input_eventE17SDL_KeyboardEvent
	.type	_ZN6Engine18SDL_to_input_eventE17SDL_KeyboardEvent, @function
_ZN6Engine18SDL_to_input_eventE17SDL_KeyboardEvent:
.LFB11946:
	.cfi_startproc
	endbr64
	movl	28(%rsp), %eax
	cmpl	$119, %eax
	je	.L101
	jg	.L92
	cmpl	$32, %eax
	jg	.L93
	xorl	%r8d, %r8d
	cmpl	$7, %eax
	jle	.L90
	subl	$8, %eax
	cmpl	$24, %eax
	ja	.L94
	leaq	.L96(%rip), %rdx
	movslq	(%rdx,%rax,4), %rax
	addq	%rdx, %rax
	notrack jmp	*%rax
	.section	.rodata
	.align 4
	.align 4
.L96:
	.long	.L99-.L96
	.long	.L98-.L96
	.long	.L94-.L96
	.long	.L94-.L96
	.long	.L94-.L96
	.long	.L103-.L96
	.long	.L94-.L96
	.long	.L94-.L96
	.long	.L94-.L96
	.long	.L94-.L96
	.long	.L94-.L96
	.long	.L94-.L96
	.long	.L94-.L96
	.long	.L94-.L96
	.long	.L94-.L96
	.long	.L94-.L96
	.long	.L94-.L96
	.long	.L94-.L96
	.long	.L94-.L96
	.long	.L97-.L96
	.long	.L94-.L96
	.long	.L94-.L96
	.long	.L94-.L96
	.long	.L94-.L96
	.long	.L95-.L96
	.text
	.p2align 4,,10
	.p2align 3
.L94:
	xorl	%r8d, %r8d
.L90:
	movl	%r8d, %eax
	ret
	.p2align 4,,10
	.p2align 3
.L93:
	movl	$128, %r8d
	cmpl	$100, %eax
	je	.L90
	cmpl	$115, %eax
	jne	.L117
	movl	$64, %r8d
	movl	%r8d, %eax
	ret
	.p2align 4,,10
	.p2align 3
.L92:
	cmpl	$1073741906, %eax
	je	.L107
	jle	.L118
	movl	$512, %r8d
	cmpl	$1073742049, %eax
	je	.L90
	cmpl	$1073742050, %eax
	jne	.L119
	movl	$2048, %r8d
	jmp	.L90
.L117:
	xorl	%r8d, %r8d
	cmpl	$97, %eax
	movl	$32, %eax
	cmove	%eax, %r8d
	jmp	.L90
.L119:
	xorl	%r8d, %r8d
	cmpl	$1073742048, %eax
	movl	$1024, %eax
	cmove	%eax, %r8d
	jmp	.L90
	.p2align 4,,10
	.p2align 3
.L118:
	movl	$2, %r8d
	cmpl	$1073741904, %eax
	je	.L90
	cmpl	$1073741905, %eax
	jne	.L120
	movl	$8, %r8d
	jmp	.L90
.L120:
	xorl	%r8d, %r8d
	cmpl	$1073741903, %eax
	sete	%r8b
	jmp	.L90
	.p2align 4,,10
	.p2align 3
.L103:
	movl	$4096, %r8d
	jmp	.L90
	.p2align 4,,10
	.p2align 3
.L97:
	movl	$8192, %r8d
	jmp	.L90
	.p2align 4,,10
	.p2align 3
.L99:
	movl	$32768, %r8d
	jmp	.L90
	.p2align 4,,10
	.p2align 3
.L98:
	movl	$16384, %r8d
	jmp	.L90
	.p2align 4,,10
	.p2align 3
.L107:
	movl	$4, %r8d
	jmp	.L90
	.p2align 4,,10
	.p2align 3
.L101:
	movl	$16, %r8d
	jmp	.L90
	.p2align 4,,10
	.p2align 3
.L95:
	movl	$256, %r8d
	jmp	.L90
	.cfi_endproc
.LFE11946:
	.size	_ZN6Engine18SDL_to_input_eventE17SDL_KeyboardEvent, .-_ZN6Engine18SDL_to_input_eventE17SDL_KeyboardEvent
	.align 2
	.p2align 4
	.globl	_ZN6Engine18SDL_to_input_eventE20SDL_MouseButtonEvent
	.type	_ZN6Engine18SDL_to_input_eventE20SDL_MouseButtonEvent, @function
_ZN6Engine18SDL_to_input_eventE20SDL_MouseButtonEvent:
.LFB11947:
	.cfi_startproc
	endbr64
	movzbl	24(%rsp), %eax
	xorl	%r8d, %r8d
	subl	$1, %eax
	cmpb	$2, %al
	ja	.L121
	movzbl	%al, %eax
	leaq	CSWTCH.221(%rip), %rdx
	movl	(%rdx,%rax,4), %r8d
.L121:
	movl	%r8d, %eax
	ret
	.cfi_endproc
.LFE11947:
	.size	_ZN6Engine18SDL_to_input_eventE20SDL_MouseButtonEvent, .-_ZN6Engine18SDL_to_input_eventE20SDL_MouseButtonEvent
	.align 2
	.p2align 4
	.globl	_ZN6Engine16send_mouse_hoverEv
	.type	_ZN6Engine16send_mouse_hoverEv, @function
_ZN6Engine16send_mouse_hoverEv:
.LFB11948:
	.cfi_startproc
	endbr64
	pushq	%r13
	.cfi_def_cfa_offset 16
	.cfi_offset 13, -16
	pushq	%r12
	.cfi_def_cfa_offset 24
	.cfi_offset 12, -24
	pushq	%rbp
	.cfi_def_cfa_offset 32
	.cfi_offset 6, -32
	movq	%rdi, %rbp
	pushq	%rbx
	.cfi_def_cfa_offset 40
	.cfi_offset 3, -40
	subq	$40, %rsp
	.cfi_def_cfa_offset 80
	movq	%fs:40, %rax
	movq	%rax, 24(%rsp)
	xorl	%eax, %eax
	leaq	4(%rsp), %rsi
	movq	%rsp, %rdi
	leaq	16(%rsp), %r13
	call	SDL_GetMouseState@PLT
	movq	16(%rbp), %rcx
	leaq	32(%rbp), %rsi
	movq	%r13, %rdx
	movd	(%rsp), %xmm0
	movd	4(%rsp), %xmm1
	leaq	8(%rsp), %rdi
	punpckldq	%xmm1, %xmm0
	cvtdq2ps	%xmm0, %xmm0
	movlps	%xmm0, 16(%rsp)
	call	_ZN9Render_2D15raster_to_worldE6Point2IfER8Camera2D@PLT
	movq	160(%rbp), %rbx
	movq	168(%rbp), %r12
	cmpq	%rbx, %r12
	jne	.L128
	jmp	.L124
	.p2align 4,,10
	.p2align 3
.L135:
	call	_ZN6Entity18enable_mouse_hoverEv@PLT
	movq	(%rbx), %rdi
	movl	$65536, %edx
	movq	%rbp, %rsi
	movq	(%rdi), %rax
	call	*(%rax)
.L127:
	addq	$16, %rbx
	cmpq	%rbx, %r12
	je	.L124
.L128:
	movq	(%rbx), %rdi
	movq	8(%rsp), %rax
	movq	%r13, %rdx
	movq	%rbp, %rsi
	movq	%rax, 16(%rsp)
	call	_ZNK6Entity18contains_the_mouseER6Engine6Point2IfE@PLT
	movq	(%rbx), %rdi
	testb	%al, %al
	jne	.L135
	call	_ZNK6Entity18mouse_was_hoveringEv@PLT
	testb	%al, %al
	je	.L127
	movq	(%rbx), %rdi
	addq	$16, %rbx
	call	_ZN6Entity19disable_mouse_hoverEv@PLT
	movq	-16(%rbx), %rdi
	movl	$65536, %edx
	movq	%rbp, %rsi
	movq	(%rdi), %rax
	call	*8(%rax)
	cmpq	%rbx, %r12
	jne	.L128
	.p2align 4,,10
	.p2align 3
.L124:
	movq	24(%rsp), %rax
	subq	%fs:40, %rax
	jne	.L136
	addq	$40, %rsp
	.cfi_remember_state
	.cfi_def_cfa_offset 40
	popq	%rbx
	.cfi_def_cfa_offset 32
	popq	%rbp
	.cfi_def_cfa_offset 24
	popq	%r12
	.cfi_def_cfa_offset 16
	popq	%r13
	.cfi_def_cfa_offset 8
	ret
.L136:
	.cfi_restore_state
	call	__stack_chk_fail@PLT
	.cfi_endproc
.LFE11948:
	.size	_ZN6Engine16send_mouse_hoverEv, .-_ZN6Engine16send_mouse_hoverEv
	.align 2
	.p2align 4
	.globl	_ZN6Engine15send_event_downEN8EngineIO10InputEventE
	.type	_ZN6Engine15send_event_downEN8EngineIO10InputEventE, @function
_ZN6Engine15send_event_downEN8EngineIO10InputEventE:
.LFB11953:
	.cfi_startproc
	endbr64
	pushq	%r13
	.cfi_def_cfa_offset 16
	.cfi_offset 13, -16
	movl	%esi, %edx
	pushq	%r12
	.cfi_def_cfa_offset 24
	.cfi_offset 12, -24
	movl	%esi, %r12d
	pushq	%rbp
	.cfi_def_cfa_offset 32
	.cfi_offset 6, -32
	movq	%rdi, %rbp
	pushq	%rbx
	.cfi_def_cfa_offset 40
	.cfi_offset 3, -40
	movq	%rbp, %rsi
	subq	$8, %rsp
	.cfi_def_cfa_offset 48
	movq	(%rdi), %rdi
	movq	(%rdi), %rax
	call	*24(%rax)
	movq	16(%rbp), %rdi
	movl	%r12d, %edx
	movq	%rbp, %rsi
	movq	(%rdi), %rax
	call	*8(%rax)
	movq	160(%rbp), %rbx
	movq	168(%rbp), %r13
	cmpq	%rbx, %r13
	je	.L137
	.p2align 4,,10
	.p2align 3
.L139:
	movq	(%rbx), %rdi
	addq	$16, %rbx
	movl	%r12d, %edx
	movq	%rbp, %rsi
	movq	(%rdi), %rax
	call	*(%rax)
	cmpq	%rbx, %r13
	jne	.L139
.L137:
	addq	$8, %rsp
	.cfi_def_cfa_offset 40
	popq	%rbx
	.cfi_def_cfa_offset 32
	popq	%rbp
	.cfi_def_cfa_offset 24
	popq	%r12
	.cfi_def_cfa_offset 16
	popq	%r13
	.cfi_def_cfa_offset 8
	ret
	.cfi_endproc
.LFE11953:
	.size	_ZN6Engine15send_event_downEN8EngineIO10InputEventE, .-_ZN6Engine15send_event_downEN8EngineIO10InputEventE
	.align 2
	.p2align 4
	.globl	_ZN6Engine13send_event_upEN8EngineIO10InputEventE
	.type	_ZN6Engine13send_event_upEN8EngineIO10InputEventE, @function
_ZN6Engine13send_event_upEN8EngineIO10InputEventE:
.LFB11954:
	.cfi_startproc
	endbr64
	pushq	%r13
	.cfi_def_cfa_offset 16
	.cfi_offset 13, -16
	movl	%esi, %edx
	pushq	%r12
	.cfi_def_cfa_offset 24
	.cfi_offset 12, -24
	movl	%esi, %r12d
	pushq	%rbp
	.cfi_def_cfa_offset 32
	.cfi_offset 6, -32
	movq	%rdi, %rbp
	pushq	%rbx
	.cfi_def_cfa_offset 40
	.cfi_offset 3, -40
	movq	%rbp, %rsi
	subq	$8, %rsp
	.cfi_def_cfa_offset 48
	movq	(%rdi), %rdi
	movq	(%rdi), %rax
	call	*32(%rax)
	movq	16(%rbp), %rdi
	movl	%r12d, %edx
	movq	%rbp, %rsi
	movq	(%rdi), %rax
	call	*16(%rax)
	movq	160(%rbp), %rbx
	movq	168(%rbp), %r13
	cmpq	%rbx, %r13
	je	.L142
	.p2align 4,,10
	.p2align 3
.L144:
	movq	(%rbx), %rdi
	addq	$16, %rbx
	movl	%r12d, %edx
	movq	%rbp, %rsi
	movq	(%rdi), %rax
	call	*8(%rax)
	cmpq	%rbx, %r13
	jne	.L144
.L142:
	addq	$8, %rsp
	.cfi_def_cfa_offset 40
	popq	%rbx
	.cfi_def_cfa_offset 32
	popq	%rbp
	.cfi_def_cfa_offset 24
	popq	%r12
	.cfi_def_cfa_offset 16
	popq	%r13
	.cfi_def_cfa_offset 8
	ret
	.cfi_endproc
.LFE11954:
	.size	_ZN6Engine13send_event_upEN8EngineIO10InputEventE, .-_ZN6Engine13send_event_upEN8EngineIO10InputEventE
	.align 2
	.p2align 4
	.globl	_ZN6Engine18change_input_stateEN8EngineIO10InputEventEb
	.type	_ZN6Engine18change_input_stateEN8EngineIO10InputEventEb, @function
_ZN6Engine18change_input_stateEN8EngineIO10InputEventEb:
.LFB11955:
	.cfi_startproc
	endbr64
	movq	184(%rdi), %rax
	testb	%dl, %dl
	je	.L148
	movslq	%esi, %rsi
	orq	%rsi, %rax
	movq	%rax, 184(%rdi)
	ret
	.p2align 4,,10
	.p2align 3
.L148:
	notl	%esi
	movslq	%esi, %rsi
	andq	%rsi, %rax
	movq	%rax, 184(%rdi)
	ret
	.cfi_endproc
.LFE11955:
	.size	_ZN6Engine18change_input_stateEN8EngineIO10InputEventEb, .-_ZN6Engine18change_input_stateEN8EngineIO10InputEventEb
	.align 2
	.p2align 4
	.globl	_ZN6Engine18get_mouse_positionEv
	.type	_ZN6Engine18get_mouse_positionEv, @function
_ZN6Engine18get_mouse_positionEv:
.LFB11956:
	.cfi_startproc
	endbr64
	pushq	%r12
	.cfi_def_cfa_offset 16
	.cfi_offset 12, -16
	movq	%rdi, %r12
	pushq	%rbx
	.cfi_def_cfa_offset 24
	.cfi_offset 3, -24
	movq	%rsi, %rbx
	subq	$40, %rsp
	.cfi_def_cfa_offset 64
	movq	%fs:40, %rax
	movq	%rax, 24(%rsp)
	xorl	%eax, %eax
	leaq	12(%rsp), %rsi
	leaq	8(%rsp), %rdi
	call	SDL_GetMouseState@PLT
	movq	16(%rbx), %rcx
	leaq	32(%rbx), %rsi
	movq	%r12, %rdi
	movd	8(%rsp), %xmm0
	movd	12(%rsp), %xmm1
	leaq	16(%rsp), %rdx
	punpckldq	%xmm1, %xmm0
	cvtdq2ps	%xmm0, %xmm0
	movlps	%xmm0, 16(%rsp)
	call	_ZN9Render_2D15raster_to_worldE6Point2IfER8Camera2D@PLT
	movq	24(%rsp), %rax
	subq	%fs:40, %rax
	jne	.L153
	addq	$40, %rsp
	.cfi_remember_state
	.cfi_def_cfa_offset 24
	movq	%r12, %rax
	popq	%rbx
	.cfi_def_cfa_offset 16
	popq	%r12
	.cfi_def_cfa_offset 8
	ret
.L153:
	.cfi_restore_state
	call	__stack_chk_fail@PLT
	.cfi_endproc
.LFE11956:
	.size	_ZN6Engine18get_mouse_positionEv, .-_ZN6Engine18get_mouse_positionEv
	.align 2
	.p2align 4
	.globl	_ZNK6Engine20ray_march_alpha_initER3RayRfffSt10shared_ptrI6EntityE
	.type	_ZNK6Engine20ray_march_alpha_initER3RayRfffSt10shared_ptrI6EntityE, @function
_ZNK6Engine20ray_march_alpha_initER3RayRfffSt10shared_ptrI6EntityE:
.LFB11957:
	.cfi_startproc
	endbr64
	pushq	%r14
	.cfi_def_cfa_offset 16
	.cfi_offset 14, -16
	subss	%xmm0, %xmm1
	movq	%rcx, %r14
	pushq	%r13
	.cfi_def_cfa_offset 24
	.cfi_offset 13, -24
	xorl	%r13d, %r13d
	pushq	%r12
	.cfi_def_cfa_offset 32
	.cfi_offset 12, -32
	movq	%rsi, %r12
	pushq	%rbp
	.cfi_def_cfa_offset 40
	.cfi_offset 6, -40
	movq	%rdx, %rbp
	pushq	%rbx
	.cfi_def_cfa_offset 48
	.cfi_offset 3, -48
	subq	$32, %rsp
	.cfi_def_cfa_offset 80
	mulss	.LC2(%rip), %xmm1
	movss	%xmm0, 12(%rsp)
	leaq	16(%rsp), %rbx
	movq	%fs:40, %rax
	movq	%rax, 24(%rsp)
	xorl	%eax, %eax
	movss	%xmm1, 8(%rsp)
	jmp	.L157
	.p2align 4,,10
	.p2align 3
.L155:
	addl	$1, %r13d
	cmpl	$100, %r13d
	je	.L154
.L157:
	pxor	%xmm0, %xmm0
	movq	12(%r12), %xmm1
	movq	(%r14), %rdi
	movq	%rbx, %rsi
	cvtsi2ssl	%r13d, %xmm0
	mulss	8(%rsp), %xmm0
	addss	12(%rsp), %xmm0
	movaps	%xmm0, %xmm2
	movss	%xmm0, 4(%rsp)
	shufps	$0xe0, %xmm2, %xmm2
	mulps	%xmm2, %xmm1
	movq	(%r12), %xmm2
	addps	%xmm2, %xmm1
	movlps	%xmm1, 16(%rsp)
	call	_ZNK6Entity8containsE6Point2IfE@PLT
	movss	4(%rsp), %xmm0
	testb	%al, %al
	je	.L155
	movss	%xmm0, 0(%rbp)
.L154:
	movq	24(%rsp), %rdx
	subq	%fs:40, %rdx
	jne	.L161
	addq	$32, %rsp
	.cfi_remember_state
	.cfi_def_cfa_offset 48
	popq	%rbx
	.cfi_def_cfa_offset 40
	popq	%rbp
	.cfi_def_cfa_offset 32
	popq	%r12
	.cfi_def_cfa_offset 24
	popq	%r13
	.cfi_def_cfa_offset 16
	popq	%r14
	.cfi_def_cfa_offset 8
	ret
.L161:
	.cfi_restore_state
	call	__stack_chk_fail@PLT
	.cfi_endproc
.LFE11957:
	.size	_ZNK6Engine20ray_march_alpha_initER3RayRfffSt10shared_ptrI6EntityE, .-_ZNK6Engine20ray_march_alpha_initER3RayRfffSt10shared_ptrI6EntityE
	.align 2
	.p2align 4
	.globl	_ZNK6Engine19ray_march_alpha_endER3RayRfffSt10shared_ptrI6EntityE
	.type	_ZNK6Engine19ray_march_alpha_endER3RayRfffSt10shared_ptrI6EntityE, @function
_ZNK6Engine19ray_march_alpha_endER3RayRfffSt10shared_ptrI6EntityE:
.LFB11958:
	.cfi_startproc
	endbr64
	pushq	%r15
	.cfi_def_cfa_offset 16
	.cfi_offset 15, -16
	movaps	%xmm0, %xmm2
	movaps	%xmm1, %xmm0
	movd	%xmm1, %r15d
	pushq	%r14
	.cfi_def_cfa_offset 24
	.cfi_offset 14, -24
	subss	%xmm2, %xmm0
	movq	%rcx, %r14
	pushq	%r13
	.cfi_def_cfa_offset 32
	.cfi_offset 13, -32
	movq	%rsi, %r13
	pushq	%r12
	.cfi_def_cfa_offset 40
	.cfi_offset 12, -40
	xorl	%r12d, %r12d
	pushq	%rbp
	.cfi_def_cfa_offset 48
	.cfi_offset 6, -48
	movq	%rdx, %rbp
	pushq	%rbx
	.cfi_def_cfa_offset 56
	.cfi_offset 3, -56
	subq	$40, %rsp
	.cfi_def_cfa_offset 96
	movq	%fs:40, %rax
	movq	%rax, 24(%rsp)
	xorl	%eax, %eax
	mulss	.LC2(%rip), %xmm0
	leaq	16(%rsp), %rbx
	movss	%xmm0, 12(%rsp)
	jmp	.L165
	.p2align 4,,10
	.p2align 3
.L163:
	addl	$1, %r12d
	cmpl	$100, %r12d
	je	.L162
.L165:
	pxor	%xmm0, %xmm0
	movd	%r15d, %xmm1
	movq	(%r14), %rdi
	movq	%rbx, %rsi
	cvtsi2ssl	%r12d, %xmm0
	mulss	12(%rsp), %xmm0
	subss	%xmm0, %xmm1
	movq	12(%r13), %xmm0
	movaps	%xmm1, %xmm2
	movss	%xmm1, 8(%rsp)
	shufps	$0xe0, %xmm2, %xmm2
	mulps	%xmm2, %xmm0
	movq	0(%r13), %xmm2
	addps	%xmm2, %xmm0
	movlps	%xmm0, 16(%rsp)
	call	_ZNK6Entity8containsE6Point2IfE@PLT
	movss	8(%rsp), %xmm1
	testb	%al, %al
	je	.L163
	movss	%xmm1, 0(%rbp)
.L162:
	movq	24(%rsp), %rdx
	subq	%fs:40, %rdx
	jne	.L169
	addq	$40, %rsp
	.cfi_remember_state
	.cfi_def_cfa_offset 56
	popq	%rbx
	.cfi_def_cfa_offset 48
	popq	%rbp
	.cfi_def_cfa_offset 40
	popq	%r12
	.cfi_def_cfa_offset 32
	popq	%r13
	.cfi_def_cfa_offset 24
	popq	%r14
	.cfi_def_cfa_offset 16
	popq	%r15
	.cfi_def_cfa_offset 8
	ret
.L169:
	.cfi_restore_state
	call	__stack_chk_fail@PLT
	.cfi_endproc
.LFE11958:
	.size	_ZNK6Engine19ray_march_alpha_endER3RayRfffSt10shared_ptrI6EntityE, .-_ZNK6Engine19ray_march_alpha_endER3RayRfffSt10shared_ptrI6EntityE
	.align 2
	.p2align 4
	.globl	_ZN6Engine14process_eventsEv
	.type	_ZN6Engine14process_eventsEv, @function
_ZN6Engine14process_eventsEv:
.LFB11959:
	.cfi_startproc
	endbr64
	pushq	%r15
	.cfi_def_cfa_offset 16
	.cfi_offset 15, -16
	pushq	%r14
	.cfi_def_cfa_offset 24
	.cfi_offset 14, -24
	movq	%rdi, %r14
	pushq	%r13
	.cfi_def_cfa_offset 32
	.cfi_offset 13, -32
	leaq	.L179(%rip), %r13
	pushq	%r12
	.cfi_def_cfa_offset 40
	.cfi_offset 12, -40
	pushq	%rbp
	.cfi_def_cfa_offset 48
	.cfi_offset 6, -48
	pushq	%rbx
	.cfi_def_cfa_offset 56
	.cfi_offset 3, -56
	subq	$72, %rsp
	.cfi_def_cfa_offset 128
	movq	%fs:40, %rax
	movq	%rax, 56(%rsp)
	xorl	%eax, %eax
	movq	%rsp, %r12
	jmp	.L203
	.p2align 4,,10
	.p2align 3
.L173:
	cmpl	$769, %eax
	je	.L253
.L186:
	cmpl	$1025, %eax
	je	.L254
	cmpl	$1026, %eax
	je	.L255
.L203:
	movq	%r12, %rdi
	call	SDL_PollEvent@PLT
	testl	%eax, %eax
	je	.L256
.L208:
	movl	(%rsp), %eax
	cmpl	$256, %eax
	je	.L211
	cmpl	$768, %eax
	jne	.L173
	movl	20(%rsp), %eax
	cmpl	$113, %eax
	je	.L211
	cmpl	$119, %eax
	je	.L212
	jg	.L175
	cmpl	$32, %eax
	jg	.L176
	cmpl	$7, %eax
	jle	.L213
	subl	$8, %eax
	cmpl	$24, %eax
	ja	.L213
	movslq	0(%r13,%rax,4), %rax
	addq	%r13, %rax
	notrack jmp	*%rax
	.section	.rodata
	.align 4
	.align 4
.L179:
	.long	.L182-.L179
	.long	.L181-.L179
	.long	.L213-.L179
	.long	.L213-.L179
	.long	.L213-.L179
	.long	.L214-.L179
	.long	.L213-.L179
	.long	.L213-.L179
	.long	.L213-.L179
	.long	.L213-.L179
	.long	.L213-.L179
	.long	.L213-.L179
	.long	.L213-.L179
	.long	.L213-.L179
	.long	.L213-.L179
	.long	.L213-.L179
	.long	.L213-.L179
	.long	.L213-.L179
	.long	.L213-.L179
	.long	.L180-.L179
	.long	.L213-.L179
	.long	.L213-.L179
	.long	.L213-.L179
	.long	.L213-.L179
	.long	.L178-.L179
	.text
	.p2align 4,,10
	.p2align 3
.L213:
	xorl	%edx, %edx
	xorl	%r15d, %r15d
	.p2align 4,,10
	.p2align 3
.L174:
	movq	(%r14), %rdi
	orq	%rdx, 184(%r14)
	movq	%r14, %rsi
	movl	%r15d, %edx
	movq	(%rdi), %rcx
	call	*24(%rcx)
	movq	16(%r14), %rdi
	movl	%r15d, %edx
	movq	%r14, %rsi
	movq	(%rdi), %rcx
	call	*8(%rcx)
	movq	168(%r14), %rbx
	movq	160(%r14), %rbp
	cmpq	%rbx, %rbp
	je	.L250
	.p2align 4,,10
	.p2align 3
.L185:
	movq	0(%rbp), %rdi
	addq	$16, %rbp
	movl	%r15d, %edx
	movq	%r14, %rsi
	movq	(%rdi), %rcx
	call	*(%rcx)
	cmpq	%rbp, %rbx
	jne	.L185
.L250:
	movl	(%rsp), %eax
	cmpl	$769, %eax
	jne	.L186
.L253:
	movl	20(%rsp), %eax
	cmpl	$119, %eax
	je	.L225
	jg	.L188
	cmpl	$32, %eax
	jg	.L189
	cmpl	$7, %eax
	jle	.L226
	subl	$8, %eax
	cmpl	$24, %eax
	ja	.L226
	leaq	.L192(%rip), %rsi
	movslq	(%rsi,%rax,4), %rax
	addq	%rsi, %rax
	notrack jmp	*%rax
	.section	.rodata
	.align 4
	.align 4
.L192:
	.long	.L195-.L192
	.long	.L194-.L192
	.long	.L226-.L192
	.long	.L226-.L192
	.long	.L226-.L192
	.long	.L227-.L192
	.long	.L226-.L192
	.long	.L226-.L192
	.long	.L226-.L192
	.long	.L226-.L192
	.long	.L226-.L192
	.long	.L226-.L192
	.long	.L226-.L192
	.long	.L226-.L192
	.long	.L226-.L192
	.long	.L226-.L192
	.long	.L226-.L192
	.long	.L226-.L192
	.long	.L226-.L192
	.long	.L193-.L192
	.long	.L226-.L192
	.long	.L226-.L192
	.long	.L226-.L192
	.long	.L226-.L192
	.long	.L191-.L192
	.text
	.p2align 4,,10
	.p2align 3
.L254:
	movzbl	16(%rsp), %eax
	subl	$1, %eax
	cmpb	$2, %al
	ja	.L238
	leaq	CSWTCH.221(%rip), %rbx
	movzbl	%al, %eax
	movl	(%rbx,%rax,4), %eax
	movq	%rax, %rbx
.L200:
	movq	(%r14), %rdi
	orq	%rax, 184(%r14)
	movl	%ebx, %edx
	movq	%r14, %rsi
	movq	(%rdi), %rax
	call	*24(%rax)
	movq	16(%r14), %rdi
	movl	%ebx, %edx
	movq	%r14, %rsi
	movq	(%rdi), %rax
	call	*8(%rax)
	movq	168(%r14), %rbp
	movq	160(%r14), %r15
	cmpq	%rbp, %r15
	je	.L252
	.p2align 4,,10
	.p2align 3
.L202:
	movq	(%r15), %rdi
	addq	$16, %r15
	movl	%ebx, %edx
	movq	%r14, %rsi
	movq	(%rdi), %rcx
	call	*(%rcx)
	cmpq	%r15, %rbp
	jne	.L202
.L252:
	movl	(%rsp), %eax
	cmpl	$1026, %eax
	jne	.L203
.L255:
	movzbl	16(%rsp), %eax
	subl	$1, %eax
	cmpb	$2, %al
	ja	.L239
	movzbl	%al, %eax
	leaq	CSWTCH.221(%rip), %rdx
	movl	(%rdx,%rax,4), %ebx
	movl	%ebx, %eax
	notl	%eax
	cltq
.L204:
	movq	(%r14), %rdi
	andq	%rax, 184(%r14)
	movl	%ebx, %edx
	movq	%r14, %rsi
	movq	(%rdi), %rax
	call	*32(%rax)
	movq	16(%r14), %rdi
	movl	%ebx, %edx
	movq	%r14, %rsi
	movq	(%rdi), %rax
	call	*16(%rax)
	movq	168(%r14), %rbp
	movq	160(%r14), %r15
	cmpq	%rbp, %r15
	je	.L203
	.p2align 4,,10
	.p2align 3
.L206:
	movq	(%r15), %rdi
	addq	$16, %r15
	movl	%ebx, %edx
	movq	%r14, %rsi
	movq	(%rdi), %rax
	call	*8(%rax)
	cmpq	%r15, %rbp
	jne	.L206
	movq	%r12, %rdi
	call	SDL_PollEvent@PLT
	testl	%eax, %eax
	jne	.L208
.L256:
	movq	%r14, %rdi
	call	_ZN6Engine16send_mouse_hoverEv
	xorl	%eax, %eax
	jmp	.L170
	.p2align 4,,10
	.p2align 3
.L176:
	cmpl	$100, %eax
	je	.L215
	cmpl	$115, %eax
	jne	.L257
	movl	$64, %edx
	movl	$64, %r15d
	jmp	.L174
	.p2align 4,,10
	.p2align 3
.L175:
	cmpl	$1073741906, %eax
	je	.L218
	jle	.L258
	cmpl	$1073742049, %eax
	je	.L222
	cmpl	$1073742050, %eax
	jne	.L259
	movl	$2048, %edx
	movl	$2048, %r15d
	jmp	.L174
.L257:
	xorl	%edx, %edx
	cmpl	$97, %eax
	movl	$32, %eax
	movl	$32, %ecx
	cmove	%rax, %rdx
	movl	$0, %eax
	cmovne	%eax, %ecx
	movl	%ecx, %r15d
	jmp	.L174
.L259:
	xorl	%edx, %edx
	cmpl	$1073742048, %eax
	movl	$1024, %eax
	movl	$1024, %ecx
	cmove	%rax, %rdx
	movl	$0, %eax
	cmovne	%eax, %ecx
	movl	%ecx, %r15d
	jmp	.L174
	.p2align 4,,10
	.p2align 3
.L258:
	cmpl	$1073741904, %eax
	je	.L219
	cmpl	$1073741905, %eax
	jne	.L260
	movl	$8, %edx
	movl	$8, %r15d
	jmp	.L174
.L260:
	xorl	%edx, %edx
	cmpl	$1073741903, %eax
	sete	%r15b
	sete	%dl
	movzbl	%r15b, %r15d
	jmp	.L174
	.p2align 4,,10
	.p2align 3
.L226:
	movq	$-1, %rdx
	xorl	%r15d, %r15d
	.p2align 4,,10
	.p2align 3
.L187:
	movq	(%r14), %rdi
	andq	%rdx, 184(%r14)
	movq	%r14, %rsi
	movl	%r15d, %edx
	movq	(%rdi), %rcx
	call	*32(%rcx)
	movq	16(%r14), %rdi
	movl	%r15d, %edx
	movq	%r14, %rsi
	movq	(%rdi), %rcx
	call	*16(%rcx)
	movq	168(%r14), %rbx
	movq	160(%r14), %rbp
	cmpq	%rbx, %rbp
	je	.L251
	.p2align 4,,10
	.p2align 3
.L198:
	movq	0(%rbp), %rdi
	addq	$16, %rbp
	movl	%r15d, %edx
	movq	%r14, %rsi
	movq	(%rdi), %rcx
	call	*8(%rcx)
	cmpq	%rbp, %rbx
	jne	.L198
.L251:
	movl	(%rsp), %eax
	jmp	.L186
	.p2align 4,,10
	.p2align 3
.L189:
	cmpl	$100, %eax
	je	.L228
	cmpl	$115, %eax
	jne	.L261
	movq	$-65, %rdx
	movl	$64, %r15d
	jmp	.L187
	.p2align 4,,10
	.p2align 3
.L188:
	cmpl	$1073741906, %eax
	je	.L231
	jle	.L262
	cmpl	$1073742049, %eax
	je	.L235
	cmpl	$1073742050, %eax
	jne	.L263
	movq	$-2049, %rdx
	movl	$2048, %r15d
	jmp	.L187
.L261:
	cmpl	$97, %eax
	movq	$-1, %rdx
	movq	$-33, %rax
	movl	$32, %ecx
	cmove	%rax, %rdx
	movl	$0, %eax
	cmovne	%eax, %ecx
	movl	%ecx, %r15d
	jmp	.L187
.L263:
	cmpl	$1073742048, %eax
	movq	$-1, %rdx
	movl	$1024, %ecx
	movq	$-1025, %rax
	cmove	%rax, %rdx
	movl	$0, %eax
	cmovne	%eax, %ecx
	movl	%ecx, %r15d
	jmp	.L187
	.p2align 4,,10
	.p2align 3
.L262:
	cmpl	$1073741904, %eax
	je	.L232
	cmpl	$1073741905, %eax
	jne	.L264
	movq	$-9, %rdx
	movl	$8, %r15d
	jmp	.L187
.L264:
	xorl	%edx, %edx
	cmpl	$1073741903, %eax
	setne	%dl
	xorl	%r15d, %r15d
	subq	$2, %rdx
	cmpl	$1073741903, %eax
	sete	%r15b
	jmp	.L187
	.p2align 4,,10
	.p2align 3
.L238:
	xorl	%eax, %eax
	xorl	%ebx, %ebx
	jmp	.L200
	.p2align 4,,10
	.p2align 3
.L219:
	movl	$2, %edx
	movl	$2, %r15d
	jmp	.L174
	.p2align 4,,10
	.p2align 3
.L215:
	movl	$128, %edx
	movl	$128, %r15d
	jmp	.L174
	.p2align 4,,10
	.p2align 3
.L222:
	movl	$512, %edx
	movl	$512, %r15d
	jmp	.L174
	.p2align 4,,10
	.p2align 3
.L232:
	movq	$-3, %rdx
	movl	$2, %r15d
	jmp	.L187
	.p2align 4,,10
	.p2align 3
.L228:
	movq	$-129, %rdx
	movl	$128, %r15d
	jmp	.L187
	.p2align 4,,10
	.p2align 3
.L235:
	movq	$-513, %rdx
	movl	$512, %r15d
	jmp	.L187
	.p2align 4,,10
	.p2align 3
.L218:
	movl	$4, %edx
	movl	$4, %r15d
	jmp	.L174
	.p2align 4,,10
	.p2align 3
.L211:
	movl	$1, %eax
.L170:
	movq	56(%rsp), %rdx
	subq	%fs:40, %rdx
	jne	.L265
	addq	$72, %rsp
	.cfi_remember_state
	.cfi_def_cfa_offset 56
	popq	%rbx
	.cfi_def_cfa_offset 48
	popq	%rbp
	.cfi_def_cfa_offset 40
	popq	%r12
	.cfi_def_cfa_offset 32
	popq	%r13
	.cfi_def_cfa_offset 24
	popq	%r14
	.cfi_def_cfa_offset 16
	popq	%r15
	.cfi_def_cfa_offset 8
	ret
.L214:
	.cfi_restore_state
	movl	$4096, %edx
	movl	$4096, %r15d
	jmp	.L174
.L181:
	movl	$16384, %edx
	movl	$16384, %r15d
	jmp	.L174
.L182:
	movl	$32768, %edx
	movl	$32768, %r15d
	jmp	.L174
.L180:
	movl	$8192, %edx
	movl	$8192, %r15d
	jmp	.L174
.L227:
	movq	$-4097, %rdx
	movl	$4096, %r15d
	jmp	.L187
.L231:
	movq	$-5, %rdx
	movl	$4, %r15d
	jmp	.L187
.L212:
	movl	$16, %edx
	movl	$16, %r15d
	jmp	.L174
.L239:
	movq	$-1, %rax
	xorl	%ebx, %ebx
	jmp	.L204
.L178:
	movl	$256, %edx
	movl	$256, %r15d
	jmp	.L174
.L193:
	movq	$-8193, %rdx
	movl	$8192, %r15d
	jmp	.L187
.L194:
	movq	$-16385, %rdx
	movl	$16384, %r15d
	jmp	.L187
.L195:
	movq	$-32769, %rdx
	movl	$32768, %r15d
	jmp	.L187
.L191:
	movq	$-257, %rdx
	movl	$256, %r15d
	jmp	.L187
.L225:
	movq	$-17, %rdx
	movl	$16, %r15d
	jmp	.L187
.L265:
	call	__stack_chk_fail@PLT
	.cfi_endproc
.LFE11959:
	.size	_ZN6Engine14process_eventsEv, .-_ZN6Engine14process_eventsEv
	.align 2
	.p2align 4
	.globl	_ZN6Engine17update_delta_timeEv
	.type	_ZN6Engine17update_delta_timeEv, @function
_ZN6Engine17update_delta_timeEv:
.LFB11960:
	.cfi_startproc
	endbr64
	pushq	%rbx
	.cfi_def_cfa_offset 16
	.cfi_offset 3, -16
	movq	%rdi, %rbx
	call	_ZNSt6chrono3_V212steady_clock3nowEv@PLT
	movq	136(%rbx), %rdi
	movq	144(%rbx), %rsi
	movq	%rax, %rcx
	subq	120(%rbx), %rcx
	movq	%rax, 120(%rbx)
	movq	%rcx, %xmm0
	punpcklqdq	%xmm0, %xmm0
	testq	%rdi, %rdi
	je	.L268
	leaq	0(,%rdi,4), %rax
	xorl	%edx, %edx
	divq	%rsi
	cmpq	%rcx, %rax
	jnb	.L268
	movq	%rdi, %rax
	xorl	%edx, %edx
	divq	%rsi
	movq	%rax, 128(%rbx)
	movq	%rax, %rcx
	jmp	.L269
	.p2align 4,,10
	.p2align 3
.L268:
	testw	%si, %si
	je	.L274
	addq	%rcx, %rdi
	addq	$1, %rsi
	movq	%rcx, %xmm0
	movq	%rdi, %xmm1
	movq	%rsi, 144(%rbx)
	punpcklqdq	%xmm1, %xmm0
	movups	%xmm0, 128(%rbx)
.L269:
	pxor	%xmm0, %xmm0
	cvtsi2sdq	%rcx, %xmm0
	testq	%rcx, %rcx
	jns	.L272
	movq	%rcx, %rax
	andl	$1, %ecx
	pxor	%xmm0, %xmm0
	shrq	%rax
	orq	%rcx, %rax
	cvtsi2sdq	%rax, %xmm0
	addsd	%xmm0, %xmm0
.L272:
	mulsd	.LC3(%rip), %xmm0
	movsd	%xmm0, 152(%rbx)
	popq	%rbx
	.cfi_remember_state
	.cfi_def_cfa_offset 8
	ret
	.p2align 4,,10
	.p2align 3
.L274:
	.cfi_restore_state
	movq	$1, 144(%rbx)
	movups	%xmm0, 128(%rbx)
	jmp	.L269
	.cfi_endproc
.LFE11960:
	.size	_ZN6Engine17update_delta_timeEv, .-_ZN6Engine17update_delta_timeEv
	.align 2
	.p2align 4
	.globl	_ZN6Engine15compute_physicsEv
	.type	_ZN6Engine15compute_physicsEv, @function
_ZN6Engine15compute_physicsEv:
.LFB11961:
	.cfi_startproc
	endbr64
	pushq	%r12
	.cfi_def_cfa_offset 16
	.cfi_offset 12, -16
	leaq	112(%rdi), %r12
	movq	%rdi, %rsi
	pushq	%rbp
	.cfi_def_cfa_offset 24
	.cfi_offset 6, -24
	movq	%rdi, %rbp
	movq	%r12, %rdi
	subq	$8, %rsp
	.cfi_def_cfa_offset 32
	call	_ZN14Physics_engine11pre_physicsER6Engine@PLT
	movq	16(%rbp), %rdi
	movq	%rbp, %rsi
	movq	(%rdi), %rax
	call	*(%rax)
	movq	%rbp, %rsi
	movq	%r12, %rdi
	call	_ZN14Physics_engine16update_positionsER6Engine@PLT
	movq	%rbp, %rsi
	movq	%r12, %rdi
	call	_ZN14Physics_engine18compute_collisionsER6Engine@PLT
	addq	$8, %rsp
	.cfi_def_cfa_offset 24
	movq	%rbp, %rsi
	movq	%r12, %rdi
	popq	%rbp
	.cfi_def_cfa_offset 16
	popq	%r12
	.cfi_def_cfa_offset 8
	jmp	_ZN14Physics_engine12post_physicsER6Engine@PLT
	.cfi_endproc
.LFE11961:
	.size	_ZN6Engine15compute_physicsEv, .-_ZN6Engine15compute_physicsEv
	.align 2
	.p2align 4
	.globl	_ZN6Engine8get_gameEv
	.type	_ZN6Engine8get_gameEv, @function
_ZN6Engine8get_gameEv:
.LFB12042:
	.cfi_startproc
	endbr64
	movdqu	(%rsi), %xmm0
	movq	%rdi, %rax
	movups	%xmm0, (%rdi)
	movq	8(%rdi), %rdx
	testq	%rdx, %rdx
	je	.L277
	cmpb	$0, __libc_single_threaded(%rip)
	je	.L279
	addl	$1, 8(%rdx)
	ret
	.p2align 4,,10
	.p2align 3
.L279:
	lock addl	$1, 8(%rdx)
.L277:
	ret
	.cfi_endproc
.LFE12042:
	.size	_ZN6Engine8get_gameEv, .-_ZN6Engine8get_gameEv
	.align 2
	.p2align 4
	.globl	_ZN6Engine12get_entitiesEv
	.type	_ZN6Engine12get_entitiesEv, @function
_ZN6Engine12get_entitiesEv:
.LFB12063:
	.cfi_startproc
	endbr64
	leaq	160(%rdi), %rax
	ret
	.cfi_endproc
.LFE12063:
	.size	_ZN6Engine12get_entitiesEv, .-_ZN6Engine12get_entitiesEv
	.align 2
	.p2align 4
	.globl	_ZN6Engine12load_textureERKNSt7__cxx1112basic_stringIcSt11char_traitsIcESaIcEEE
	.type	_ZN6Engine12load_textureERKNSt7__cxx1112basic_stringIcSt11char_traitsIcESaIcEEE, @function
_ZN6Engine12load_textureERKNSt7__cxx1112basic_stringIcSt11char_traitsIcESaIcEEE:
.LFB12064:
	.cfi_startproc
	endbr64
	pushq	%r12
	.cfi_def_cfa_offset 16
	.cfi_offset 12, -16
	addq	$32, %rsi
	movq	%rdi, %r12
	subq	$16, %rsp
	.cfi_def_cfa_offset 32
	movq	%fs:40, %rax
	movq	%rax, 8(%rsp)
	xorl	%eax, %eax
	call	_ZN9Render_2D12load_textureERKNSt7__cxx1112basic_stringIcSt11char_traitsIcESaIcEEE@PLT
	movq	8(%rsp), %rax
	subq	%fs:40, %rax
	jne	.L287
	addq	$16, %rsp
	.cfi_remember_state
	.cfi_def_cfa_offset 16
	movq	%r12, %rax
	popq	%r12
	.cfi_def_cfa_offset 8
	ret
.L287:
	.cfi_restore_state
	call	__stack_chk_fail@PLT
	.cfi_endproc
.LFE12064:
	.size	_ZN6Engine12load_textureERKNSt7__cxx1112basic_stringIcSt11char_traitsIcESaIcEEE, .-_ZN6Engine12load_textureERKNSt7__cxx1112basic_stringIcSt11char_traitsIcESaIcEEE
	.align 2
	.p2align 4
	.globl	_ZN6Engine14get_delta_timeEv
	.type	_ZN6Engine14get_delta_timeEv, @function
_ZN6Engine14get_delta_timeEv:
.LFB12080:
	.cfi_startproc
	endbr64
	movsd	152(%rdi), %xmm0
	ret
	.cfi_endproc
.LFE12080:
	.size	_ZN6Engine14get_delta_timeEv, .-_ZN6Engine14get_delta_timeEv
	.align 2
	.p2align 4
	.globl	_ZN6Engine20destroy_all_entitiesEv
	.type	_ZN6Engine20destroy_all_entitiesEv, @function
_ZN6Engine20destroy_all_entitiesEv:
.LFB12081:
	.cfi_startproc
	endbr64
	pushq	%rbp
	.cfi_def_cfa_offset 16
	.cfi_offset 6, -16
	pushq	%rbx
	.cfi_def_cfa_offset 24
	.cfi_offset 3, -24
	subq	$8, %rsp
	.cfi_def_cfa_offset 32
	movq	160(%rdi), %rbx
	movq	168(%rdi), %rbp
	cmpq	%rbx, %rbp
	je	.L289
	.p2align 4,,10
	.p2align 3
.L291:
	movq	(%rbx), %rdi
	addq	$16, %rbx
	call	_ZN6Entity7destroyEv@PLT
	cmpq	%rbx, %rbp
	jne	.L291
.L289:
	addq	$8, %rsp
	.cfi_def_cfa_offset 24
	popq	%rbx
	.cfi_def_cfa_offset 16
	popq	%rbp
	.cfi_def_cfa_offset 8
	ret
	.cfi_endproc
.LFE12081:
	.size	_ZN6Engine20destroy_all_entitiesEv, .-_ZN6Engine20destroy_all_entitiesEv
	.align 2
	.p2align 4
	.globl	_ZNK6Engine11is_key_downEN8EngineIO10InputEventE
	.type	_ZNK6Engine11is_key_downEN8EngineIO10InputEventE, @function
_ZNK6Engine11is_key_downEN8EngineIO10InputEventE:
.LFB12082:
	.cfi_startproc
	endbr64
	movslq	%esi, %rsi
	andq	184(%rdi), %rsi
	setne	%al
	ret
	.cfi_endproc
.LFE12082:
	.size	_ZNK6Engine11is_key_downEN8EngineIO10InputEventE, .-_ZNK6Engine11is_key_downEN8EngineIO10InputEventE
	.align 2
	.p2align 4
	.globl	_ZNK6Engine9is_key_upEN8EngineIO10InputEventE
	.type	_ZNK6Engine9is_key_upEN8EngineIO10InputEventE, @function
_ZNK6Engine9is_key_upEN8EngineIO10InputEventE:
.LFB12083:
	.cfi_startproc
	endbr64
	movslq	%esi, %rsi
	andq	184(%rdi), %rsi
	sete	%al
	ret
	.cfi_endproc
.LFE12083:
	.size	_ZNK6Engine9is_key_upEN8EngineIO10InputEventE, .-_ZNK6Engine9is_key_upEN8EngineIO10InputEventE
	.align 2
	.p2align 4
	.globl	_ZNK6Engine12any_key_downEv
	.type	_ZNK6Engine12any_key_downEv, @function
_ZNK6Engine12any_key_downEv:
.LFB12084:
	.cfi_startproc
	endbr64
	cmpq	$0, 184(%rdi)
	setne	%al
	ret
	.cfi_endproc
.LFE12084:
	.size	_ZNK6Engine12any_key_downEv, .-_ZNK6Engine12any_key_downEv
	.align 2
	.p2align 4
	.globl	_ZNK6Engine17get_all_keys_downEv
	.type	_ZNK6Engine17get_all_keys_downEv, @function
_ZNK6Engine17get_all_keys_downEv:
.LFB12085:
	.cfi_startproc
	endbr64
	movq	184(%rdi), %rax
	ret
	.cfi_endproc
.LFE12085:
	.size	_ZNK6Engine17get_all_keys_downEv, .-_ZNK6Engine17get_all_keys_downEv
	.align 2
	.p2align 4
	.globl	_ZNK6Engine18is_left_arrow_downEv
	.type	_ZNK6Engine18is_left_arrow_downEv, @function
_ZNK6Engine18is_left_arrow_downEv:
.LFB12086:
	.cfi_startproc
	endbr64
	movq	184(%rdi), %rax
	shrq	%rax
	andl	$1, %eax
	ret
	.cfi_endproc
.LFE12086:
	.size	_ZNK6Engine18is_left_arrow_downEv, .-_ZNK6Engine18is_left_arrow_downEv
	.align 2
	.p2align 4
	.globl	_ZNK6Engine19is_right_arrow_downEv
	.type	_ZNK6Engine19is_right_arrow_downEv, @function
_ZNK6Engine19is_right_arrow_downEv:
.LFB12087:
	.cfi_startproc
	endbr64
	movq	184(%rdi), %rax
	andl	$1, %eax
	ret
	.cfi_endproc
.LFE12087:
	.size	_ZNK6Engine19is_right_arrow_downEv, .-_ZNK6Engine19is_right_arrow_downEv
	.align 2
	.p2align 4
	.globl	_ZNK6Engine16is_up_arrow_downEv
	.type	_ZNK6Engine16is_up_arrow_downEv, @function
_ZNK6Engine16is_up_arrow_downEv:
.LFB12088:
	.cfi_startproc
	endbr64
	movq	184(%rdi), %rax
	shrq	$2, %rax
	andl	$1, %eax
	ret
	.cfi_endproc
.LFE12088:
	.size	_ZNK6Engine16is_up_arrow_downEv, .-_ZNK6Engine16is_up_arrow_downEv
	.align 2
	.p2align 4
	.globl	_ZNK6Engine18is_down_arrow_downEv
	.type	_ZNK6Engine18is_down_arrow_downEv, @function
_ZNK6Engine18is_down_arrow_downEv:
.LFB12089:
	.cfi_startproc
	endbr64
	movq	184(%rdi), %rax
	shrq	$3, %rax
	andl	$1, %eax
	ret
	.cfi_endproc
.LFE12089:
	.size	_ZNK6Engine18is_down_arrow_downEv, .-_ZNK6Engine18is_down_arrow_downEv
	.align 2
	.p2align 4
	.globl	_ZNK6Engine9is_w_downEv
	.type	_ZNK6Engine9is_w_downEv, @function
_ZNK6Engine9is_w_downEv:
.LFB12090:
	.cfi_startproc
	endbr64
	movq	184(%rdi), %rax
	shrq	$4, %rax
	andl	$1, %eax
	ret
	.cfi_endproc
.LFE12090:
	.size	_ZNK6Engine9is_w_downEv, .-_ZNK6Engine9is_w_downEv
	.align 2
	.p2align 4
	.globl	_ZNK6Engine9is_a_downEv
	.type	_ZNK6Engine9is_a_downEv, @function
_ZNK6Engine9is_a_downEv:
.LFB12091:
	.cfi_startproc
	endbr64
	movq	184(%rdi), %rax
	shrq	$5, %rax
	andl	$1, %eax
	ret
	.cfi_endproc
.LFE12091:
	.size	_ZNK6Engine9is_a_downEv, .-_ZNK6Engine9is_a_downEv
	.align 2
	.p2align 4
	.globl	_ZNK6Engine9is_s_downEv
	.type	_ZNK6Engine9is_s_downEv, @function
_ZNK6Engine9is_s_downEv:
.LFB12092:
	.cfi_startproc
	endbr64
	movq	184(%rdi), %rax
	shrq	$6, %rax
	andl	$1, %eax
	ret
	.cfi_endproc
.LFE12092:
	.size	_ZNK6Engine9is_s_downEv, .-_ZNK6Engine9is_s_downEv
	.align 2
	.p2align 4
	.globl	_ZNK6Engine9is_d_downEv
	.type	_ZNK6Engine9is_d_downEv, @function
_ZNK6Engine9is_d_downEv:
.LFB12093:
	.cfi_startproc
	endbr64
	movq	184(%rdi), %rax
	shrb	$7, %al
	ret
	.cfi_endproc
.LFE12093:
	.size	_ZNK6Engine9is_d_downEv, .-_ZNK6Engine9is_d_downEv
	.align 2
	.p2align 4
	.globl	_ZNK6Engine13is_space_downEv
	.type	_ZNK6Engine13is_space_downEv, @function
_ZNK6Engine13is_space_downEv:
.LFB12094:
	.cfi_startproc
	endbr64
	movq	184(%rdi), %rax
	shrq	$8, %rax
	andl	$1, %eax
	ret
	.cfi_endproc
.LFE12094:
	.size	_ZNK6Engine13is_space_downEv, .-_ZNK6Engine13is_space_downEv
	.align 2
	.p2align 4
	.globl	_ZNK6Engine13is_shift_downEv
	.type	_ZNK6Engine13is_shift_downEv, @function
_ZNK6Engine13is_shift_downEv:
.LFB12095:
	.cfi_startproc
	endbr64
	movq	184(%rdi), %rax
	shrq	$9, %rax
	andl	$1, %eax
	ret
	.cfi_endproc
.LFE12095:
	.size	_ZNK6Engine13is_shift_downEv, .-_ZNK6Engine13is_shift_downEv
	.align 2
	.p2align 4
	.globl	_ZNK6Engine12is_ctrl_downEv
	.type	_ZNK6Engine12is_ctrl_downEv, @function
_ZNK6Engine12is_ctrl_downEv:
.LFB12096:
	.cfi_startproc
	endbr64
	movq	184(%rdi), %rax
	shrq	$10, %rax
	andl	$1, %eax
	ret
	.cfi_endproc
.LFE12096:
	.size	_ZNK6Engine12is_ctrl_downEv, .-_ZNK6Engine12is_ctrl_downEv
	.align 2
	.p2align 4
	.globl	_ZNK6Engine11is_alt_downEv
	.type	_ZNK6Engine11is_alt_downEv, @function
_ZNK6Engine11is_alt_downEv:
.LFB12097:
	.cfi_startproc
	endbr64
	movq	184(%rdi), %rax
	shrq	$11, %rax
	andl	$1, %eax
	ret
	.cfi_endproc
.LFE12097:
	.size	_ZNK6Engine11is_alt_downEv, .-_ZNK6Engine11is_alt_downEv
	.align 2
	.p2align 4
	.globl	_ZNK6Engine13is_enter_downEv
	.type	_ZNK6Engine13is_enter_downEv, @function
_ZNK6Engine13is_enter_downEv:
.LFB12098:
	.cfi_startproc
	endbr64
	movq	184(%rdi), %rax
	shrq	$12, %rax
	andl	$1, %eax
	ret
	.cfi_endproc
.LFE12098:
	.size	_ZNK6Engine13is_enter_downEv, .-_ZNK6Engine13is_enter_downEv
	.align 2
	.p2align 4
	.globl	_ZNK6Engine11is_esc_downEv
	.type	_ZNK6Engine11is_esc_downEv, @function
_ZNK6Engine11is_esc_downEv:
.LFB12099:
	.cfi_startproc
	endbr64
	movq	184(%rdi), %rax
	shrq	$13, %rax
	andl	$1, %eax
	ret
	.cfi_endproc
.LFE12099:
	.size	_ZNK6Engine11is_esc_downEv, .-_ZNK6Engine11is_esc_downEv
	.align 2
	.p2align 4
	.globl	_ZNK6Engine17is_backspace_downEv
	.type	_ZNK6Engine17is_backspace_downEv, @function
_ZNK6Engine17is_backspace_downEv:
.LFB12100:
	.cfi_startproc
	endbr64
	movq	184(%rdi), %rax
	shrq	$15, %rax
	andl	$1, %eax
	ret
	.cfi_endproc
.LFE12100:
	.size	_ZNK6Engine17is_backspace_downEv, .-_ZNK6Engine17is_backspace_downEv
	.align 2
	.p2align 4
	.globl	_ZNK6Engine11is_tab_downEv
	.type	_ZNK6Engine11is_tab_downEv, @function
_ZNK6Engine11is_tab_downEv:
.LFB12101:
	.cfi_startproc
	endbr64
	movq	184(%rdi), %rax
	shrq	$14, %rax
	andl	$1, %eax
	ret
	.cfi_endproc
.LFE12101:
	.size	_ZNK6Engine11is_tab_downEv, .-_ZNK6Engine11is_tab_downEv
	.section	.text._ZNSt6vectorISt10shared_ptrI6EntityESaIS2_EED2Ev,"axG",@progbits,_ZNSt6vectorISt10shared_ptrI6EntityESaIS2_EED5Ev,comdat
	.align 2
	.p2align 4
	.weak	_ZNSt6vectorISt10shared_ptrI6EntityESaIS2_EED2Ev
	.type	_ZNSt6vectorISt10shared_ptrI6EntityESaIS2_EED2Ev, @function
_ZNSt6vectorISt10shared_ptrI6EntityESaIS2_EED2Ev:
.LFB12544:
	.cfi_startproc
	endbr64
	pushq	%r13
	.cfi_def_cfa_offset 16
	.cfi_offset 13, -16
	movq	%rdi, %r13
	pushq	%r12
	.cfi_def_cfa_offset 24
	.cfi_offset 12, -24
	pushq	%rbp
	.cfi_def_cfa_offset 32
	.cfi_offset 6, -32
	pushq	%rbx
	.cfi_def_cfa_offset 40
	.cfi_offset 3, -40
	subq	$8, %rsp
	.cfi_def_cfa_offset 48
	movq	8(%rdi), %rbx
	movq	(%rdi), %rbp
	cmpq	%rbp, %rbx
	jne	.L323
	jmp	.L315
	.p2align 4,,10
	.p2align 3
.L317:
	addq	$16, %rbp
	cmpq	%rbp, %rbx
	je	.L327
.L323:
	movq	8(%rbp), %r12
	testq	%r12, %r12
	je	.L317
	cmpb	$0, __libc_single_threaded(%rip)
	je	.L318
	movl	8(%r12), %eax
	leal	-1(%rax), %edx
	movl	%edx, 8(%r12)
.L319:
	cmpl	$1, %eax
	jne	.L317
	movq	(%r12), %rax
	movq	%r12, %rdi
	call	*16(%rax)
	cmpb	$0, __libc_single_threaded(%rip)
	je	.L321
	movl	12(%r12), %eax
	leal	-1(%rax), %edx
	movl	%edx, 12(%r12)
.L322:
	cmpl	$1, %eax
	jne	.L317
	movq	(%r12), %rax
	addq	$16, %rbp
	movq	%r12, %rdi
	call	*24(%rax)
	cmpq	%rbp, %rbx
	jne	.L323
	.p2align 4,,10
	.p2align 3
.L327:
	movq	0(%r13), %rbp
.L315:
	testq	%rbp, %rbp
	je	.L314
	movq	16(%r13), %rsi
	addq	$8, %rsp
	.cfi_remember_state
	.cfi_def_cfa_offset 40
	movq	%rbp, %rdi
	popq	%rbx
	.cfi_def_cfa_offset 32
	subq	%rbp, %rsi
	popq	%rbp
	.cfi_def_cfa_offset 24
	popq	%r12
	.cfi_def_cfa_offset 16
	popq	%r13
	.cfi_def_cfa_offset 8
	jmp	_ZdlPvm@PLT
	.p2align 4,,10
	.p2align 3
.L318:
	.cfi_restore_state
	movl	$-1, %eax
	lock xaddl	%eax, 8(%r12)
	jmp	.L319
	.p2align 4,,10
	.p2align 3
.L321:
	movl	$-1, %eax
	lock xaddl	%eax, 12(%r12)
	jmp	.L322
	.p2align 4,,10
	.p2align 3
.L314:
	addq	$8, %rsp
	.cfi_def_cfa_offset 40
	popq	%rbx
	.cfi_def_cfa_offset 32
	popq	%rbp
	.cfi_def_cfa_offset 24
	popq	%r12
	.cfi_def_cfa_offset 16
	popq	%r13
	.cfi_def_cfa_offset 8
	ret
	.cfi_endproc
.LFE12544:
	.size	_ZNSt6vectorISt10shared_ptrI6EntityESaIS2_EED2Ev, .-_ZNSt6vectorISt10shared_ptrI6EntityESaIS2_EED2Ev
	.weak	_ZNSt6vectorISt10shared_ptrI6EntityESaIS2_EED1Ev
	.set	_ZNSt6vectorISt10shared_ptrI6EntityESaIS2_EED1Ev,_ZNSt6vectorISt10shared_ptrI6EntityESaIS2_EED2Ev
	.section	.text._ZNSt10_HashtableINSt7__cxx1112basic_stringIcSt11char_traitsIcESaIcEEESt4pairIKS5_7TextureESaIS9_ENSt8__detail10_Select1stESt8equal_toIS5_ESt4hashIS5_ENSB_18_Mod_range_hashingENSB_20_Default_ranged_hashENSB_20_Prime_rehash_policyENSB_17_Hashtable_traitsILb1ELb0ELb1EEEED2Ev,"axG",@progbits,_ZNSt10_HashtableINSt7__cxx1112basic_stringIcSt11char_traitsIcESaIcEEESt4pairIKS5_7TextureESaIS9_ENSt8__detail10_Select1stESt8equal_toIS5_ESt4hashIS5_ENSB_18_Mod_range_hashingENSB_20_Default_ranged_hashENSB_20_Prime_rehash_policyENSB_17_Hashtable_traitsILb1ELb0ELb1EEEED5Ev,comdat
	.align 2
	.p2align 4
	.weak	_ZNSt10_HashtableINSt7__cxx1112basic_stringIcSt11char_traitsIcESaIcEEESt4pairIKS5_7TextureESaIS9_ENSt8__detail10_Select1stESt8equal_toIS5_ESt4hashIS5_ENSB_18_Mod_range_hashingENSB_20_Default_ranged_hashENSB_20_Prime_rehash_policyENSB_17_Hashtable_traitsILb1ELb0ELb1EEEED2Ev
	.type	_ZNSt10_HashtableINSt7__cxx1112basic_stringIcSt11char_traitsIcESaIcEEESt4pairIKS5_7TextureESaIS9_ENSt8__detail10_Select1stESt8equal_toIS5_ESt4hashIS5_ENSB_18_Mod_range_hashingENSB_20_Default_ranged_hashENSB_20_Prime_rehash_policyENSB_17_Hashtable_traitsILb1ELb0ELb1EEEED2Ev, @function
_ZNSt10_HashtableINSt7__cxx1112basic_stringIcSt11char_traitsIcESaIcEEESt4pairIKS5_7TextureESaIS9_ENSt8__detail10_Select1stESt8equal_toIS5_ESt4hashIS5_ENSB_18_Mod_range_hashingENSB_20_Default_ranged_hashENSB_20_Prime_rehash_policyENSB_17_Hashtable_traitsILb1ELb0ELb1EEEED2Ev:
.LFB12625:
	.cfi_startproc
	endbr64
	pushq	%r13
	.cfi_def_cfa_offset 16
	.cfi_offset 13, -16
	movq	%rdi, %r13
	pushq	%r12
	.cfi_def_cfa_offset 24
	.cfi_offset 12, -24
	pushq	%rbp
	.cfi_def_cfa_offset 32
	.cfi_offset 6, -32
	pushq	%rbx
	.cfi_def_cfa_offset 40
	.cfi_offset 3, -40
	subq	$8, %rsp
	.cfi_def_cfa_offset 48
	movq	16(%rdi), %rbp
	testq	%rbp, %rbp
	jne	.L346
	jmp	.L329
	.p2align 4,,10
	.p2align 3
.L331:
	movq	48(%rbp), %r12
	testq	%r12, %r12
	je	.L338
	cmpb	$0, __libc_single_threaded(%rip)
	je	.L339
	movl	8(%r12), %eax
	leal	-1(%rax), %edx
	movl	%edx, 8(%r12)
.L340:
	cmpl	$1, %eax
	je	.L355
.L338:
	movq	8(%rbp), %rdi
	leaq	24(%rbp), %rax
	cmpq	%rax, %rdi
	je	.L344
	movq	24(%rbp), %rax
	leaq	1(%rax), %rsi
	call	_ZdlPvm@PLT
.L344:
	movl	$88, %esi
	movq	%rbp, %rdi
	call	_ZdlPvm@PLT
	testq	%rbx, %rbx
	je	.L329
	movq	%rbx, %rbp
.L346:
	movq	64(%rbp), %r12
	movq	0(%rbp), %rbx
	testq	%r12, %r12
	je	.L331
	cmpb	$0, __libc_single_threaded(%rip)
	je	.L332
	movl	8(%r12), %eax
	leal	-1(%rax), %edx
	movl	%edx, 8(%r12)
.L333:
	cmpl	$1, %eax
	jne	.L331
	movq	(%r12), %rax
	movq	%r12, %rdi
	call	*16(%rax)
	cmpb	$0, __libc_single_threaded(%rip)
	je	.L335
	movl	12(%r12), %eax
	leal	-1(%rax), %edx
	movl	%edx, 12(%r12)
.L336:
	cmpl	$1, %eax
	jne	.L331
	movq	(%r12), %rax
	movq	%r12, %rdi
	call	*24(%rax)
	jmp	.L331
	.p2align 4,,10
	.p2align 3
.L355:
	movq	(%r12), %rax
	movq	%r12, %rdi
	call	*16(%rax)
	cmpb	$0, __libc_single_threaded(%rip)
	je	.L342
	movl	12(%r12), %eax
	leal	-1(%rax), %edx
	movl	%edx, 12(%r12)
.L343:
	cmpl	$1, %eax
	jne	.L338
	movq	(%r12), %rax
	movq	%r12, %rdi
	call	*24(%rax)
	jmp	.L338
	.p2align 4,,10
	.p2align 3
.L339:
	movl	$-1, %eax
	lock xaddl	%eax, 8(%r12)
	jmp	.L340
	.p2align 4,,10
	.p2align 3
.L332:
	movl	$-1, %eax
	lock xaddl	%eax, 8(%r12)
	jmp	.L333
	.p2align 4,,10
	.p2align 3
.L329:
	movq	8(%r13), %rax
	movq	0(%r13), %rdi
	xorl	%esi, %esi
	addq	$48, %r13
	leaq	0(,%rax,8), %rdx
	call	memset@PLT
	movq	-48(%r13), %rdi
	movq	-40(%r13), %rsi
	movq	$0, -24(%r13)
	movq	$0, -32(%r13)
	cmpq	%r13, %rdi
	je	.L328
	addq	$8, %rsp
	.cfi_remember_state
	.cfi_def_cfa_offset 40
	salq	$3, %rsi
	popq	%rbx
	.cfi_def_cfa_offset 32
	popq	%rbp
	.cfi_def_cfa_offset 24
	popq	%r12
	.cfi_def_cfa_offset 16
	popq	%r13
	.cfi_def_cfa_offset 8
	jmp	_ZdlPvm@PLT
	.p2align 4,,10
	.p2align 3
.L335:
	.cfi_restore_state
	movl	$-1, %eax
	lock xaddl	%eax, 12(%r12)
	jmp	.L336
	.p2align 4,,10
	.p2align 3
.L342:
	movl	$-1, %eax
	lock xaddl	%eax, 12(%r12)
	jmp	.L343
	.p2align 4,,10
	.p2align 3
.L328:
	addq	$8, %rsp
	.cfi_def_cfa_offset 40
	popq	%rbx
	.cfi_def_cfa_offset 32
	popq	%rbp
	.cfi_def_cfa_offset 24
	popq	%r12
	.cfi_def_cfa_offset 16
	popq	%r13
	.cfi_def_cfa_offset 8
	ret
	.cfi_endproc
.LFE12625:
	.size	_ZNSt10_HashtableINSt7__cxx1112basic_stringIcSt11char_traitsIcESaIcEEESt4pairIKS5_7TextureESaIS9_ENSt8__detail10_Select1stESt8equal_toIS5_ESt4hashIS5_ENSB_18_Mod_range_hashingENSB_20_Default_ranged_hashENSB_20_Prime_rehash_policyENSB_17_Hashtable_traitsILb1ELb0ELb1EEEED2Ev, .-_ZNSt10_HashtableINSt7__cxx1112basic_stringIcSt11char_traitsIcESaIcEEESt4pairIKS5_7TextureESaIS9_ENSt8__detail10_Select1stESt8equal_toIS5_ESt4hashIS5_ENSB_18_Mod_range_hashingENSB_20_Default_ranged_hashENSB_20_Prime_rehash_policyENSB_17_Hashtable_traitsILb1ELb0ELb1EEEED2Ev
	.weak	_ZNSt10_HashtableINSt7__cxx1112basic_stringIcSt11char_traitsIcESaIcEEESt4pairIKS5_7TextureESaIS9_ENSt8__detail10_Select1stESt8equal_toIS5_ESt4hashIS5_ENSB_18_Mod_range_hashingENSB_20_Default_ranged_hashENSB_20_Prime_rehash_policyENSB_17_Hashtable_traitsILb1ELb0ELb1EEEED1Ev
	.set	_ZNSt10_HashtableINSt7__cxx1112basic_stringIcSt11char_traitsIcESaIcEEESt4pairIKS5_7TextureESaIS9_ENSt8__detail10_Select1stESt8equal_toIS5_ESt4hashIS5_ENSB_18_Mod_range_hashingENSB_20_Default_ranged_hashENSB_20_Prime_rehash_policyENSB_17_Hashtable_traitsILb1ELb0ELb1EEEED1Ev,_ZNSt10_HashtableINSt7__cxx1112basic_stringIcSt11char_traitsIcESaIcEEESt4pairIKS5_7TextureESaIS9_ENSt8__detail10_Select1stESt8equal_toIS5_ESt4hashIS5_ENSB_18_Mod_range_hashingENSB_20_Default_ranged_hashENSB_20_Prime_rehash_policyENSB_17_Hashtable_traitsILb1ELb0ELb1EEEED2Ev
	.section	.text._ZNSt16_Sp_counted_baseILN9__gnu_cxx12_Lock_policyE2EE10_M_releaseEv,"axG",@progbits,_ZNSt16_Sp_counted_baseILN9__gnu_cxx12_Lock_policyE2EE10_M_releaseEv,comdat
	.align 2
	.p2align 4
	.weak	_ZNSt16_Sp_counted_baseILN9__gnu_cxx12_Lock_policyE2EE10_M_releaseEv
	.type	_ZNSt16_Sp_counted_baseILN9__gnu_cxx12_Lock_policyE2EE10_M_releaseEv, @function
_ZNSt16_Sp_counted_baseILN9__gnu_cxx12_Lock_policyE2EE10_M_releaseEv:
.LFB12828:
	.cfi_startproc
	endbr64
	cmpb	$0, __libc_single_threaded(%rip)
	pushq	%rbp
	.cfi_def_cfa_offset 16
	.cfi_offset 6, -16
	movq	%rdi, %rbp
	je	.L357
	movl	8(%rdi), %eax
	leal	-1(%rax), %edx
	movl	%edx, 8(%rdi)
.L358:
	cmpl	$1, %eax
	je	.L365
.L356:
	popq	%rbp
	.cfi_remember_state
	.cfi_def_cfa_offset 8
	ret
	.p2align 4,,10
	.p2align 3
.L365:
	.cfi_restore_state
	movq	0(%rbp), %rax
	movq	%rbp, %rdi
	call	*16(%rax)
	cmpb	$0, __libc_single_threaded(%rip)
	je	.L361
	movl	12(%rbp), %eax
	leal	-1(%rax), %edx
	movl	%edx, 12(%rbp)
.L362:
	cmpl	$1, %eax
	jne	.L356
	movq	0(%rbp), %rax
	movq	%rbp, %rdi
	popq	%rbp
	.cfi_remember_state
	.cfi_def_cfa_offset 8
	movq	24(%rax), %rax
	jmp	*%rax
	.p2align 4,,10
	.p2align 3
.L357:
	.cfi_restore_state
	movl	$-1, %eax
	lock xaddl	%eax, 8(%rdi)
	jmp	.L358
	.p2align 4,,10
	.p2align 3
.L361:
	movl	$-1, %eax
	lock xaddl	%eax, 12(%rbp)
	jmp	.L362
	.cfi_endproc
.LFE12828:
	.size	_ZNSt16_Sp_counted_baseILN9__gnu_cxx12_Lock_policyE2EE10_M_releaseEv, .-_ZNSt16_Sp_counted_baseILN9__gnu_cxx12_Lock_policyE2EE10_M_releaseEv
	.section	.text.unlikely,"ax",@progbits
	.align 2
.LCOLDB7:
	.text
.LHOTB7:
	.align 2
	.p2align 4
	.globl	_ZN6Engine19intesect_ray_entityER3RaySt10shared_ptrI6EntityERfS5_
	.type	_ZN6Engine19intesect_ray_entityER3RaySt10shared_ptrI6EntityERfS5_, @function
_ZN6Engine19intesect_ray_entityER3RaySt10shared_ptrI6EntityERfS5_:
.LFB12056:
	.cfi_startproc
	.cfi_personality 0x9b,DW.ref.__gxx_personality_v0
	.cfi_lsda 0x1b,.LLSDA12056
	endbr64
	pushq	%r15
	.cfi_def_cfa_offset 16
	.cfi_offset 15, -16
	pushq	%r14
	.cfi_def_cfa_offset 24
	.cfi_offset 14, -24
	pushq	%r13
	.cfi_def_cfa_offset 32
	.cfi_offset 13, -32
	movq	%r8, %r13
	pushq	%r12
	.cfi_def_cfa_offset 40
	.cfi_offset 12, -40
	movq	%rcx, %r12
	pushq	%rbp
	.cfi_def_cfa_offset 48
	.cfi_offset 6, -48
	movq	%rdx, %rbp
	pushq	%rbx
	.cfi_def_cfa_offset 56
	.cfi_offset 3, -56
	movq	%rsi, %rbx
	subq	$88, %rsp
	.cfi_def_cfa_offset 144
	movq	(%rdx), %rsi
	movq	%fs:40, %rax
	movq	%rax, 72(%rsp)
	xorl	%eax, %eax
	movl	$0x7f800000, (%rcx)
	leaq	48(%rsp), %rdi
.LEHB0:
	call	_ZNK6Entity7bound2fEv@PLT
.LEHE0:
	movss	48(%rsp), %xmm8
	movss	56(%rsp), %xmm7
	movss	(%rbx), %xmm2
	movss	24(%rbx), %xmm0
	movaps	%xmm8, %xmm1
	movaps	%xmm7, %xmm4
	movss	52(%rsp), %xmm6
	movss	4(%rbx), %xmm3
	subss	%xmm2, %xmm1
	subss	%xmm2, %xmm4
	movss	28(%rbx), %xmm9
	movss	60(%rsp), %xmm10
	comiss	%xmm8, %xmm2
	movaps	%xmm10, %xmm5
	mulss	%xmm0, %xmm4
	subss	%xmm3, %xmm5
	mulss	%xmm0, %xmm1
	movaps	%xmm6, %xmm0
	setnb	%al
	subss	%xmm3, %xmm0
	comiss	%xmm2, %xmm7
	mulss	%xmm9, %xmm5
	mulss	%xmm9, %xmm0
	setnb	%dl
	movaps	%xmm1, %xmm11
	maxss	%xmm4, %xmm1
	andl	%edx, %eax
	minss	%xmm4, %xmm11
	comiss	%xmm6, %xmm3
	movaps	%xmm0, %xmm9
	maxss	%xmm5, %xmm0
	setnb	%dl
	minss	%xmm5, %xmm9
	movaps	%xmm0, %xmm4
	pxor	%xmm0, %xmm0
	maxss	%xmm9, %xmm11
	minss	%xmm1, %xmm4
	cmpltss	%xmm11, %xmm0
	movaps	%xmm11, %xmm12
	movss	%xmm11, 20(%rsp)
	movss	%xmm4, 16(%rsp)
	andps	%xmm0, %xmm12
	andnps	%xmm4, %xmm0
	orps	%xmm12, %xmm0
	movss	%xmm0, 8(%rsp)
	movss	(%r12), %xmm0
	testb	%dl, %al
	je	.L398
	comiss	%xmm3, %xmm10
	jnb	.L395
.L398:
	movss	16(%rsp), %xmm5
	comiss	20(%rsp), %xmm5
	jnb	.L368
.L370:
	movss	.LC6(%rip), %xmm1
	xorl	%eax, %eax
	comiss	%xmm0, %xmm1
	jb	.L366
	pxor	%xmm7, %xmm7
	comiss	0(%r13), %xmm7
	setb	%al
.L366:
	movq	72(%rsp), %rdx
	subq	%fs:40, %rdx
	jne	.L414
	addq	$88, %rsp
	.cfi_remember_state
	.cfi_def_cfa_offset 56
	popq	%rbx
	.cfi_def_cfa_offset 48
	popq	%rbp
	.cfi_def_cfa_offset 40
	popq	%r12
	.cfi_def_cfa_offset 32
	popq	%r13
	.cfi_def_cfa_offset 24
	popq	%r14
	.cfi_def_cfa_offset 16
	popq	%r15
	.cfi_def_cfa_offset 8
	ret
	.p2align 4,,10
	.p2align 3
.L395:
	.cfi_restore_state
	movl	$0x00000000, 8(%rsp)
	.p2align 4,,10
	.p2align 3
.L368:
	comiss	8(%rsp), %xmm0
	jbe	.L370
	movq	8(%rbp), %rax
	movq	0(%rbp), %r15
	movq	%rax, 24(%rsp)
	testq	%rax, %rax
	je	.L373
	cmpb	$0, __libc_single_threaded(%rip)
	je	.L374
	addl	$1, 8(%rax)
.L373:
	movss	16(%rsp), %xmm0
	subss	8(%rsp), %xmm0
	xorl	%ebp, %ebp
	leaq	40(%rsp), %r14
	mulss	.LC2(%rip), %xmm0
	movss	%xmm0, 12(%rsp)
	jmp	.L377
	.p2align 4,,10
	.p2align 3
.L415:
	addl	$1, %ebp
	cmpl	$100, %ebp
	je	.L376
	movss	4(%rbx), %xmm3
	movss	(%rbx), %xmm2
.L377:
	pxor	%xmm0, %xmm0
	movq	12(%rbx), %xmm1
	unpcklps	%xmm3, %xmm2
	movq	%r14, %rsi
	cvtsi2ssl	%ebp, %xmm0
	mulss	12(%rsp), %xmm0
	movq	%r15, %rdi
	addss	8(%rsp), %xmm0
	shufps	$0xe0, %xmm0, %xmm0
	mulps	%xmm0, %xmm1
	addps	%xmm2, %xmm1
	movlps	%xmm1, 40(%rsp)
.LEHB1:
	call	_ZNK6Entity8containsE6Point2IfE@PLT
.LEHE1:
	testb	%al, %al
	je	.L415
	cmpq	$0, 24(%rsp)
	je	.L385
.L390:
	cmpb	$0, __libc_single_threaded(%rip)
	je	.L378
	movq	24(%rsp), %rdi
	movl	8(%rdi), %edx
	leal	-1(%rdx), %ecx
	movl	%ecx, 8(%rdi)
.L379:
	cmpl	$1, %edx
	je	.L416
.L381:
	testb	%al, %al
	jne	.L385
.L413:
	movss	(%r12), %xmm0
	jmp	.L370
	.p2align 4,,10
	.p2align 3
.L385:
	movss	20(%rsp), %xmm3
	movss	%xmm3, (%r12)
	movss	16(%rsp), %xmm3
	movss	%xmm3, 0(%r13)
	jmp	.L413
	.p2align 4,,10
	.p2align 3
.L374:
	lock addl	$1, 8(%rax)
	movss	4(%rbx), %xmm3
	movss	(%rbx), %xmm2
	jmp	.L373
	.p2align 4,,10
	.p2align 3
.L416:
	movq	24(%rsp), %rbx
	movb	%al, 8(%rsp)
	movq	(%rbx), %rdx
	movq	%rbx, %rdi
	call	*16(%rdx)
	cmpb	$0, __libc_single_threaded(%rip)
	movzbl	8(%rsp), %eax
	je	.L382
	movl	12(%rbx), %edx
	leal	-1(%rdx), %ecx
	movl	%ecx, 12(%rbx)
.L383:
	cmpl	$1, %edx
	jne	.L381
	movq	24(%rsp), %rdi
	movb	%al, 8(%rsp)
	movq	(%rdi), %rdx
	call	*24(%rdx)
	movzbl	8(%rsp), %eax
	jmp	.L381
	.p2align 4,,10
	.p2align 3
.L378:
	movq	24(%rsp), %rcx
	movl	$-1, %edx
	lock xaddl	%edx, 8(%rcx)
	jmp	.L379
	.p2align 4,,10
	.p2align 3
.L376:
	cmpq	$0, 24(%rsp)
	jne	.L390
	jmp	.L413
.L382:
	movq	24(%rsp), %rcx
	movl	$-1, %edx
	lock xaddl	%edx, 12(%rcx)
	jmp	.L383
.L414:
	call	__stack_chk_fail@PLT
.L397:
	endbr64
	movq	%rax, %rbp
	jmp	.L388
	.globl	__gxx_personality_v0
	.section	.gcc_except_table,"a",@progbits
.LLSDA12056:
	.byte	0xff
	.byte	0xff
	.byte	0x1
	.uleb128 .LLSDACSE12056-.LLSDACSB12056
.LLSDACSB12056:
	.uleb128 .LEHB0-.LFB12056
	.uleb128 .LEHE0-.LEHB0
	.uleb128 0
	.uleb128 0
	.uleb128 .LEHB1-.LFB12056
	.uleb128 .LEHE1-.LEHB1
	.uleb128 .L397-.LFB12056
	.uleb128 0
.LLSDACSE12056:
	.text
	.cfi_endproc
	.section	.text.unlikely
	.cfi_startproc
	.cfi_personality 0x9b,DW.ref.__gxx_personality_v0
	.cfi_lsda 0x1b,.LLSDAC12056
	.type	_ZN6Engine19intesect_ray_entityER3RaySt10shared_ptrI6EntityERfS5_.cold, @function
_ZN6Engine19intesect_ray_entityER3RaySt10shared_ptrI6EntityERfS5_.cold:
.LFSB12056:
.L388:
	.cfi_def_cfa_offset 144
	.cfi_offset 3, -56
	.cfi_offset 6, -48
	.cfi_offset 12, -40
	.cfi_offset 13, -32
	.cfi_offset 14, -24
	.cfi_offset 15, -16
	cmpq	$0, 24(%rsp)
	je	.L389
	movq	24(%rsp), %rdi
	call	_ZNSt16_Sp_counted_baseILN9__gnu_cxx12_Lock_policyE2EE10_M_releaseEv
.L389:
	movq	%rbp, %rdi
.LEHB2:
	call	_Unwind_Resume@PLT
.LEHE2:
	.cfi_endproc
.LFE12056:
	.section	.gcc_except_table
.LLSDAC12056:
	.byte	0xff
	.byte	0xff
	.byte	0x1
	.uleb128 .LLSDACSEC12056-.LLSDACSBC12056
.LLSDACSBC12056:
	.uleb128 .LEHB2-.LCOLDB7
	.uleb128 .LEHE2-.LEHB2
	.uleb128 0
	.uleb128 0
.LLSDACSEC12056:
	.section	.text.unlikely
	.text
	.size	_ZN6Engine19intesect_ray_entityER3RaySt10shared_ptrI6EntityERfS5_, .-_ZN6Engine19intesect_ray_entityER3RaySt10shared_ptrI6EntityERfS5_
	.section	.text.unlikely
	.size	_ZN6Engine19intesect_ray_entityER3RaySt10shared_ptrI6EntityERfS5_.cold, .-_ZN6Engine19intesect_ray_entityER3RaySt10shared_ptrI6EntityERfS5_.cold
.LCOLDE7:
	.text
.LHOTE7:
	.section	.text.unlikely
	.align 2
.LCOLDB8:
	.text
.LHOTB8:
	.align 2
	.p2align 4
	.globl	_ZN6Engine12intesect_rayER3RayiRKNSt7__cxx1112basic_stringIcSt11char_traitsIcESaIcEEERfSA_RSt10shared_ptrI6EntityE
	.type	_ZN6Engine12intesect_rayER3RayiRKNSt7__cxx1112basic_stringIcSt11char_traitsIcESaIcEEERfSA_RSt10shared_ptrI6EntityE, @function
_ZN6Engine12intesect_rayER3RayiRKNSt7__cxx1112basic_stringIcSt11char_traitsIcESaIcEEERfSA_RSt10shared_ptrI6EntityE:
.LFB12049:
	.cfi_startproc
	.cfi_personality 0x9b,DW.ref.__gxx_personality_v0
	.cfi_lsda 0x1b,.LLSDA12049
	endbr64
	pushq	%r15
	.cfi_def_cfa_offset 16
	.cfi_offset 15, -16
	pushq	%r14
	.cfi_def_cfa_offset 24
	.cfi_offset 14, -24
	pushq	%r13
	.cfi_def_cfa_offset 32
	.cfi_offset 13, -32
	pushq	%r12
	.cfi_def_cfa_offset 40
	.cfi_offset 12, -40
	pushq	%rbp
	.cfi_def_cfa_offset 48
	.cfi_offset 6, -48
	pushq	%rbx
	.cfi_def_cfa_offset 56
	.cfi_offset 3, -56
	subq	$168, %rsp
	.cfi_def_cfa_offset 224
	movq	168(%rdi), %rax
	movq	160(%rdi), %r12
	movq	%rcx, 64(%rsp)
	movq	224(%rsp), %rcx
	movl	%edx, 28(%rsp)
	movq	%r8, 40(%rsp)
	movq	%r9, 48(%rsp)
	movq	%rcx, 56(%rsp)
	movq	%fs:40, %rdx
	movq	%rdx, 152(%rsp)
	xorl	%edx, %edx
	movl	$0x7f800000, (%r8)
	movq	%rax, 16(%rsp)
	cmpq	%r12, %rax
	je	.L418
	leaq	96(%rsp), %rax
	movq	%rsi, %rbp
	movq	%rax, 32(%rsp)
	leaq	112(%rsp), %rax
	movq	%rax, 72(%rsp)
	jmp	.L420
	.p2align 4,,10
	.p2align 3
.L430:
	addq	$16, %r12
	cmpq	%r12, 16(%rsp)
	je	.L499
.L420:
	movq	(%r12), %rdi
.LEHB3:
	call	_ZNK6Entity13get_entity_idEv@PLT
	cmpl	28(%rsp), %eax
	je	.L430
	movq	(%r12), %rsi
	movq	32(%rsp), %rdi
	call	_ZNK6Entity7bound2fEv@PLT
	movss	96(%rsp), %xmm7
	movss	0(%rbp), %xmm2
	movss	104(%rsp), %xmm8
	movss	24(%rbp), %xmm0
	movaps	%xmm7, %xmm1
	movss	100(%rsp), %xmm6
	movss	4(%rbp), %xmm5
	movaps	%xmm8, %xmm4
	subss	%xmm2, %xmm1
	movss	28(%rbp), %xmm9
	movss	108(%rsp), %xmm10
	subss	%xmm2, %xmm4
	comiss	%xmm2, %xmm8
	movaps	%xmm10, %xmm3
	mulss	%xmm0, %xmm1
	subss	%xmm5, %xmm3
	mulss	%xmm0, %xmm4
	movaps	%xmm6, %xmm0
	setnb	%al
	subss	%xmm5, %xmm0
	comiss	%xmm7, %xmm2
	mulss	%xmm9, %xmm3
	mulss	%xmm9, %xmm0
	movaps	%xmm1, %xmm9
	setnb	%dl
	minss	%xmm4, %xmm9
	maxss	%xmm4, %xmm1
	andl	%edx, %eax
	comiss	%xmm6, %xmm5
	movaps	%xmm0, %xmm11
	maxss	%xmm3, %xmm0
	setnb	%dl
	minss	%xmm3, %xmm11
	movaps	%xmm1, %xmm3
	minss	%xmm0, %xmm3
	pxor	%xmm0, %xmm0
	maxss	%xmm9, %xmm11
	movss	%xmm3, 12(%rsp)
	cmpltss	%xmm11, %xmm0
	movaps	%xmm11, %xmm12
	movss	%xmm11, 24(%rsp)
	andps	%xmm0, %xmm12
	andnps	%xmm3, %xmm0
	orps	%xmm12, %xmm0
	movss	%xmm0, 4(%rsp)
	testb	%dl, %al
	je	.L470
	comiss	%xmm5, %xmm10
	jnb	.L467
.L470:
	movss	12(%rsp), %xmm5
	comiss	24(%rsp), %xmm5
	jb	.L430
.L423:
	movq	40(%rsp), %rax
	movss	4(%rsp), %xmm5
	comiss	(%rax), %xmm5
	jnb	.L430
	movq	(%r12), %rsi
	movq	72(%rsp), %rdi
	call	_ZNK6Entity9get_classB5cxx11Ev@PLT
.LEHE3:
	movq	64(%rsp), %rax
	movq	112(%rsp), %r13
	movq	120(%rsp), %rdx
	movq	(%rax), %rsi
	cmpq	8(%rax), %rdx
	je	.L500
.L428:
	leaq	128(%rsp), %rax
	cmpq	%rax, %r13
	je	.L430
	movq	128(%rsp), %rax
	movq	%r13, %rdi
	addq	$16, %r12
	leaq	1(%rax), %rsi
	call	_ZdlPvm@PLT
	cmpq	%r12, 16(%rsp)
	jne	.L420
	.p2align 4,,10
	.p2align 3
.L499:
	movq	40(%rsp), %rax
	movss	.LC6(%rip), %xmm0
	comiss	(%rax), %xmm0
	jb	.L418
	movq	48(%rsp), %rcx
	pxor	%xmm0, %xmm0
	movl	$1, %eax
	comiss	(%rcx), %xmm0
	jnb	.L418
.L417:
	movq	152(%rsp), %rdx
	subq	%fs:40, %rdx
	jne	.L501
	addq	$168, %rsp
	.cfi_remember_state
	.cfi_def_cfa_offset 56
	popq	%rbx
	.cfi_def_cfa_offset 48
	popq	%rbp
	.cfi_def_cfa_offset 40
	popq	%r12
	.cfi_def_cfa_offset 32
	popq	%r13
	.cfi_def_cfa_offset 24
	popq	%r14
	.cfi_def_cfa_offset 16
	popq	%r15
	.cfi_def_cfa_offset 8
	ret
	.p2align 4,,10
	.p2align 3
.L418:
	.cfi_restore_state
	xorl	%eax, %eax
	jmp	.L417
	.p2align 4,,10
	.p2align 3
.L467:
	movl	$0x00000000, 4(%rsp)
	jmp	.L423
	.p2align 4,,10
	.p2align 3
.L500:
	testq	%rdx, %rdx
	je	.L429
	movq	%r13, %rdi
	call	memcmp@PLT
	testl	%eax, %eax
	jne	.L428
.L429:
	leaq	128(%rsp), %rax
	cmpq	%rax, %r13
	jne	.L502
.L462:
	movq	8(%r12), %r15
	movq	(%r12), %r14
	testq	%r15, %r15
	je	.L431
	cmpb	$0, __libc_single_threaded(%rip)
	je	.L432
	addl	$1, 8(%r15)
.L431:
	movss	12(%rsp), %xmm0
	subss	4(%rsp), %xmm0
	xorl	%ebx, %ebx
	leaq	88(%rsp), %r13
	mulss	.LC2(%rip), %xmm0
	movss	%xmm0, 8(%rsp)
	jmp	.L434
	.p2align 4,,10
	.p2align 3
.L504:
	addl	$1, %ebx
	cmpl	$100, %ebx
	je	.L503
.L434:
	pxor	%xmm0, %xmm0
	movq	12(%rbp), %xmm1
	movq	%r13, %rsi
	movq	%r14, %rdi
	cvtsi2ssl	%ebx, %xmm0
	mulss	8(%rsp), %xmm0
	addss	4(%rsp), %xmm0
	shufps	$0xe0, %xmm0, %xmm0
	mulps	%xmm0, %xmm1
	movq	0(%rbp), %xmm0
	addps	%xmm0, %xmm1
	movlps	%xmm1, 88(%rsp)
.LEHB4:
	call	_ZNK6Entity8containsE6Point2IfE@PLT
.LEHE4:
	testb	%al, %al
	je	.L504
	testq	%r15, %r15
	je	.L443
.L458:
	cmpb	$0, __libc_single_threaded(%rip)
	je	.L436
	movl	8(%r15), %edx
	leal	-1(%rdx), %ecx
	movl	%ecx, 8(%r15)
.L437:
	cmpl	$1, %edx
	je	.L505
.L439:
	testb	%al, %al
	je	.L430
	.p2align 4,,10
	.p2align 3
.L443:
	movq	40(%rsp), %rax
	movss	24(%rsp), %xmm5
	movq	56(%rsp), %rcx
	movss	12(%rsp), %xmm2
	movss	%xmm5, (%rax)
	movq	48(%rsp), %rax
	movq	8(%r12), %rbx
	movq	8(%rcx), %r13
	movss	%xmm2, (%rax)
	movq	(%r12), %rax
	movq	%rax, (%rcx)
	cmpq	%r13, %rbx
	je	.L430
	testq	%rbx, %rbx
	je	.L445
	cmpb	$0, __libc_single_threaded(%rip)
	je	.L446
	addl	$1, 8(%rbx)
	testq	%r13, %r13
	je	.L448
.L447:
	movl	8(%r13), %eax
	leal	-1(%rax), %edx
	movl	%edx, 8(%r13)
.L451:
	cmpl	$1, %eax
	jne	.L448
	movq	0(%r13), %rax
	movq	%r13, %rdi
	call	*16(%rax)
	cmpb	$0, __libc_single_threaded(%rip)
	je	.L452
	movl	12(%r13), %eax
	leal	-1(%rax), %edx
	movl	%edx, 12(%r13)
.L453:
	cmpl	$1, %eax
	jne	.L448
	movq	0(%r13), %rax
	movq	%r13, %rdi
	call	*24(%rax)
	.p2align 4,,10
	.p2align 3
.L448:
	movq	56(%rsp), %rax
	movq	%rbx, 8(%rax)
	jmp	.L430
	.p2align 4,,10
	.p2align 3
.L432:
	lock addl	$1, 8(%r15)
	jmp	.L431
	.p2align 4,,10
	.p2align 3
.L505:
	movq	(%r15), %rdx
	movb	%al, 4(%rsp)
	movq	%r15, %rdi
	call	*16(%rdx)
	cmpb	$0, __libc_single_threaded(%rip)
	movzbl	4(%rsp), %eax
	je	.L440
	movl	12(%r15), %edx
	leal	-1(%rdx), %ecx
	movl	%ecx, 12(%r15)
.L441:
	cmpl	$1, %edx
	jne	.L439
	movq	(%r15), %rdx
	movb	%al, 4(%rsp)
	movq	%r15, %rdi
	call	*24(%rdx)
	movzbl	4(%rsp), %eax
	jmp	.L439
	.p2align 4,,10
	.p2align 3
.L436:
	movl	$-1, %edx
	lock xaddl	%edx, 8(%r15)
	jmp	.L437
	.p2align 4,,10
	.p2align 3
.L503:
	testq	%r15, %r15
	je	.L430
	jmp	.L458
.L446:
	lock addl	$1, 8(%rbx)
	movq	56(%rsp), %rax
	movq	8(%rax), %r13
.L445:
	testq	%r13, %r13
	je	.L448
	cmpb	$0, __libc_single_threaded(%rip)
	jne	.L447
	movl	$-1, %eax
	lock xaddl	%eax, 8(%r13)
	jmp	.L451
.L440:
	movl	$-1, %edx
	lock xaddl	%edx, 12(%r15)
	jmp	.L441
.L452:
	movl	$-1, %eax
	lock xaddl	%eax, 12(%r13)
	jmp	.L453
.L502:
	movq	128(%rsp), %rax
	movq	%r13, %rdi
	leaq	1(%rax), %rsi
	call	_ZdlPvm@PLT
	jmp	.L462
.L501:
	call	__stack_chk_fail@PLT
.L469:
	endbr64
	movq	%rax, %rbp
	jmp	.L456
	.section	.gcc_except_table
.LLSDA12049:
	.byte	0xff
	.byte	0xff
	.byte	0x1
	.uleb128 .LLSDACSE12049-.LLSDACSB12049
.LLSDACSB12049:
	.uleb128 .LEHB3-.LFB12049
	.uleb128 .LEHE3-.LEHB3
	.uleb128 0
	.uleb128 0
	.uleb128 .LEHB4-.LFB12049
	.uleb128 .LEHE4-.LEHB4
	.uleb128 .L469-.LFB12049
	.uleb128 0
.LLSDACSE12049:
	.text
	.cfi_endproc
	.section	.text.unlikely
	.cfi_startproc
	.cfi_personality 0x9b,DW.ref.__gxx_personality_v0
	.cfi_lsda 0x1b,.LLSDAC12049
	.type	_ZN6Engine12intesect_rayER3RayiRKNSt7__cxx1112basic_stringIcSt11char_traitsIcESaIcEEERfSA_RSt10shared_ptrI6EntityE.cold, @function
_ZN6Engine12intesect_rayER3RayiRKNSt7__cxx1112basic_stringIcSt11char_traitsIcESaIcEEERfSA_RSt10shared_ptrI6EntityE.cold:
.LFSB12049:
.L456:
	.cfi_def_cfa_offset 224
	.cfi_offset 3, -56
	.cfi_offset 6, -48
	.cfi_offset 12, -40
	.cfi_offset 13, -32
	.cfi_offset 14, -24
	.cfi_offset 15, -16
	testq	%r15, %r15
	je	.L457
	movq	%r15, %rdi
	call	_ZNSt16_Sp_counted_baseILN9__gnu_cxx12_Lock_policyE2EE10_M_releaseEv
.L457:
	movq	%rbp, %rdi
.LEHB5:
	call	_Unwind_Resume@PLT
.LEHE5:
	.cfi_endproc
.LFE12049:
	.section	.gcc_except_table
.LLSDAC12049:
	.byte	0xff
	.byte	0xff
	.byte	0x1
	.uleb128 .LLSDACSEC12049-.LLSDACSBC12049
.LLSDACSBC12049:
	.uleb128 .LEHB5-.LCOLDB8
	.uleb128 .LEHE5-.LEHB5
	.uleb128 0
	.uleb128 0
.LLSDACSEC12049:
	.section	.text.unlikely
	.text
	.size	_ZN6Engine12intesect_rayER3RayiRKNSt7__cxx1112basic_stringIcSt11char_traitsIcESaIcEEERfSA_RSt10shared_ptrI6EntityE, .-_ZN6Engine12intesect_rayER3RayiRKNSt7__cxx1112basic_stringIcSt11char_traitsIcESaIcEEERfSA_RSt10shared_ptrI6EntityE
	.section	.text.unlikely
	.size	_ZN6Engine12intesect_rayER3RayiRKNSt7__cxx1112basic_stringIcSt11char_traitsIcESaIcEEERfSA_RSt10shared_ptrI6EntityE.cold, .-_ZN6Engine12intesect_rayER3RayiRKNSt7__cxx1112basic_stringIcSt11char_traitsIcESaIcEEERfSA_RSt10shared_ptrI6EntityE.cold
.LCOLDE8:
	.text
.LHOTE8:
	.section	.text.unlikely
.LCOLDB9:
	.text
.LHOTB9:
	.p2align 4
	.type	_ZSt13__adjust_heapIN9__gnu_cxx17__normal_iteratorIPSt10shared_ptrI6EntityESt6vectorIS4_SaIS4_EEEElS4_NS0_5__ops15_Iter_comp_iterIZN6Engine16sort_by_z_bufferEvEUlS4_S4_E_EEEvT_T0_SG_T1_T2_, @function
_ZSt13__adjust_heapIN9__gnu_cxx17__normal_iteratorIPSt10shared_ptrI6EntityESt6vectorIS4_SaIS4_EEEElS4_NS0_5__ops15_Iter_comp_iterIZN6Engine16sort_by_z_bufferEvEUlS4_S4_E_EEEvT_T0_SG_T1_T2_:
.LFB13316:
	.cfi_startproc
	.cfi_personality 0x9b,DW.ref.__gxx_personality_v0
	.cfi_lsda 0x1b,.LLSDA13316
	pushq	%r15
	.cfi_def_cfa_offset 16
	.cfi_offset 15, -16
	pushq	%r14
	.cfi_def_cfa_offset 24
	.cfi_offset 14, -24
	pushq	%r13
	.cfi_def_cfa_offset 32
	.cfi_offset 13, -32
	pushq	%r12
	.cfi_def_cfa_offset 40
	.cfi_offset 12, -40
	pushq	%rbp
	.cfi_def_cfa_offset 48
	.cfi_offset 6, -48
	pushq	%rbx
	.cfi_def_cfa_offset 56
	.cfi_offset 3, -56
	subq	$136, %rsp
	.cfi_def_cfa_offset 192
	movq	%rdx, 80(%rsp)
	subq	$1, %rdx
	movq	%rdi, 8(%rsp)
	movq	%rsi, 56(%rsp)
	movq	%rcx, 88(%rsp)
	movq	%fs:40, %rax
	movq	%rax, 120(%rsp)
	xorl	%eax, %eax
	movq	%rdx, %rax
	shrq	$63, %rax
	addq	%rdx, %rax
	sarq	%rax
	movq	%rax, 64(%rsp)
	cmpq	%rax, %rsi
	jge	.L507
	leaq	96(%rsp), %rax
	movq	%rsi, 16(%rsp)
	movq	%rax, 32(%rsp)
	leaq	108(%rsp), %rax
	movq	%rax, 72(%rsp)
	movq	%rsi, %rax
	jmp	.L541
	.p2align 4,,10
	.p2align 3
.L512:
	movq	24(%rsp), %rdi
.LEHB6:
	call	_ZNK6Entity10is_deletedEv@PLT
	testb	%al, %al
	jne	.L514
	movl	$1, %r12d
.L513:
	testq	%rbp, %rbp
	je	.L516
	cmpb	$0, __libc_single_threaded(%rip)
	je	.L517
	movl	8(%rbp), %eax
	leal	-1(%rax), %edx
	movl	%edx, 8(%rbp)
.L518:
	cmpl	$1, %eax
	je	.L633
.L516:
	testq	%r15, %r15
	je	.L523
	cmpb	$0, __libc_single_threaded(%rip)
	je	.L524
	movl	8(%r15), %eax
	leal	-1(%rax), %edx
	movl	%edx, 8(%r15)
.L525:
	cmpl	$1, %eax
	je	.L634
.L523:
	testb	%r12b, %r12b
	movq	16(%rsp), %rax
	cmovne	40(%rsp), %r14
	pxor	%xmm1, %xmm1
	cmovne	%r13, %rbx
	salq	$4, %rax
	addq	8(%rsp), %rax
	movdqu	(%rbx), %xmm0
	movups	%xmm1, (%rbx)
	movq	8(%rax), %rbp
	movups	%xmm0, (%rax)
	testq	%rbp, %rbp
	je	.L535
	cmpb	$0, __libc_single_threaded(%rip)
	je	.L536
	movl	8(%rbp), %eax
	leal	-1(%rax), %edx
	movl	%edx, 8(%rbp)
.L537:
	cmpl	$1, %eax
	je	.L635
.L535:
	cmpq	64(%rsp), %r14
	jge	.L636
.L596:
	movq	%r14, 16(%rsp)
	movq	%r14, %rax
.L541:
	leaq	1(%rax), %rbx
	movq	8(%rsp), %rcx
	leaq	(%rbx,%rbx), %r14
	salq	$5, %rbx
	leaq	-1(%r14), %rax
	addq	%rcx, %rbx
	movq	%rax, 40(%rsp)
	salq	$4, %rax
	leaq	(%rcx,%rax), %r13
	movq	8(%r13), %r15
	movq	0(%r13), %r12
	testq	%r15, %r15
	je	.L508
	cmpb	$0, __libc_single_threaded(%rip)
	je	.L509
	addl	$1, 8(%r15)
.L508:
	movq	(%rbx), %rax
	movq	8(%rbx), %rbp
	movq	%rax, 24(%rsp)
	testq	%rbp, %rbp
	je	.L510
	cmpb	$0, __libc_single_threaded(%rip)
	je	.L511
	addl	$1, 8(%rbp)
.L510:
	movq	24(%rsp), %rsi
	movq	32(%rsp), %rdi
	call	_ZNK6Entity14get_position3DEv@PLT
	movss	104(%rsp), %xmm3
	movq	72(%rsp), %rdi
	movq	%r12, %rsi
	movss	%xmm3, 52(%rsp)
	call	_ZNK6Entity14get_position3DEv@PLT
	movss	52(%rsp), %xmm3
	comiss	116(%rsp), %xmm3
	ja	.L512
.L514:
	movq	%r12, %rdi
	call	_ZNK6Entity10is_deletedEv@PLT
.LEHE6:
	movl	%eax, %r12d
	jmp	.L513
	.p2align 4,,10
	.p2align 3
.L509:
	lock addl	$1, 8(%r15)
	jmp	.L508
	.p2align 4,,10
	.p2align 3
.L511:
	lock addl	$1, 8(%rbp)
	jmp	.L510
	.p2align 4,,10
	.p2align 3
.L633:
	movq	0(%rbp), %rax
	movq	%rbp, %rdi
	call	*16(%rax)
	cmpb	$0, __libc_single_threaded(%rip)
	je	.L520
	movl	12(%rbp), %eax
	leal	-1(%rax), %edx
	movl	%edx, 12(%rbp)
.L521:
	cmpl	$1, %eax
	jne	.L516
	movq	0(%rbp), %rax
	movq	%rbp, %rdi
	call	*24(%rax)
	jmp	.L516
	.p2align 4,,10
	.p2align 3
.L634:
	movq	(%r15), %rax
	movq	%r15, %rdi
	call	*16(%rax)
	cmpb	$0, __libc_single_threaded(%rip)
	je	.L527
	movl	12(%r15), %eax
	leal	-1(%rax), %edx
	movl	%edx, 12(%r15)
.L528:
	cmpl	$1, %eax
	jne	.L523
	movq	(%r15), %rax
	movq	%r15, %rdi
	call	*24(%rax)
	jmp	.L523
	.p2align 4,,10
	.p2align 3
.L635:
	movq	0(%rbp), %rax
	movq	%rbp, %rdi
	call	*16(%rax)
	cmpb	$0, __libc_single_threaded(%rip)
	je	.L539
	movl	12(%rbp), %eax
	leal	-1(%rax), %edx
	movl	%edx, 12(%rbp)
.L540:
	cmpl	$1, %eax
	jne	.L535
	movq	0(%rbp), %rax
	movq	%rbp, %rdi
	call	*24(%rax)
	cmpq	64(%rsp), %r14
	jl	.L596
	.p2align 4,,10
	.p2align 3
.L636:
	testb	$1, 80(%rsp)
	je	.L593
.L542:
	movq	88(%rsp), %rax
	pxor	%xmm0, %xmm0
	movq	(%rax), %rcx
	movq	8(%rax), %r12
	movups	%xmm0, (%rax)
	leaq	-1(%r14), %rax
	movq	%rax, %r13
	shrq	$63, %r13
	movq	%rcx, 24(%rsp)
	addq	%rax, %r13
	sarq	%r13
	cmpq	56(%rsp), %r14
	jle	.L629
	leaq	96(%rsp), %rax
	movq	%rax, 32(%rsp)
	leaq	108(%rsp), %rax
	movq	%rax, 40(%rsp)
	jmp	.L547
	.p2align 4,,10
	.p2align 3
.L561:
	movq	%r15, %rdi
.LEHB7:
	call	_ZNK6Entity10is_deletedEv@PLT
	testb	%al, %al
	jne	.L563
	movl	$1, %r15d
.L562:
	testq	%rbp, %rbp
	je	.L565
	cmpb	$0, __libc_single_threaded(%rip)
	je	.L566
	movl	8(%rbp), %eax
	leal	-1(%rax), %edx
	movl	%edx, 8(%rbp)
.L567:
	cmpl	$1, %eax
	je	.L637
.L565:
	testq	%r12, %r12
	je	.L572
	cmpb	$0, __libc_single_threaded(%rip)
	je	.L573
	movl	8(%r12), %eax
	leal	-1(%rax), %edx
	movl	%edx, 8(%r12)
.L574:
	cmpl	$1, %eax
	je	.L638
.L572:
	movq	%r14, %rax
	salq	$4, %rax
	addq	8(%rsp), %rax
	testb	%r15b, %r15b
	je	.L556
	pxor	%xmm1, %xmm1
	movdqu	(%rbx), %xmm0
	movups	%xmm1, (%rbx)
	movq	8(%rax), %rbp
	movups	%xmm0, (%rax)
	testq	%rbp, %rbp
	je	.L552
	cmpb	$0, __libc_single_threaded(%rip)
	je	.L549
	movl	8(%rbp), %eax
	leal	-1(%rax), %edx
	movl	%edx, 8(%rbp)
.L550:
	cmpl	$1, %eax
	je	.L639
.L552:
	leaq	-1(%r13), %rdx
	movq	%r13, %r14
	movq	%rdx, %rax
	shrq	$63, %rax
	addq	%rdx, %rax
	sarq	%rax
	cmpq	%r13, 56(%rsp)
	jge	.L600
	movq	%rax, %r13
.L547:
	movq	%r13, %rbx
	salq	$4, %rbx
	addq	8(%rsp), %rbx
	testq	%r12, %r12
	je	.L557
	cmpb	$0, __libc_single_threaded(%rip)
	je	.L558
	addl	$1, 8(%r12)
.L557:
	movq	8(%rbx), %rbp
	movq	(%rbx), %r15
	testq	%rbp, %rbp
	je	.L559
	cmpb	$0, __libc_single_threaded(%rip)
	je	.L560
	addl	$1, 8(%rbp)
.L559:
	movq	32(%rsp), %rdi
	movq	%r15, %rsi
	call	_ZNK6Entity14get_position3DEv@PLT
	movss	104(%rsp), %xmm2
	movq	24(%rsp), %rsi
	movq	40(%rsp), %rdi
	movss	%xmm2, 16(%rsp)
	call	_ZNK6Entity14get_position3DEv@PLT
	movss	16(%rsp), %xmm2
	comiss	116(%rsp), %xmm2
	ja	.L561
.L563:
	movq	24(%rsp), %rdi
	call	_ZNK6Entity10is_deletedEv@PLT
.LEHE7:
	movl	%eax, %r15d
	jmp	.L562
	.p2align 4,,10
	.p2align 3
.L524:
	movl	$-1, %eax
	lock xaddl	%eax, 8(%r15)
	jmp	.L525
	.p2align 4,,10
	.p2align 3
.L536:
	movl	$-1, %eax
	lock xaddl	%eax, 8(%rbp)
	jmp	.L537
	.p2align 4,,10
	.p2align 3
.L517:
	movl	$-1, %eax
	lock xaddl	%eax, 8(%rbp)
	jmp	.L518
	.p2align 4,,10
	.p2align 3
.L507:
	testb	$1, 80(%rsp)
	jne	.L640
	movq	%rsi, %r14
	.p2align 4,,10
	.p2align 3
.L593:
	movq	80(%rsp), %rdx
	subq	$2, %rdx
	movq	%rdx, %rax
	shrq	$63, %rax
	addq	%rdx, %rax
	sarq	%rax
	cmpq	%r14, %rax
	jne	.L542
	leaq	1(%r14,%r14), %rbx
	movq	8(%rsp), %rcx
	movq	%r14, %rax
	pxor	%xmm1, %xmm1
	movq	%rbx, %rdx
	salq	$4, %rax
	movq	%rbx, %r14
	salq	$4, %rdx
	addq	%rcx, %rax
	addq	%rcx, %rdx
	movdqu	(%rdx), %xmm0
	movups	%xmm1, (%rdx)
	movq	8(%rax), %rbp
	movups	%xmm0, (%rax)
	testq	%rbp, %rbp
	je	.L542
	cmpb	$0, __libc_single_threaded(%rip)
	je	.L543
	movl	8(%rbp), %eax
	leal	-1(%rax), %edx
	movl	%edx, 8(%rbp)
.L544:
	movq	%rbx, %r14
	cmpl	$1, %eax
	jne	.L542
	movq	0(%rbp), %rax
	movq	%rbp, %rdi
	call	*16(%rax)
	cmpb	$0, __libc_single_threaded(%rip)
	je	.L545
	movl	12(%rbp), %eax
	leal	-1(%rax), %edx
	movl	%edx, 12(%rbp)
.L546:
	movq	%rbx, %r14
	cmpl	$1, %eax
	jne	.L542
	movq	0(%rbp), %rax
	movq	%rbp, %rdi
	call	*24(%rax)
	jmp	.L542
	.p2align 4,,10
	.p2align 3
.L558:
	lock addl	$1, 8(%r12)
	jmp	.L557
	.p2align 4,,10
	.p2align 3
.L560:
	lock addl	$1, 8(%rbp)
	jmp	.L559
	.p2align 4,,10
	.p2align 3
.L638:
	movq	(%r12), %rax
	movq	%r12, %rdi
	call	*16(%rax)
	cmpb	$0, __libc_single_threaded(%rip)
	je	.L576
	movl	12(%r12), %eax
	leal	-1(%rax), %edx
	movl	%edx, 12(%r12)
.L577:
	cmpl	$1, %eax
	jne	.L572
	movq	(%r12), %rax
	movq	%r12, %rdi
	call	*24(%rax)
	jmp	.L572
	.p2align 4,,10
	.p2align 3
.L637:
	movq	0(%rbp), %rax
	movq	%rbp, %rdi
	call	*16(%rax)
	cmpb	$0, __libc_single_threaded(%rip)
	je	.L569
	movl	12(%rbp), %eax
	leal	-1(%rax), %edx
	movl	%edx, 12(%rbp)
.L570:
	cmpl	$1, %eax
	jne	.L565
	movq	0(%rbp), %rax
	movq	%rbp, %rdi
	call	*24(%rax)
	jmp	.L565
	.p2align 4,,10
	.p2align 3
.L573:
	movl	$-1, %eax
	lock xaddl	%eax, 8(%r12)
	jmp	.L574
	.p2align 4,,10
	.p2align 3
.L566:
	movl	$-1, %eax
	lock xaddl	%eax, 8(%rbp)
	jmp	.L567
	.p2align 4,,10
	.p2align 3
.L639:
	movq	0(%rbp), %rax
	movq	%rbp, %rdi
	call	*16(%rax)
	cmpb	$0, __libc_single_threaded(%rip)
	je	.L553
	movl	12(%rbp), %eax
	leal	-1(%rax), %edx
	movl	%edx, 12(%rbp)
.L554:
	cmpl	$1, %eax
	jne	.L552
	movq	0(%rbp), %rax
	movq	%rbp, %rdi
	call	*24(%rax)
	jmp	.L552
	.p2align 4,,10
	.p2align 3
.L549:
	movl	$-1, %eax
	lock xaddl	%eax, 8(%rbp)
	jmp	.L550
	.p2align 4,,10
	.p2align 3
.L600:
	movq	%rbx, %rax
.L556:
	movq	24(%rsp), %xmm0
	movq	8(%rax), %rbp
	movq	%r12, %xmm4
	punpcklqdq	%xmm4, %xmm0
	movups	%xmm0, (%rax)
	testq	%rbp, %rbp
	je	.L506
	cmpb	$0, __libc_single_threaded(%rip)
	je	.L587
	movl	8(%rbp), %eax
	leal	-1(%rax), %edx
	movl	%edx, 8(%rbp)
.L588:
	cmpl	$1, %eax
	je	.L641
.L506:
	movq	120(%rsp), %rax
	subq	%fs:40, %rax
	jne	.L632
	addq	$136, %rsp
	.cfi_remember_state
	.cfi_def_cfa_offset 56
	popq	%rbx
	.cfi_def_cfa_offset 48
	popq	%rbp
	.cfi_def_cfa_offset 40
	popq	%r12
	.cfi_def_cfa_offset 32
	popq	%r13
	.cfi_def_cfa_offset 24
	popq	%r14
	.cfi_def_cfa_offset 16
	popq	%r15
	.cfi_def_cfa_offset 8
	ret
	.p2align 4,,10
	.p2align 3
.L569:
	.cfi_restore_state
	movl	$-1, %eax
	lock xaddl	%eax, 12(%rbp)
	jmp	.L570
	.p2align 4,,10
	.p2align 3
.L576:
	movl	$-1, %eax
	lock xaddl	%eax, 12(%r12)
	jmp	.L577
	.p2align 4,,10
	.p2align 3
.L553:
	movl	$-1, %eax
	lock xaddl	%eax, 12(%rbp)
	jmp	.L554
	.p2align 4,,10
	.p2align 3
.L539:
	movl	$-1, %eax
	lock xaddl	%eax, 12(%rbp)
	jmp	.L540
	.p2align 4,,10
	.p2align 3
.L527:
	movl	$-1, %eax
	lock xaddl	%eax, 12(%r15)
	jmp	.L528
	.p2align 4,,10
	.p2align 3
.L520:
	movl	$-1, %eax
	lock xaddl	%eax, 12(%rbp)
	jmp	.L521
	.p2align 4,,10
	.p2align 3
.L641:
	movq	0(%rbp), %rax
	movq	%rbp, %rdi
	call	*16(%rax)
	cmpb	$0, __libc_single_threaded(%rip)
	je	.L590
	movl	12(%rbp), %eax
	leal	-1(%rax), %edx
	movl	%edx, 12(%rbp)
.L591:
	cmpl	$1, %eax
	jne	.L506
	movq	120(%rsp), %rax
	subq	%fs:40, %rax
	jne	.L632
	movq	0(%rbp), %rax
	movq	%rbp, %rdi
	movq	24(%rax), %rax
	addq	$136, %rsp
	.cfi_remember_state
	.cfi_def_cfa_offset 56
	popq	%rbx
	.cfi_def_cfa_offset 48
	popq	%rbp
	.cfi_def_cfa_offset 40
	popq	%r12
	.cfi_def_cfa_offset 32
	popq	%r13
	.cfi_def_cfa_offset 24
	popq	%r14
	.cfi_def_cfa_offset 16
	popq	%r15
	.cfi_def_cfa_offset 8
	jmp	*%rax
	.p2align 4,,10
	.p2align 3
.L587:
	.cfi_restore_state
	movl	$-1, %eax
	lock xaddl	%eax, 8(%rbp)
	jmp	.L588
.L590:
	movl	$-1, %eax
	lock xaddl	%eax, 12(%rbp)
	jmp	.L591
.L640:
	movq	%rcx, %rax
	movq	(%rcx), %rcx
	pxor	%xmm0, %xmm0
	movq	8(%rax), %r12
	movups	%xmm0, (%rax)
	movq	%rsi, %rax
	movq	%rcx, 24(%rsp)
.L548:
	salq	$4, %rax
	addq	8(%rsp), %rax
	jmp	.L556
.L543:
	movl	$-1, %eax
	lock xaddl	%eax, 8(%rbp)
	jmp	.L544
.L545:
	movl	$-1, %eax
	lock xaddl	%eax, 12(%rbp)
	jmp	.L546
.L629:
	movq	%r14, 56(%rsp)
	movq	%r14, %rax
	jmp	.L548
.L632:
	call	__stack_chk_fail@PLT
.L603:
	endbr64
	movq	%rax, %r13
	jmp	.L579
.L602:
	endbr64
	movq	%rax, %r12
	jmp	.L531
	.section	.gcc_except_table
.LLSDA13316:
	.byte	0xff
	.byte	0xff
	.byte	0x1
	.uleb128 .LLSDACSE13316-.LLSDACSB13316
.LLSDACSB13316:
	.uleb128 .LEHB6-.LFB13316
	.uleb128 .LEHE6-.LEHB6
	.uleb128 .L602-.LFB13316
	.uleb128 0
	.uleb128 .LEHB7-.LFB13316
	.uleb128 .LEHE7-.LEHB7
	.uleb128 .L603-.LFB13316
	.uleb128 0
.LLSDACSE13316:
	.text
	.cfi_endproc
	.section	.text.unlikely
	.cfi_startproc
	.cfi_personality 0x9b,DW.ref.__gxx_personality_v0
	.cfi_lsda 0x1b,.LLSDAC13316
	.type	_ZSt13__adjust_heapIN9__gnu_cxx17__normal_iteratorIPSt10shared_ptrI6EntityESt6vectorIS4_SaIS4_EEEElS4_NS0_5__ops15_Iter_comp_iterIZN6Engine16sort_by_z_bufferEvEUlS4_S4_E_EEEvT_T0_SG_T1_T2_.cold, @function
_ZSt13__adjust_heapIN9__gnu_cxx17__normal_iteratorIPSt10shared_ptrI6EntityESt6vectorIS4_SaIS4_EEEElS4_NS0_5__ops15_Iter_comp_iterIZN6Engine16sort_by_z_bufferEvEUlS4_S4_E_EEEvT_T0_SG_T1_T2_.cold:
.LFSB13316:
.L579:
	.cfi_def_cfa_offset 192
	.cfi_offset 3, -56
	.cfi_offset 6, -48
	.cfi_offset 12, -40
	.cfi_offset 13, -32
	.cfi_offset 14, -24
	.cfi_offset 15, -16
	testq	%rbp, %rbp
	je	.L580
	movq	%rbp, %rdi
	call	_ZNSt16_Sp_counted_baseILN9__gnu_cxx12_Lock_policyE2EE10_M_releaseEv
.L580:
	testq	%r12, %r12
	je	.L583
	movq	%r12, %rdi
	call	_ZNSt16_Sp_counted_baseILN9__gnu_cxx12_Lock_policyE2EE10_M_releaseEv
	movq	%r12, %rdi
	call	_ZNSt16_Sp_counted_baseILN9__gnu_cxx12_Lock_policyE2EE10_M_releaseEv
.L583:
	movq	%r13, %rdi
.LEHB8:
	call	_Unwind_Resume@PLT
.L531:
	testq	%rbp, %rbp
	je	.L532
	movq	%rbp, %rdi
	call	_ZNSt16_Sp_counted_baseILN9__gnu_cxx12_Lock_policyE2EE10_M_releaseEv
.L532:
	testq	%r15, %r15
	je	.L533
	movq	%r15, %rdi
	call	_ZNSt16_Sp_counted_baseILN9__gnu_cxx12_Lock_policyE2EE10_M_releaseEv
.L533:
	movq	%r12, %rdi
	call	_Unwind_Resume@PLT
.LEHE8:
	.cfi_endproc
.LFE13316:
	.section	.gcc_except_table
.LLSDAC13316:
	.byte	0xff
	.byte	0xff
	.byte	0x1
	.uleb128 .LLSDACSEC13316-.LLSDACSBC13316
.LLSDACSBC13316:
	.uleb128 .LEHB8-.LCOLDB9
	.uleb128 .LEHE8-.LEHB8
	.uleb128 0
	.uleb128 0
.LLSDACSEC13316:
	.section	.text.unlikely
	.text
	.size	_ZSt13__adjust_heapIN9__gnu_cxx17__normal_iteratorIPSt10shared_ptrI6EntityESt6vectorIS4_SaIS4_EEEElS4_NS0_5__ops15_Iter_comp_iterIZN6Engine16sort_by_z_bufferEvEUlS4_S4_E_EEEvT_T0_SG_T1_T2_, .-_ZSt13__adjust_heapIN9__gnu_cxx17__normal_iteratorIPSt10shared_ptrI6EntityESt6vectorIS4_SaIS4_EEEElS4_NS0_5__ops15_Iter_comp_iterIZN6Engine16sort_by_z_bufferEvEUlS4_S4_E_EEEvT_T0_SG_T1_T2_
	.section	.text.unlikely
	.size	_ZSt13__adjust_heapIN9__gnu_cxx17__normal_iteratorIPSt10shared_ptrI6EntityESt6vectorIS4_SaIS4_EEEElS4_NS0_5__ops15_Iter_comp_iterIZN6Engine16sort_by_z_bufferEvEUlS4_S4_E_EEEvT_T0_SG_T1_T2_.cold, .-_ZSt13__adjust_heapIN9__gnu_cxx17__normal_iteratorIPSt10shared_ptrI6EntityESt6vectorIS4_SaIS4_EEEElS4_NS0_5__ops15_Iter_comp_iterIZN6Engine16sort_by_z_bufferEvEUlS4_S4_E_EEEvT_T0_SG_T1_T2_.cold
.LCOLDE9:
	.text
.LHOTE9:
	.section	.text.unlikely
.LCOLDB10:
	.text
.LHOTB10:
	.p2align 4
	.type	_ZSt16__insertion_sortIN9__gnu_cxx17__normal_iteratorIPSt10shared_ptrI6EntityESt6vectorIS4_SaIS4_EEEENS0_5__ops15_Iter_comp_iterIZN6Engine16sort_by_z_bufferEvEUlS4_S4_E_EEEvT_SF_T0_, @function
_ZSt16__insertion_sortIN9__gnu_cxx17__normal_iteratorIPSt10shared_ptrI6EntityESt6vectorIS4_SaIS4_EEEENS0_5__ops15_Iter_comp_iterIZN6Engine16sort_by_z_bufferEvEUlS4_S4_E_EEEvT_SF_T0_:
.LFB13052:
	.cfi_startproc
	.cfi_personality 0x9b,DW.ref.__gxx_personality_v0
	.cfi_lsda 0x1b,.LLSDA13052
	pushq	%r15
	.cfi_def_cfa_offset 16
	.cfi_offset 15, -16
	pushq	%r14
	.cfi_def_cfa_offset 24
	.cfi_offset 14, -24
	pushq	%r13
	.cfi_def_cfa_offset 32
	.cfi_offset 13, -32
	pushq	%r12
	.cfi_def_cfa_offset 40
	.cfi_offset 12, -40
	pushq	%rbp
	.cfi_def_cfa_offset 48
	.cfi_offset 6, -48
	pushq	%rbx
	.cfi_def_cfa_offset 56
	.cfi_offset 3, -56
	subq	$88, %rsp
	.cfi_def_cfa_offset 144
	movq	%rdi, 32(%rsp)
	movq	%rsi, 40(%rsp)
	movq	%fs:40, %rax
	movq	%rax, 72(%rsp)
	xorl	%eax, %eax
	cmpq	%rsi, %rdi
	je	.L642
	movq	%rdi, %rax
	addq	$16, %rax
	cmpq	%rsi, %rax
	je	.L642
	movq	%rax, %r15
	leaq	48(%rsp), %rax
	movq	%rax, 16(%rsp)
	leaq	60(%rsp), %rax
	movq	%rax, 24(%rsp)
	.p2align 4,,10
	.p2align 3
.L729:
	movq	32(%rsp), %rax
	movq	%r15, %rbx
	movq	8(%rax), %r13
	movq	(%rax), %r14
	testq	%r13, %r13
	je	.L645
	cmpb	$0, __libc_single_threaded(%rip)
	je	.L646
	addl	$1, 8(%r13)
.L645:
	movq	8(%r15), %rbp
	movq	(%r15), %r12
	testq	%rbp, %rbp
	je	.L647
	cmpb	$0, __libc_single_threaded(%rip)
	je	.L648
	addl	$1, 8(%rbp)
.L647:
	movq	16(%rsp), %rdi
	movq	%r12, %rsi
.LEHB9:
	call	_ZNK6Entity14get_position3DEv@PLT
	movss	56(%rsp), %xmm5
	movq	24(%rsp), %rdi
	movq	%r14, %rsi
	movss	%xmm5, (%rsp)
	call	_ZNK6Entity14get_position3DEv@PLT
	movss	(%rsp), %xmm5
	comiss	68(%rsp), %xmm5
	jbe	.L651
	movq	%r12, %rdi
	call	_ZNK6Entity10is_deletedEv@PLT
	testb	%al, %al
	jne	.L651
	movl	$1, %eax
.L650:
	testq	%rbp, %rbp
	je	.L653
	cmpb	$0, __libc_single_threaded(%rip)
	je	.L654
	movl	8(%rbp), %edx
	leal	-1(%rdx), %ecx
	movl	%ecx, 8(%rbp)
.L655:
	cmpl	$1, %edx
	je	.L763
.L653:
	testq	%r13, %r13
	je	.L660
	cmpb	$0, __libc_single_threaded(%rip)
	je	.L661
	movl	8(%r13), %edx
	leal	-1(%rdx), %ecx
	movl	%ecx, 8(%r13)
.L662:
	cmpl	$1, %edx
	je	.L764
.L660:
	movq	(%r15), %r14
	movq	8(%r15), %r12
	testb	%al, %al
	je	.L765
	movq	%r14, %xmm4
	pxor	%xmm7, %xmm7
	leaq	16(%r15), %rbp
	movq	%r15, %rax
	movq	%r12, %xmm6
	subq	32(%rsp), %rax
	movups	%xmm7, (%r15)
	punpcklqdq	%xmm6, %xmm4
	movq	%rax, %r13
	movaps	%xmm4, (%rsp)
	sarq	$4, %r13
	testq	%rax, %rax
	jg	.L671
	jmp	.L681
	.p2align 4,,10
	.p2align 3
.L675:
	subq	$1, %r13
	je	.L681
.L671:
	movdqu	-16(%rbx), %xmm0
	movq	8(%rbx), %r12
	pxor	%xmm2, %xmm2
	subq	$16, %rbx
	movups	%xmm2, (%rbx)
	movups	%xmm0, 16(%rbx)
	testq	%r12, %r12
	je	.L675
	cmpb	$0, __libc_single_threaded(%rip)
	je	.L676
	movl	8(%r12), %eax
	leal	-1(%rax), %edx
	movl	%edx, 8(%r12)
.L677:
	cmpl	$1, %eax
	jne	.L675
	movq	(%r12), %rax
	movq	%r12, %rdi
	call	*16(%rax)
	cmpb	$0, __libc_single_threaded(%rip)
	je	.L679
	movl	12(%r12), %eax
	leal	-1(%rax), %edx
	movl	%edx, 12(%r12)
.L680:
	cmpl	$1, %eax
	jne	.L675
	movq	(%r12), %rax
	movq	%r12, %rdi
	call	*24(%rax)
	subq	$1, %r13
	jne	.L671
	.p2align 4,,10
	.p2align 3
.L681:
	movq	32(%rsp), %rax
	movdqa	(%rsp), %xmm6
	movq	8(%rax), %r12
	movups	%xmm6, (%rax)
	testq	%r12, %r12
	je	.L673
	cmpb	$0, __libc_single_threaded(%rip)
	je	.L682
	movl	8(%r12), %eax
	leal	-1(%rax), %edx
	movl	%edx, 8(%r12)
.L683:
	cmpl	$1, %eax
	je	.L766
	.p2align 4,,10
	.p2align 3
.L673:
	movq	%rbp, %r15
	cmpq	%rbp, 40(%rsp)
	jne	.L729
.L642:
	movq	72(%rsp), %rax
	subq	%fs:40, %rax
	jne	.L767
	addq	$88, %rsp
	.cfi_remember_state
	.cfi_def_cfa_offset 56
	popq	%rbx
	.cfi_def_cfa_offset 48
	popq	%rbp
	.cfi_def_cfa_offset 40
	popq	%r12
	.cfi_def_cfa_offset 32
	popq	%r13
	.cfi_def_cfa_offset 24
	popq	%r14
	.cfi_def_cfa_offset 16
	popq	%r15
	.cfi_def_cfa_offset 8
	ret
	.p2align 4,,10
	.p2align 3
.L651:
	.cfi_restore_state
	movq	%r14, %rdi
	call	_ZNK6Entity10is_deletedEv@PLT
.LEHE9:
	jmp	.L650
	.p2align 4,,10
	.p2align 3
.L676:
	movl	$-1, %eax
	lock xaddl	%eax, 8(%r12)
	jmp	.L677
	.p2align 4,,10
	.p2align 3
.L765:
	pxor	%xmm7, %xmm7
	movq	%r15, %rbx
	movups	%xmm7, (%r15)
	jmp	.L686
	.p2align 4,,10
	.p2align 3
.L698:
	movq	%r14, %rdi
.LEHB10:
	call	_ZNK6Entity10is_deletedEv@PLT
	testb	%al, %al
	jne	.L700
	movl	$1, %r13d
.L699:
	testq	%r12, %r12
	je	.L702
	cmpb	$0, __libc_single_threaded(%rip)
	je	.L703
	movl	8(%r12), %eax
	leal	-1(%rax), %edx
	movl	%edx, 8(%r12)
.L704:
	cmpl	$1, %eax
	je	.L768
.L702:
	testq	%rbp, %rbp
	je	.L709
	cmpb	$0, __libc_single_threaded(%rip)
	je	.L710
	movl	8(%rbp), %eax
	leal	-1(%rax), %edx
	movl	%edx, 8(%rbp)
.L711:
	cmpl	$1, %eax
	je	.L769
.L709:
	testb	%r13b, %r13b
	je	.L770
.L715:
	movdqu	-16(%rbx), %xmm0
	movq	8(%rbx), %rbp
	pxor	%xmm3, %xmm3
	movups	%xmm3, -16(%rbx)
	movups	%xmm0, (%rbx)
	testq	%rbp, %rbp
	je	.L688
	cmpb	$0, __libc_single_threaded(%rip)
	je	.L689
	movl	8(%rbp), %eax
	leal	-1(%rax), %edx
	movl	%edx, 8(%rbp)
.L690:
	cmpl	$1, %eax
	je	.L771
.L688:
	subq	$16, %rbx
.L686:
	movq	-8(%rbx), %rbp
	movq	-16(%rbx), %r13
	testq	%rbp, %rbp
	je	.L694
	cmpb	$0, __libc_single_threaded(%rip)
	je	.L695
	addl	$1, 8(%rbp)
.L694:
	testq	%r12, %r12
	je	.L696
	cmpb	$0, __libc_single_threaded(%rip)
	je	.L697
	addl	$1, 8(%r12)
.L696:
	movq	16(%rsp), %rdi
	movq	%r14, %rsi
	call	_ZNK6Entity14get_position3DEv@PLT
	movss	56(%rsp), %xmm1
	movq	24(%rsp), %rdi
	movq	%r13, %rsi
	movss	%xmm1, (%rsp)
	call	_ZNK6Entity14get_position3DEv@PLT
	movss	(%rsp), %xmm1
	comiss	68(%rsp), %xmm1
	ja	.L698
.L700:
	movq	%r13, %rdi
	call	_ZNK6Entity10is_deletedEv@PLT
.LEHE10:
	movl	%eax, %r13d
	jmp	.L699
	.p2align 4,,10
	.p2align 3
.L695:
	lock addl	$1, 8(%rbp)
	jmp	.L694
	.p2align 4,,10
	.p2align 3
.L697:
	lock addl	$1, 8(%r12)
	jmp	.L696
	.p2align 4,,10
	.p2align 3
.L768:
	movq	(%r12), %rax
	movq	%r12, %rdi
	call	*16(%rax)
	cmpb	$0, __libc_single_threaded(%rip)
	je	.L706
	movl	12(%r12), %eax
	leal	-1(%rax), %edx
	movl	%edx, 12(%r12)
.L707:
	cmpl	$1, %eax
	jne	.L702
	movq	(%r12), %rax
	movq	%r12, %rdi
	call	*24(%rax)
	jmp	.L702
	.p2align 4,,10
	.p2align 3
.L769:
	movq	0(%rbp), %rax
	movq	%rbp, %rdi
	call	*16(%rax)
	cmpb	$0, __libc_single_threaded(%rip)
	je	.L713
	movl	12(%rbp), %eax
	leal	-1(%rax), %edx
	movl	%edx, 12(%rbp)
.L714:
	cmpl	$1, %eax
	jne	.L709
	movq	0(%rbp), %rax
	movq	%rbp, %rdi
	call	*24(%rax)
	testb	%r13b, %r13b
	jne	.L715
	.p2align 4,,10
	.p2align 3
.L770:
	movq	8(%rbx), %rbp
	movq	%r14, %xmm0
	movq	%r12, %xmm6
	punpcklqdq	%xmm6, %xmm0
	movups	%xmm0, (%rbx)
	testq	%rbp, %rbp
	je	.L723
	cmpb	$0, __libc_single_threaded(%rip)
	je	.L724
	movl	8(%rbp), %eax
	leal	-1(%rax), %edx
	movl	%edx, 8(%rbp)
.L725:
	cmpl	$1, %eax
	je	.L772
.L723:
	leaq	16(%r15), %rbp
	jmp	.L673
	.p2align 4,,10
	.p2align 3
.L710:
	movl	$-1, %eax
	lock xaddl	%eax, 8(%rbp)
	jmp	.L711
	.p2align 4,,10
	.p2align 3
.L703:
	movl	$-1, %eax
	lock xaddl	%eax, 8(%r12)
	jmp	.L704
	.p2align 4,,10
	.p2align 3
.L771:
	movq	0(%rbp), %rax
	movq	%rbp, %rdi
	call	*16(%rax)
	cmpb	$0, __libc_single_threaded(%rip)
	je	.L692
	movl	12(%rbp), %eax
	leal	-1(%rax), %edx
	movl	%edx, 12(%rbp)
.L693:
	cmpl	$1, %eax
	jne	.L688
	movq	0(%rbp), %rax
	movq	%rbp, %rdi
	call	*24(%rax)
	jmp	.L688
	.p2align 4,,10
	.p2align 3
.L689:
	movl	$-1, %eax
	lock xaddl	%eax, 8(%rbp)
	jmp	.L690
	.p2align 4,,10
	.p2align 3
.L713:
	movl	$-1, %eax
	lock xaddl	%eax, 12(%rbp)
	jmp	.L714
	.p2align 4,,10
	.p2align 3
.L706:
	movl	$-1, %eax
	lock xaddl	%eax, 12(%r12)
	jmp	.L707
	.p2align 4,,10
	.p2align 3
.L692:
	movl	$-1, %eax
	lock xaddl	%eax, 12(%rbp)
	jmp	.L693
	.p2align 4,,10
	.p2align 3
.L679:
	movl	$-1, %eax
	lock xaddl	%eax, 12(%r12)
	jmp	.L680
	.p2align 4,,10
	.p2align 3
.L648:
	lock addl	$1, 8(%rbp)
	jmp	.L647
	.p2align 4,,10
	.p2align 3
.L646:
	lock addl	$1, 8(%r13)
	jmp	.L645
	.p2align 4,,10
	.p2align 3
.L764:
	movq	0(%r13), %rdx
	movb	%al, (%rsp)
	movq	%r13, %rdi
	call	*16(%rdx)
	cmpb	$0, __libc_single_threaded(%rip)
	movzbl	(%rsp), %eax
	je	.L664
	movl	12(%r13), %edx
	leal	-1(%rdx), %ecx
	movl	%ecx, 12(%r13)
.L665:
	cmpl	$1, %edx
	jne	.L660
	movq	0(%r13), %rdx
	movb	%al, (%rsp)
	movq	%r13, %rdi
	call	*24(%rdx)
	movzbl	(%rsp), %eax
	jmp	.L660
	.p2align 4,,10
	.p2align 3
.L763:
	movq	0(%rbp), %rdx
	movb	%al, (%rsp)
	movq	%rbp, %rdi
	call	*16(%rdx)
	cmpb	$0, __libc_single_threaded(%rip)
	movzbl	(%rsp), %eax
	je	.L657
	movl	12(%rbp), %edx
	leal	-1(%rdx), %ecx
	movl	%ecx, 12(%rbp)
.L658:
	cmpl	$1, %edx
	jne	.L653
	movq	0(%rbp), %rdx
	movb	%al, (%rsp)
	movq	%rbp, %rdi
	call	*24(%rdx)
	movzbl	(%rsp), %eax
	jmp	.L653
	.p2align 4,,10
	.p2align 3
.L661:
	movl	$-1, %edx
	lock xaddl	%edx, 8(%r13)
	jmp	.L662
	.p2align 4,,10
	.p2align 3
.L654:
	movl	$-1, %edx
	lock xaddl	%edx, 8(%rbp)
	jmp	.L655
	.p2align 4,,10
	.p2align 3
.L772:
	movq	0(%rbp), %rax
	movq	%rbp, %rdi
	call	*16(%rax)
	cmpb	$0, __libc_single_threaded(%rip)
	je	.L727
	movl	12(%rbp), %eax
	leal	-1(%rax), %edx
	movl	%edx, 12(%rbp)
.L728:
	cmpl	$1, %eax
	jne	.L723
	movq	0(%rbp), %rax
	movq	%rbp, %rdi
	call	*24(%rax)
	jmp	.L723
	.p2align 4,,10
	.p2align 3
.L766:
	movq	(%r12), %rax
	movq	%r12, %rdi
	call	*16(%rax)
	cmpb	$0, __libc_single_threaded(%rip)
	je	.L684
	movl	12(%r12), %eax
	leal	-1(%rax), %edx
	movl	%edx, 12(%r12)
.L685:
	cmpl	$1, %eax
	jne	.L673
	movq	(%r12), %rax
	movq	%r12, %rdi
	call	*24(%rax)
	jmp	.L673
	.p2align 4,,10
	.p2align 3
.L724:
	movl	$-1, %eax
	lock xaddl	%eax, 8(%rbp)
	jmp	.L725
	.p2align 4,,10
	.p2align 3
.L682:
	movl	$-1, %eax
	lock xaddl	%eax, 8(%r12)
	jmp	.L683
	.p2align 4,,10
	.p2align 3
.L657:
	movl	$-1, %edx
	lock xaddl	%edx, 12(%rbp)
	jmp	.L658
	.p2align 4,,10
	.p2align 3
.L664:
	movl	$-1, %edx
	lock xaddl	%edx, 12(%r13)
	jmp	.L665
.L727:
	movl	$-1, %eax
	lock xaddl	%eax, 12(%rbp)
	jmp	.L728
.L684:
	movl	$-1, %eax
	lock xaddl	%eax, 12(%r12)
	jmp	.L685
.L767:
	call	__stack_chk_fail@PLT
.L732:
	endbr64
	movq	%rax, %r13
	jmp	.L717
.L731:
	endbr64
	movq	%rax, %r12
	jmp	.L668
	.section	.gcc_except_table
.LLSDA13052:
	.byte	0xff
	.byte	0xff
	.byte	0x1
	.uleb128 .LLSDACSE13052-.LLSDACSB13052
.LLSDACSB13052:
	.uleb128 .LEHB9-.LFB13052
	.uleb128 .LEHE9-.LEHB9
	.uleb128 .L731-.LFB13052
	.uleb128 0
	.uleb128 .LEHB10-.LFB13052
	.uleb128 .LEHE10-.LEHB10
	.uleb128 .L732-.LFB13052
	.uleb128 0
.LLSDACSE13052:
	.text
	.cfi_endproc
	.section	.text.unlikely
	.cfi_startproc
	.cfi_personality 0x9b,DW.ref.__gxx_personality_v0
	.cfi_lsda 0x1b,.LLSDAC13052
	.type	_ZSt16__insertion_sortIN9__gnu_cxx17__normal_iteratorIPSt10shared_ptrI6EntityESt6vectorIS4_SaIS4_EEEENS0_5__ops15_Iter_comp_iterIZN6Engine16sort_by_z_bufferEvEUlS4_S4_E_EEEvT_SF_T0_.cold, @function
_ZSt16__insertion_sortIN9__gnu_cxx17__normal_iteratorIPSt10shared_ptrI6EntityESt6vectorIS4_SaIS4_EEEENS0_5__ops15_Iter_comp_iterIZN6Engine16sort_by_z_bufferEvEUlS4_S4_E_EEEvT_SF_T0_.cold:
.LFSB13052:
.L717:
	.cfi_def_cfa_offset 144
	.cfi_offset 3, -56
	.cfi_offset 6, -48
	.cfi_offset 12, -40
	.cfi_offset 13, -32
	.cfi_offset 14, -24
	.cfi_offset 15, -16
	testq	%r12, %r12
	je	.L718
	movq	%r12, %rdi
	call	_ZNSt16_Sp_counted_baseILN9__gnu_cxx12_Lock_policyE2EE10_M_releaseEv
.L718:
	testq	%rbp, %rbp
	je	.L719
	movq	%rbp, %rdi
	call	_ZNSt16_Sp_counted_baseILN9__gnu_cxx12_Lock_policyE2EE10_M_releaseEv
.L719:
	testq	%r12, %r12
	je	.L721
	movq	%r12, %rdi
	call	_ZNSt16_Sp_counted_baseILN9__gnu_cxx12_Lock_policyE2EE10_M_releaseEv
.L721:
	movq	%r13, %rdi
.LEHB11:
	call	_Unwind_Resume@PLT
.L668:
	testq	%rbp, %rbp
	je	.L669
	movq	%rbp, %rdi
	call	_ZNSt16_Sp_counted_baseILN9__gnu_cxx12_Lock_policyE2EE10_M_releaseEv
.L669:
	testq	%r13, %r13
	je	.L670
	movq	%r13, %rdi
	call	_ZNSt16_Sp_counted_baseILN9__gnu_cxx12_Lock_policyE2EE10_M_releaseEv
.L670:
	movq	%r12, %rdi
	call	_Unwind_Resume@PLT
.LEHE11:
	.cfi_endproc
.LFE13052:
	.section	.gcc_except_table
.LLSDAC13052:
	.byte	0xff
	.byte	0xff
	.byte	0x1
	.uleb128 .LLSDACSEC13052-.LLSDACSBC13052
.LLSDACSBC13052:
	.uleb128 .LEHB11-.LCOLDB10
	.uleb128 .LEHE11-.LEHB11
	.uleb128 0
	.uleb128 0
.LLSDACSEC13052:
	.section	.text.unlikely
	.text
	.size	_ZSt16__insertion_sortIN9__gnu_cxx17__normal_iteratorIPSt10shared_ptrI6EntityESt6vectorIS4_SaIS4_EEEENS0_5__ops15_Iter_comp_iterIZN6Engine16sort_by_z_bufferEvEUlS4_S4_E_EEEvT_SF_T0_, .-_ZSt16__insertion_sortIN9__gnu_cxx17__normal_iteratorIPSt10shared_ptrI6EntityESt6vectorIS4_SaIS4_EEEENS0_5__ops15_Iter_comp_iterIZN6Engine16sort_by_z_bufferEvEUlS4_S4_E_EEEvT_SF_T0_
	.section	.text.unlikely
	.size	_ZSt16__insertion_sortIN9__gnu_cxx17__normal_iteratorIPSt10shared_ptrI6EntityESt6vectorIS4_SaIS4_EEEENS0_5__ops15_Iter_comp_iterIZN6Engine16sort_by_z_bufferEvEUlS4_S4_E_EEEvT_SF_T0_.cold, .-_ZSt16__insertion_sortIN9__gnu_cxx17__normal_iteratorIPSt10shared_ptrI6EntityESt6vectorIS4_SaIS4_EEEENS0_5__ops15_Iter_comp_iterIZN6Engine16sort_by_z_bufferEvEUlS4_S4_E_EEEvT_SF_T0_.cold
.LCOLDE10:
	.text
.LHOTE10:
	.section	.text.unlikely
.LCOLDB11:
	.text
.LHOTB11:
	.p2align 4
	.type	_ZSt16__introsort_loopIN9__gnu_cxx17__normal_iteratorIPSt10shared_ptrI6EntityESt6vectorIS4_SaIS4_EEEElNS0_5__ops15_Iter_comp_iterIZN6Engine16sort_by_z_bufferEvEUlS4_S4_E_EEEvT_SF_T0_T1_, @function
_ZSt16__introsort_loopIN9__gnu_cxx17__normal_iteratorIPSt10shared_ptrI6EntityESt6vectorIS4_SaIS4_EEEElNS0_5__ops15_Iter_comp_iterIZN6Engine16sort_by_z_bufferEvEUlS4_S4_E_EEEvT_SF_T0_T1_:
.LFB12930:
	.cfi_startproc
	.cfi_personality 0x9b,DW.ref.__gxx_personality_v0
	.cfi_lsda 0x1b,.LLSDA12930
	pushq	%r15
	.cfi_def_cfa_offset 16
	.cfi_offset 15, -16
	pushq	%r14
	.cfi_def_cfa_offset 24
	.cfi_offset 14, -24
	pushq	%r13
	.cfi_def_cfa_offset 32
	.cfi_offset 13, -32
	pushq	%r12
	.cfi_def_cfa_offset 40
	.cfi_offset 12, -40
	pushq	%rbp
	.cfi_def_cfa_offset 48
	.cfi_offset 6, -48
	pushq	%rbx
	.cfi_def_cfa_offset 56
	.cfi_offset 3, -56
	movq	%rsi, %rbx
	subq	%rdi, %rbx
	subq	$136, %rsp
	.cfi_def_cfa_offset 192
	movq	%rdx, 56(%rsp)
	movq	%fs:40, %rax
	movq	%rax, 120(%rsp)
	xorl	%eax, %eax
	movq	%rsi, 48(%rsp)
	cmpq	$256, %rbx
	jle	.L773
	movq	%rdi, %r15
	testq	%rdx, %rdx
	je	.L1111
	leaq	16(%rdi), %rax
	movq	%rax, 72(%rsp)
	leaq	84(%rsp), %rax
	movq	%rax, (%rsp)
	leaq	96(%rsp), %rax
	movq	%rax, 16(%rsp)
	movq	48(%rsp), %rax
.L778:
	subq	%r15, %rax
	subq	$1, 56(%rsp)
	movq	%rax, %rdx
	shrq	$63, %rax
	sarq	$4, %rdx
	addq	%rdx, %rax
	sarq	%rax
	salq	$4, %rax
	leaq	(%r15,%rax), %rbx
	movq	8(%rbx), %rbp
	movq	(%rbx), %r13
	testq	%rbp, %rbp
	je	.L808
	cmpb	$0, __libc_single_threaded(%rip)
	je	.L809
	addl	$1, 8(%rbp)
.L808:
	movq	24(%r15), %r12
	movq	16(%r15), %r14
	testq	%r12, %r12
	je	.L810
	cmpb	$0, __libc_single_threaded(%rip)
	je	.L811
	addl	$1, 8(%r12)
.L810:
	movq	(%rsp), %rdi
	movq	%r14, %rsi
.LEHB12:
	call	_ZNK6Entity14get_position3DEv@PLT
	movss	92(%rsp), %xmm5
	movq	16(%rsp), %rdi
	movq	%r13, %rsi
	movq	%rdi, 64(%rsp)
	movss	%xmm5, 24(%rsp)
	call	_ZNK6Entity14get_position3DEv@PLT
	movss	24(%rsp), %xmm5
	comiss	104(%rsp), %xmm5
	jbe	.L814
	movq	%r14, %rdi
	call	_ZNK6Entity10is_deletedEv@PLT
.LEHE12:
	testb	%al, %al
	jne	.L814
	movl	$1, %r13d
.L813:
	testq	%r12, %r12
	je	.L816
	cmpb	$0, __libc_single_threaded(%rip)
	je	.L817
	movl	8(%r12), %eax
	leal	-1(%rax), %edx
	movl	%edx, 8(%r12)
.L818:
	cmpl	$1, %eax
	je	.L1112
.L816:
	testq	%rbp, %rbp
	je	.L823
	cmpb	$0, __libc_single_threaded(%rip)
	je	.L824
	movl	8(%rbp), %eax
	leal	-1(%rax), %edx
	movl	%edx, 8(%rbp)
.L825:
	cmpl	$1, %eax
	je	.L1113
.L823:
	movq	48(%rsp), %rax
	movq	-16(%rax), %r14
	movq	-8(%rax), %rbp
	testb	%r13b, %r13b
	je	.L1114
	testq	%rbp, %rbp
	je	.L834
	cmpb	$0, __libc_single_threaded(%rip)
	je	.L835
	addl	$1, 8(%rbp)
.L834:
	movq	(%rbx), %rax
	movq	8(%rbx), %r12
	movq	%rax, 24(%rsp)
	testq	%r12, %r12
	je	.L836
	cmpb	$0, __libc_single_threaded(%rip)
	je	.L837
	addl	$1, 8(%r12)
.L836:
	movq	24(%rsp), %rsi
	movq	(%rsp), %rdi
.LEHB13:
	call	_ZNK6Entity14get_position3DEv@PLT
	movss	92(%rsp), %xmm7
	movq	16(%rsp), %rdi
	movq	%r14, %rsi
	movss	%xmm7, 32(%rsp)
	call	_ZNK6Entity14get_position3DEv@PLT
	movss	32(%rsp), %xmm7
	comiss	104(%rsp), %xmm7
	jbe	.L840
	movq	24(%rsp), %rdi
	call	_ZNK6Entity10is_deletedEv@PLT
	testb	%al, %al
	je	.L1115
.L840:
	movq	%r14, %rdi
	call	_ZNK6Entity10is_deletedEv@PLT
.LEHE13:
	movl	%eax, %r14d
.L839:
	testq	%r12, %r12
	je	.L842
	cmpb	$0, __libc_single_threaded(%rip)
	je	.L843
	movl	8(%r12), %eax
	leal	-1(%rax), %edx
	movl	%edx, 8(%r12)
	cmpl	$1, %eax
	je	.L1116
.L842:
	testq	%rbp, %rbp
	je	.L849
	cmpb	$0, __libc_single_threaded(%rip)
	je	.L850
	movl	8(%rbp), %eax
	leal	-1(%rax), %edx
	movl	%edx, 8(%rbp)
	cmpl	$1, %eax
	je	.L1117
.L849:
	testb	%r14b, %r14b
	je	.L1118
	movdqu	(%r15), %xmm0
.L1107:
	movq	(%rbx), %rax
	movq	8(%rbx), %rbp
	movq	%rax, (%r15)
	movups	%xmm0, (%rbx)
	movq	(%r15), %r13
	movq	%rbp, 8(%r15)
.L860:
	movq	48(%rsp), %rax
	movq	72(%rsp), %rbx
	movq	%rax, 32(%rsp)
	jmp	.L939
	.p2align 4,,10
	.p2align 3
.L944:
	movq	%r14, %rdi
.LEHB14:
	call	_ZNK6Entity10is_deletedEv@PLT
	testb	%al, %al
	jne	.L946
	movl	$1, %r13d
.L945:
	testq	%r12, %r12
	je	.L948
	cmpb	$0, __libc_single_threaded(%rip)
	je	.L949
	movl	8(%r12), %eax
	leal	-1(%rax), %edx
	movl	%edx, 8(%r12)
.L950:
	cmpl	$1, %eax
	je	.L1119
.L948:
	testq	%rbp, %rbp
	je	.L955
	cmpb	$0, __libc_single_threaded(%rip)
	je	.L956
	movl	8(%rbp), %eax
	leal	-1(%rax), %edx
	movl	%edx, 8(%rbp)
.L957:
	cmpl	$1, %eax
	je	.L1120
.L955:
	addq	$16, %rbx
	testb	%r13b, %r13b
	je	.L1121
.L961:
	movq	(%r15), %r13
	movq	8(%r15), %rbp
.L939:
	movq	%rbx, 40(%rsp)
	testq	%rbp, %rbp
	je	.L940
	cmpb	$0, __libc_single_threaded(%rip)
	je	.L941
	addl	$1, 8(%rbp)
.L940:
	movq	8(%rbx), %r12
	movq	(%rbx), %r14
	testq	%r12, %r12
	je	.L942
	cmpb	$0, __libc_single_threaded(%rip)
	je	.L943
	addl	$1, 8(%r12)
.L942:
	movq	(%rsp), %rdi
	movq	%r14, %rsi
	call	_ZNK6Entity14get_position3DEv@PLT
	movss	92(%rsp), %xmm2
	movq	16(%rsp), %rdi
	movq	%r13, %rsi
	movss	%xmm2, 24(%rsp)
	call	_ZNK6Entity14get_position3DEv@PLT
	movss	24(%rsp), %xmm2
	comiss	104(%rsp), %xmm2
	ja	.L944
.L946:
	movq	%r13, %rdi
	call	_ZNK6Entity10is_deletedEv@PLT
.LEHE14:
	movl	%eax, %r13d
	jmp	.L945
	.p2align 4,,10
	.p2align 3
.L941:
	lock addl	$1, 8(%rbp)
	jmp	.L940
	.p2align 4,,10
	.p2align 3
.L943:
	lock addl	$1, 8(%r12)
	jmp	.L942
	.p2align 4,,10
	.p2align 3
.L1119:
	movq	(%r12), %rax
	movq	%r12, %rdi
	call	*16(%rax)
	cmpb	$0, __libc_single_threaded(%rip)
	je	.L952
	movl	12(%r12), %eax
	leal	-1(%rax), %edx
	movl	%edx, 12(%r12)
.L953:
	cmpl	$1, %eax
	jne	.L948
	movq	(%r12), %rax
	movq	%r12, %rdi
	call	*24(%rax)
	jmp	.L948
	.p2align 4,,10
	.p2align 3
.L1120:
	movq	0(%rbp), %rax
	movq	%rbp, %rdi
	call	*16(%rax)
	cmpb	$0, __libc_single_threaded(%rip)
	je	.L959
	movl	12(%rbp), %eax
	leal	-1(%rax), %edx
	movl	%edx, 12(%rbp)
.L960:
	cmpl	$1, %eax
	jne	.L955
	movq	0(%rbp), %rax
	movq	%rbp, %rdi
	addq	$16, %rbx
	call	*24(%rax)
	testb	%r13b, %r13b
	jne	.L961
	.p2align 4,,10
	.p2align 3
.L1121:
	movq	32(%rsp), %rbx
	subq	$16, %rbx
	jmp	.L987
	.p2align 4,,10
	.p2align 3
.L970:
	movq	%r14, %rdi
.LEHB15:
	call	_ZNK6Entity10is_deletedEv@PLT
	testb	%al, %al
	jne	.L972
	movl	$1, %r13d
.L971:
	testq	%r12, %r12
	je	.L974
	cmpb	$0, __libc_single_threaded(%rip)
	je	.L975
	movl	8(%r12), %eax
	leal	-1(%rax), %edx
	movl	%edx, 8(%r12)
.L976:
	cmpl	$1, %eax
	je	.L1122
.L974:
	testq	%rbp, %rbp
	je	.L981
	cmpb	$0, __libc_single_threaded(%rip)
	je	.L982
	movl	8(%rbp), %eax
	leal	-1(%rax), %edx
	movl	%edx, 8(%rbp)
.L983:
	cmpl	$1, %eax
	je	.L1123
.L981:
	subq	$16, %rbx
	testb	%r13b, %r13b
	je	.L1124
.L987:
	movq	8(%rbx), %rbp
	movq	(%rbx), %r13
	movq	%rbx, 32(%rsp)
	testq	%rbp, %rbp
	je	.L966
	cmpb	$0, __libc_single_threaded(%rip)
	je	.L967
	addl	$1, 8(%rbp)
.L966:
	movq	8(%r15), %r12
	movq	(%r15), %r14
	testq	%r12, %r12
	je	.L968
	cmpb	$0, __libc_single_threaded(%rip)
	je	.L969
	addl	$1, 8(%r12)
.L968:
	movq	(%rsp), %rdi
	movq	%r14, %rsi
	call	_ZNK6Entity14get_position3DEv@PLT
	movss	92(%rsp), %xmm3
	movq	16(%rsp), %rdi
	movq	%r13, %rsi
	movss	%xmm3, 24(%rsp)
	call	_ZNK6Entity14get_position3DEv@PLT
	movss	24(%rsp), %xmm3
	comiss	104(%rsp), %xmm3
	ja	.L970
.L972:
	movq	%r13, %rdi
	call	_ZNK6Entity10is_deletedEv@PLT
.LEHE15:
	movl	%eax, %r13d
	jmp	.L971
	.p2align 4,,10
	.p2align 3
.L956:
	movl	$-1, %eax
	lock xaddl	%eax, 8(%rbp)
	jmp	.L957
	.p2align 4,,10
	.p2align 3
.L949:
	movl	$-1, %eax
	lock xaddl	%eax, 8(%r12)
	jmp	.L950
	.p2align 4,,10
	.p2align 3
.L967:
	lock addl	$1, 8(%rbp)
	jmp	.L966
	.p2align 4,,10
	.p2align 3
.L969:
	lock addl	$1, 8(%r12)
	jmp	.L968
	.p2align 4,,10
	.p2align 3
.L1123:
	movq	0(%rbp), %rax
	movq	%rbp, %rdi
	call	*16(%rax)
	cmpb	$0, __libc_single_threaded(%rip)
	je	.L985
	movl	12(%rbp), %eax
	leal	-1(%rax), %edx
	movl	%edx, 12(%rbp)
.L986:
	cmpl	$1, %eax
	jne	.L981
	movq	0(%rbp), %rax
	movq	%rbp, %rdi
	subq	$16, %rbx
	call	*24(%rax)
	testb	%r13b, %r13b
	jne	.L987
	.p2align 4,,10
	.p2align 3
.L1124:
	movq	32(%rsp), %rcx
	cmpq	%rcx, 40(%rsp)
	jb	.L1125
	movq	40(%rsp), %rbx
	movq	56(%rsp), %rdx
	movq	48(%rsp), %rsi
	movq	%rbx, %rdi
	subq	%r15, %rbx
.LEHB16:
	call	_ZSt16__introsort_loopIN9__gnu_cxx17__normal_iteratorIPSt10shared_ptrI6EntityESt6vectorIS4_SaIS4_EEEElNS0_5__ops15_Iter_comp_iterIZN6Engine16sort_by_z_bufferEvEUlS4_S4_E_EEEvT_SF_T0_T1_
.LEHE16:
	cmpq	$256, %rbx
	jle	.L773
	cmpq	$0, 56(%rsp)
	je	.L776
	movq	40(%rsp), %rax
	movq	%rax, 48(%rsp)
	jmp	.L778
	.p2align 4,,10
	.p2align 3
.L1122:
	movq	(%r12), %rax
	movq	%r12, %rdi
	call	*16(%rax)
	cmpb	$0, __libc_single_threaded(%rip)
	je	.L978
	movl	12(%r12), %eax
	leal	-1(%rax), %edx
	movl	%edx, 12(%r12)
.L979:
	cmpl	$1, %eax
	jne	.L974
	movq	(%r12), %rax
	movq	%r12, %rdi
	call	*24(%rax)
	jmp	.L974
	.p2align 4,,10
	.p2align 3
.L975:
	movl	$-1, %eax
	lock xaddl	%eax, 8(%r12)
	jmp	.L976
	.p2align 4,,10
	.p2align 3
.L982:
	movl	$-1, %eax
	lock xaddl	%eax, 8(%rbp)
	jmp	.L983
	.p2align 4,,10
	.p2align 3
.L1125:
	movq	%rcx, %rdx
	movq	40(%rsp), %rcx
	movq	(%rdx), %rax
	movdqu	(%rcx), %xmm0
	leaq	16(%rcx), %rbx
	movq	%rax, (%rcx)
	movq	8(%rdx), %rax
	movups	%xmm0, (%rdx)
	movq	(%r15), %r13
	movq	%rax, 8(%rcx)
	movq	8(%r15), %rbp
	jmp	.L939
	.p2align 4,,10
	.p2align 3
.L978:
	movl	$-1, %eax
	lock xaddl	%eax, 12(%r12)
	jmp	.L979
	.p2align 4,,10
	.p2align 3
.L985:
	movl	$-1, %eax
	lock xaddl	%eax, 12(%rbp)
	jmp	.L986
	.p2align 4,,10
	.p2align 3
.L959:
	movl	$-1, %eax
	lock xaddl	%eax, 12(%rbp)
	jmp	.L960
	.p2align 4,,10
	.p2align 3
.L952:
	movl	$-1, %eax
	lock xaddl	%eax, 12(%r12)
	jmp	.L953
.L814:
	movq	%r13, %rdi
.LEHB17:
	call	_ZNK6Entity10is_deletedEv@PLT
.LEHE17:
	movl	%eax, %r13d
	jmp	.L813
.L1114:
	testq	%rbp, %rbp
	je	.L887
	cmpb	$0, __libc_single_threaded(%rip)
	je	.L888
	addl	$1, 8(%rbp)
.L887:
	movq	24(%r15), %r12
	movq	16(%r15), %r13
	testq	%r12, %r12
	je	.L889
	cmpb	$0, __libc_single_threaded(%rip)
	je	.L890
	addl	$1, 8(%r12)
.L889:
	movq	(%rsp), %rdi
	movq	%r13, %rsi
.LEHB18:
	call	_ZNK6Entity14get_position3DEv@PLT
	movss	92(%rsp), %xmm6
	movq	16(%rsp), %rdi
	movq	%r14, %rsi
	movss	%xmm6, 24(%rsp)
	call	_ZNK6Entity14get_position3DEv@PLT
	movss	24(%rsp), %xmm6
	comiss	104(%rsp), %xmm6
	jbe	.L893
	movq	%r13, %rdi
	call	_ZNK6Entity10is_deletedEv@PLT
	testb	%al, %al
	je	.L1126
.L893:
	movq	%r14, %rdi
	call	_ZNK6Entity10is_deletedEv@PLT
.LEHE18:
	movl	%eax, %r13d
.L892:
	testq	%r12, %r12
	je	.L895
	cmpb	$0, __libc_single_threaded(%rip)
	je	.L896
	movl	8(%r12), %eax
	leal	-1(%rax), %edx
	movl	%edx, 8(%r12)
.L897:
	cmpl	$1, %eax
	je	.L1127
.L895:
	testq	%rbp, %rbp
	je	.L902
	cmpb	$0, __libc_single_threaded(%rip)
	je	.L903
	movl	8(%rbp), %eax
	leal	-1(%rax), %edx
	movl	%edx, 8(%rbp)
.L904:
	cmpl	$1, %eax
	je	.L1128
.L902:
	testb	%r13b, %r13b
	je	.L1129
	movdqu	(%r15), %xmm0
	movdqu	16(%r15), %xmm1
	movq	16(%r15), %r13
	movq	24(%r15), %rbp
	movups	%xmm1, (%r15)
	movups	%xmm0, 16(%r15)
	jmp	.L860
.L773:
	movq	120(%rsp), %rax
	subq	%fs:40, %rax
	jne	.L1130
	addq	$136, %rsp
	.cfi_remember_state
	.cfi_def_cfa_offset 56
	popq	%rbx
	.cfi_def_cfa_offset 48
	popq	%rbp
	.cfi_def_cfa_offset 40
	popq	%r12
	.cfi_def_cfa_offset 32
	popq	%r13
	.cfi_def_cfa_offset 24
	popq	%r14
	.cfi_def_cfa_offset 16
	popq	%r15
	.cfi_def_cfa_offset 8
	ret
.L811:
	.cfi_restore_state
	lock addl	$1, 8(%r12)
	jmp	.L810
.L809:
	lock addl	$1, 8(%rbp)
	jmp	.L808
.L1113:
	movq	0(%rbp), %rax
	movq	%rbp, %rdi
	call	*16(%rax)
	cmpb	$0, __libc_single_threaded(%rip)
	je	.L827
	movl	12(%rbp), %eax
	leal	-1(%rax), %edx
	movl	%edx, 12(%rbp)
.L828:
	cmpl	$1, %eax
	jne	.L823
	movq	0(%rbp), %rax
	movq	%rbp, %rdi
	call	*24(%rax)
	jmp	.L823
.L1112:
	movq	(%r12), %rax
	movq	%r12, %rdi
	call	*16(%rax)
	cmpb	$0, __libc_single_threaded(%rip)
	je	.L820
	movl	12(%r12), %eax
	leal	-1(%rax), %edx
	movl	%edx, 12(%r12)
.L821:
	cmpl	$1, %eax
	jne	.L816
	movq	(%r12), %rax
	movq	%r12, %rdi
	call	*24(%rax)
	jmp	.L816
.L824:
	movl	$-1, %eax
	lock xaddl	%eax, 8(%rbp)
	jmp	.L825
.L817:
	movl	$-1, %eax
	lock xaddl	%eax, 8(%r12)
	jmp	.L818
.L1118:
	movq	48(%rsp), %rax
	movq	-8(%rax), %rbp
	movq	-16(%rax), %rbx
	testq	%rbp, %rbp
	je	.L861
	cmpb	$0, __libc_single_threaded(%rip)
	je	.L862
	addl	$1, 8(%rbp)
.L861:
	movq	24(%r15), %r12
	movq	16(%r15), %r14
	testq	%r12, %r12
	je	.L863
.L1137:
	cmpb	$0, __libc_single_threaded(%rip)
	je	.L864
	addl	$1, 8(%r12)
.L863:
	movq	(%rsp), %rdi
	movq	%r14, %rsi
.LEHB19:
	call	_ZNK6Entity14get_position3DEv@PLT
	movss	92(%rsp), %xmm7
	movq	16(%rsp), %rdi
	movq	%rbx, %rsi
	movss	%xmm7, 24(%rsp)
	call	_ZNK6Entity14get_position3DEv@PLT
	movss	24(%rsp), %xmm7
	comiss	104(%rsp), %xmm7
	ja	.L865
.L867:
	movq	%rbx, %rdi
	call	_ZNK6Entity10is_deletedEv@PLT
.LEHE19:
	movl	%eax, %r13d
.L866:
	testq	%r12, %r12
	je	.L869
	cmpb	$0, __libc_single_threaded(%rip)
	je	.L870
	movl	8(%r12), %eax
	leal	-1(%rax), %edx
	movl	%edx, 8(%r12)
.L871:
	cmpl	$1, %eax
	je	.L1131
.L869:
	testq	%rbp, %rbp
	je	.L876
	cmpb	$0, __libc_single_threaded(%rip)
	je	.L877
	movl	8(%rbp), %eax
	leal	-1(%rax), %edx
	movl	%edx, 8(%rbp)
.L878:
	cmpl	$1, %eax
	je	.L1132
.L876:
	movdqu	(%r15), %xmm0
	testb	%r13b, %r13b
	jne	.L934
	movq	16(%r15), %r13
	movq	24(%r15), %rbp
	movups	%xmm0, 16(%r15)
	movq	%r13, (%r15)
	movq	%rbp, 8(%r15)
	jmp	.L860
.L1129:
	movq	48(%rsp), %rax
	movq	-8(%rax), %rbp
	movq	-16(%rax), %r14
	testq	%rbp, %rbp
	je	.L913
	cmpb	$0, __libc_single_threaded(%rip)
	je	.L914
	addl	$1, 8(%rbp)
.L913:
	movq	8(%rbx), %r12
	movq	(%rbx), %r13
	testq	%r12, %r12
	je	.L915
.L1138:
	cmpb	$0, __libc_single_threaded(%rip)
	je	.L916
	addl	$1, 8(%r12)
.L915:
	movq	(%rsp), %rdi
	movq	%r13, %rsi
.LEHB20:
	call	_ZNK6Entity14get_position3DEv@PLT
	movss	92(%rsp), %xmm1
	movq	16(%rsp), %rdi
	movq	%r14, %rsi
	movss	%xmm1, 24(%rsp)
	call	_ZNK6Entity14get_position3DEv@PLT
	movss	24(%rsp), %xmm1
	comiss	104(%rsp), %xmm1
	ja	.L917
.L919:
	movq	%r14, %rdi
	call	_ZNK6Entity10is_deletedEv@PLT
	movl	%eax, %r13d
.L918:
	testq	%r12, %r12
	je	.L921
	cmpb	$0, __libc_single_threaded(%rip)
	je	.L922
	movl	8(%r12), %eax
	leal	-1(%rax), %edx
	movl	%edx, 8(%r12)
.L923:
	cmpl	$1, %eax
	je	.L1133
.L921:
	testq	%rbp, %rbp
	je	.L928
	cmpb	$0, __libc_single_threaded(%rip)
	je	.L929
	movl	8(%rbp), %eax
	leal	-1(%rax), %edx
	movl	%edx, 8(%rbp)
.L930:
	cmpl	$1, %eax
	je	.L1134
.L928:
	movdqu	(%r15), %xmm0
	testb	%r13b, %r13b
	je	.L1107
.L934:
	movq	48(%rsp), %rcx
	movq	-16(%rcx), %rax
	movq	-8(%rcx), %rbp
	movq	%rax, (%r15)
	movups	%xmm0, -16(%rcx)
	movq	(%r15), %r13
	movq	%rbp, 8(%r15)
	jmp	.L860
.L1126:
	movl	$1, %r13d
	jmp	.L892
.L1115:
	movl	%r13d, %r14d
	jmp	.L839
.L917:
	movq	%r13, %rdi
	call	_ZNK6Entity10is_deletedEv@PLT
.LEHE20:
	testb	%al, %al
	jne	.L919
	movl	$1, %r13d
	jmp	.L918
.L865:
	movq	%r14, %rdi
.LEHB21:
	call	_ZNK6Entity10is_deletedEv@PLT
.LEHE21:
	testb	%al, %al
	jne	.L867
	jmp	.L866
.L820:
	movl	$-1, %eax
	lock xaddl	%eax, 12(%r12)
	jmp	.L821
.L827:
	movl	$-1, %eax
	lock xaddl	%eax, 12(%rbp)
	jmp	.L828
.L837:
	lock addl	$1, 8(%r12)
	jmp	.L836
.L835:
	lock addl	$1, 8(%rbp)
	jmp	.L834
.L890:
	lock addl	$1, 8(%r12)
	jmp	.L889
.L888:
	lock addl	$1, 8(%rbp)
	jmp	.L887
.L1128:
	movq	0(%rbp), %rax
	movq	%rbp, %rdi
	call	*16(%rax)
	cmpb	$0, __libc_single_threaded(%rip)
	je	.L906
	movl	12(%rbp), %eax
	leal	-1(%rax), %edx
	movl	%edx, 12(%rbp)
.L907:
	cmpl	$1, %eax
	jne	.L902
	movq	0(%rbp), %rax
	movq	%rbp, %rdi
	call	*24(%rax)
	jmp	.L902
.L903:
	movl	$-1, %eax
	lock xaddl	%eax, 8(%rbp)
	jmp	.L904
.L1127:
	movq	(%r12), %rax
	movq	%r12, %rdi
	call	*16(%rax)
	cmpb	$0, __libc_single_threaded(%rip)
	je	.L899
	movl	12(%r12), %eax
	leal	-1(%rax), %edx
	movl	%edx, 12(%r12)
.L900:
	cmpl	$1, %eax
	jne	.L895
	movq	(%r12), %rax
	movq	%r12, %rdi
	call	*24(%rax)
	jmp	.L895
.L896:
	movl	$-1, %eax
	lock xaddl	%eax, 8(%r12)
	jmp	.L897
.L843:
	movl	$-1, %eax
	lock xaddl	%eax, 8(%r12)
	cmpl	$1, %eax
	jne	.L842
.L1116:
	movq	(%r12), %rax
	movq	%r12, %rdi
	call	*16(%rax)
	cmpb	$0, __libc_single_threaded(%rip)
	je	.L846
	movl	12(%r12), %eax
	leal	-1(%rax), %edx
	movl	%edx, 12(%r12)
.L847:
	cmpl	$1, %eax
	jne	.L842
	movq	(%r12), %rax
	movq	%r12, %rdi
	call	*24(%rax)
	jmp	.L842
.L850:
	movl	$-1, %eax
	lock xaddl	%eax, 8(%rbp)
	cmpl	$1, %eax
	jne	.L849
.L1117:
	movq	0(%rbp), %rax
	movq	%rbp, %rdi
	call	*16(%rax)
	cmpb	$0, __libc_single_threaded(%rip)
	je	.L853
	movl	12(%rbp), %eax
	leal	-1(%rax), %edx
	movl	%edx, 12(%rbp)
.L854:
	cmpl	$1, %eax
	jne	.L849
	movq	0(%rbp), %rax
	movq	%rbp, %rdi
	call	*24(%rax)
	jmp	.L849
.L1111:
	leaq	96(%rsp), %rax
	movq	%rsi, 40(%rsp)
	movq	%rax, 64(%rsp)
.L776:
	sarq	$4, %rbx
	leaq	-2(%rbx), %r12
	sarq	%r12
	movq	%r12, %rbp
	salq	$4, %rbp
	addq	%r15, %rbp
	jmp	.L787
.L780:
	subq	$16, %rbp
	testq	%r12, %r12
	je	.L786
.L1135:
	subq	$1, %r12
.L787:
	movdqu	0(%rbp), %xmm0
	pxor	%xmm6, %xmm6
	movq	%rbx, %rdx
	movq	%r12, %rsi
	movq	64(%rsp), %rcx
	movups	%xmm6, 0(%rbp)
	movq	%r15, %rdi
	movaps	%xmm0, 96(%rsp)
.LEHB22:
	call	_ZSt13__adjust_heapIN9__gnu_cxx17__normal_iteratorIPSt10shared_ptrI6EntityESt6vectorIS4_SaIS4_EEEElS4_NS0_5__ops15_Iter_comp_iterIZN6Engine16sort_by_z_bufferEvEUlS4_S4_E_EEEvT_T0_SG_T1_T2_
.LEHE22:
	movq	104(%rsp), %r13
	testq	%r13, %r13
	je	.L780
	cmpb	$0, __libc_single_threaded(%rip)
	je	.L781
	movl	8(%r13), %eax
	leal	-1(%rax), %edx
	movl	%edx, 8(%r13)
.L782:
	cmpl	$1, %eax
	jne	.L780
	movq	0(%r13), %rax
	movq	%r13, %rdi
	call	*16(%rax)
	cmpb	$0, __libc_single_threaded(%rip)
	je	.L784
	movl	12(%r13), %eax
	leal	-1(%rax), %edx
	movl	%edx, 12(%r13)
.L785:
	cmpl	$1, %eax
	jne	.L780
	movq	0(%r13), %rax
	movq	%r13, %rdi
	subq	$16, %rbp
	call	*24(%rax)
	testq	%r12, %r12
	jne	.L1135
.L786:
	movq	40(%rsp), %rbx
	subq	$16, %rbx
	jmp	.L804
	.p2align 4,,10
	.p2align 3
.L791:
	movq	%rbx, %r12
	movq	64(%rsp), %rcx
	xorl	%esi, %esi
	movq	%r15, %rdi
	subq	%r15, %r12
	movaps	%xmm0, 96(%rsp)
	movq	%r12, %rdx
	sarq	$4, %rdx
.LEHB23:
	call	_ZSt13__adjust_heapIN9__gnu_cxx17__normal_iteratorIPSt10shared_ptrI6EntityESt6vectorIS4_SaIS4_EEEElS4_NS0_5__ops15_Iter_comp_iterIZN6Engine16sort_by_z_bufferEvEUlS4_S4_E_EEEvT_T0_SG_T1_T2_
.LEHE23:
	movq	104(%rsp), %rbp
	testq	%rbp, %rbp
	je	.L798
	cmpb	$0, __libc_single_threaded(%rip)
	je	.L799
	movl	8(%rbp), %eax
	leal	-1(%rax), %edx
	movl	%edx, 8(%rbp)
.L800:
	cmpl	$1, %eax
	je	.L1136
.L798:
	subq	$16, %rbx
	cmpq	$16, %r12
	jle	.L773
.L804:
	pxor	%xmm4, %xmm4
	movdqu	(%rbx), %xmm0
	movups	%xmm4, (%rbx)
	movdqu	(%r15), %xmm1
	movups	%xmm4, (%r15)
	movq	8(%rbx), %rbp
	movups	%xmm1, (%rbx)
	testq	%rbp, %rbp
	je	.L791
	cmpb	$0, __libc_single_threaded(%rip)
	je	.L792
	movl	8(%rbp), %eax
	leal	-1(%rax), %edx
	movl	%edx, 8(%rbp)
.L793:
	cmpl	$1, %eax
	jne	.L791
	movq	0(%rbp), %rax
	movaps	%xmm0, (%rsp)
	movq	%rbp, %rdi
	call	*16(%rax)
	cmpb	$0, __libc_single_threaded(%rip)
	movdqa	(%rsp), %xmm0
	je	.L795
	movl	12(%rbp), %eax
	leal	-1(%rax), %edx
	movl	%edx, 12(%rbp)
.L796:
	cmpl	$1, %eax
	jne	.L791
	movq	0(%rbp), %rax
	movaps	%xmm0, (%rsp)
	movq	%rbp, %rdi
	call	*24(%rax)
	movdqa	(%rsp), %xmm0
	jmp	.L791
.L781:
	movl	$-1, %eax
	lock xaddl	%eax, 8(%r13)
	jmp	.L782
.L1136:
	movq	0(%rbp), %rax
	movq	%rbp, %rdi
	call	*16(%rax)
	cmpb	$0, __libc_single_threaded(%rip)
	je	.L802
	movl	12(%rbp), %eax
	leal	-1(%rax), %edx
	movl	%edx, 12(%rbp)
.L803:
	cmpl	$1, %eax
	jne	.L798
	movq	0(%rbp), %rax
	movq	%rbp, %rdi
	call	*24(%rax)
	jmp	.L798
.L792:
	movl	$-1, %eax
	lock xaddl	%eax, 8(%rbp)
	jmp	.L793
.L799:
	movl	$-1, %eax
	lock xaddl	%eax, 8(%rbp)
	jmp	.L800
.L795:
	movl	$-1, %eax
	lock xaddl	%eax, 12(%rbp)
	jmp	.L796
.L802:
	movl	$-1, %eax
	lock xaddl	%eax, 12(%rbp)
	jmp	.L803
.L784:
	movl	$-1, %eax
	lock xaddl	%eax, 12(%r13)
	jmp	.L785
.L862:
	lock addl	$1, 8(%rbp)
	movq	24(%r15), %r12
	movq	16(%r15), %r14
	testq	%r12, %r12
	jne	.L1137
	jmp	.L863
.L864:
	lock addl	$1, 8(%r12)
	jmp	.L863
.L914:
	lock addl	$1, 8(%rbp)
	movq	8(%rbx), %r12
	movq	(%rbx), %r13
	testq	%r12, %r12
	jne	.L1138
	jmp	.L915
.L916:
	lock addl	$1, 8(%r12)
	jmp	.L915
.L906:
	movl	$-1, %eax
	lock xaddl	%eax, 12(%rbp)
	jmp	.L907
.L1134:
	movq	0(%rbp), %rax
	movq	%rbp, %rdi
	call	*16(%rax)
	cmpb	$0, __libc_single_threaded(%rip)
	je	.L932
	movl	12(%rbp), %eax
	leal	-1(%rax), %edx
	movl	%edx, 12(%rbp)
.L933:
	cmpl	$1, %eax
	jne	.L928
	movq	0(%rbp), %rax
	movq	%rbp, %rdi
	call	*24(%rax)
	jmp	.L928
.L929:
	movl	$-1, %eax
	lock xaddl	%eax, 8(%rbp)
	jmp	.L930
.L1131:
	movq	(%r12), %rax
	movq	%r12, %rdi
	call	*16(%rax)
	cmpb	$0, __libc_single_threaded(%rip)
	je	.L873
	movl	12(%r12), %eax
	leal	-1(%rax), %edx
	movl	%edx, 12(%r12)
.L874:
	cmpl	$1, %eax
	jne	.L869
	movq	(%r12), %rax
	movq	%r12, %rdi
	call	*24(%rax)
	jmp	.L869
.L870:
	movl	$-1, %eax
	lock xaddl	%eax, 8(%r12)
	jmp	.L871
.L846:
	movl	$-1, %eax
	lock xaddl	%eax, 12(%r12)
	jmp	.L847
.L899:
	movl	$-1, %eax
	lock xaddl	%eax, 12(%r12)
	jmp	.L900
.L853:
	movl	$-1, %eax
	lock xaddl	%eax, 12(%rbp)
	jmp	.L854
.L1133:
	movq	(%r12), %rax
	movq	%r12, %rdi
	call	*16(%rax)
	cmpb	$0, __libc_single_threaded(%rip)
	je	.L925
	movl	12(%r12), %eax
	leal	-1(%rax), %edx
	movl	%edx, 12(%r12)
.L926:
	cmpl	$1, %eax
	jne	.L921
	movq	(%r12), %rax
	movq	%r12, %rdi
	call	*24(%rax)
	jmp	.L921
.L922:
	movl	$-1, %eax
	lock xaddl	%eax, 8(%r12)
	jmp	.L923
.L1132:
	movq	0(%rbp), %rax
	movq	%rbp, %rdi
	call	*16(%rax)
	cmpb	$0, __libc_single_threaded(%rip)
	je	.L880
	movl	12(%rbp), %eax
	leal	-1(%rax), %edx
	movl	%edx, 12(%rbp)
.L881:
	cmpl	$1, %eax
	jne	.L876
	movq	0(%rbp), %rax
	movq	%rbp, %rdi
	call	*24(%rax)
	jmp	.L876
.L877:
	movl	$-1, %eax
	lock xaddl	%eax, 8(%rbp)
	jmp	.L878
.L880:
	movl	$-1, %eax
	lock xaddl	%eax, 12(%rbp)
	jmp	.L881
.L925:
	movl	$-1, %eax
	lock xaddl	%eax, 12(%r12)
	jmp	.L926
.L873:
	movl	$-1, %eax
	lock xaddl	%eax, 12(%r12)
	jmp	.L874
.L932:
	movl	$-1, %eax
	lock xaddl	%eax, 12(%rbp)
	jmp	.L933
.L1130:
	call	__stack_chk_fail@PLT
.L1002:
	endbr64
	movq	%rax, %r13
	jmp	.L884
.L1003:
	endbr64
	movq	%rax, %r13
	jmp	.L910
.L1006:
	endbr64
	movq	%rax, %r13
	jmp	.L989
.L1001:
	endbr64
	movq	%rax, %r13
	jmp	.L857
.L999:
	endbr64
	movq	%rax, %rbp
	jmp	.L806
.L1005:
	endbr64
	movq	%rax, %r13
	jmp	.L963
.L1004:
	endbr64
	movq	%rax, %r13
	jmp	.L936
.L1000:
	endbr64
	movq	%rax, %r13
	jmp	.L831
.L998:
	endbr64
	movq	%rax, %rbp
	jmp	.L788
	.section	.gcc_except_table
.LLSDA12930:
	.byte	0xff
	.byte	0xff
	.byte	0x1
	.uleb128 .LLSDACSE12930-.LLSDACSB12930
.LLSDACSB12930:
	.uleb128 .LEHB12-.LFB12930
	.uleb128 .LEHE12-.LEHB12
	.uleb128 .L1000-.LFB12930
	.uleb128 0
	.uleb128 .LEHB13-.LFB12930
	.uleb128 .LEHE13-.LEHB13
	.uleb128 .L1001-.LFB12930
	.uleb128 0
	.uleb128 .LEHB14-.LFB12930
	.uleb128 .LEHE14-.LEHB14
	.uleb128 .L1005-.LFB12930
	.uleb128 0
	.uleb128 .LEHB15-.LFB12930
	.uleb128 .LEHE15-.LEHB15
	.uleb128 .L1006-.LFB12930
	.uleb128 0
	.uleb128 .LEHB16-.LFB12930
	.uleb128 .LEHE16-.LEHB16
	.uleb128 0
	.uleb128 0
	.uleb128 .LEHB17-.LFB12930
	.uleb128 .LEHE17-.LEHB17
	.uleb128 .L1000-.LFB12930
	.uleb128 0
	.uleb128 .LEHB18-.LFB12930
	.uleb128 .LEHE18-.LEHB18
	.uleb128 .L1003-.LFB12930
	.uleb128 0
	.uleb128 .LEHB19-.LFB12930
	.uleb128 .LEHE19-.LEHB19
	.uleb128 .L1002-.LFB12930
	.uleb128 0
	.uleb128 .LEHB20-.LFB12930
	.uleb128 .LEHE20-.LEHB20
	.uleb128 .L1004-.LFB12930
	.uleb128 0
	.uleb128 .LEHB21-.LFB12930
	.uleb128 .LEHE21-.LEHB21
	.uleb128 .L1002-.LFB12930
	.uleb128 0
	.uleb128 .LEHB22-.LFB12930
	.uleb128 .LEHE22-.LEHB22
	.uleb128 .L998-.LFB12930
	.uleb128 0
	.uleb128 .LEHB23-.LFB12930
	.uleb128 .LEHE23-.LEHB23
	.uleb128 .L999-.LFB12930
	.uleb128 0
.LLSDACSE12930:
	.text
	.cfi_endproc
	.section	.text.unlikely
	.cfi_startproc
	.cfi_personality 0x9b,DW.ref.__gxx_personality_v0
	.cfi_lsda 0x1b,.LLSDAC12930
	.type	_ZSt16__introsort_loopIN9__gnu_cxx17__normal_iteratorIPSt10shared_ptrI6EntityESt6vectorIS4_SaIS4_EEEElNS0_5__ops15_Iter_comp_iterIZN6Engine16sort_by_z_bufferEvEUlS4_S4_E_EEEvT_SF_T0_T1_.cold, @function
_ZSt16__introsort_loopIN9__gnu_cxx17__normal_iteratorIPSt10shared_ptrI6EntityESt6vectorIS4_SaIS4_EEEElNS0_5__ops15_Iter_comp_iterIZN6Engine16sort_by_z_bufferEvEUlS4_S4_E_EEEvT_SF_T0_T1_.cold:
.LFSB12930:
.L884:
	.cfi_def_cfa_offset 192
	.cfi_offset 3, -56
	.cfi_offset 6, -48
	.cfi_offset 12, -40
	.cfi_offset 13, -32
	.cfi_offset 14, -24
	.cfi_offset 15, -16
	testq	%r12, %r12
	je	.L885
	movq	%r12, %rdi
	call	_ZNSt16_Sp_counted_baseILN9__gnu_cxx12_Lock_policyE2EE10_M_releaseEv
.L885:
	testq	%rbp, %rbp
	je	.L886
	movq	%rbp, %rdi
	call	_ZNSt16_Sp_counted_baseILN9__gnu_cxx12_Lock_policyE2EE10_M_releaseEv
.L886:
	movq	%r13, %rdi
.LEHB24:
	call	_Unwind_Resume@PLT
.L910:
	testq	%r12, %r12
	je	.L911
	movq	%r12, %rdi
	call	_ZNSt16_Sp_counted_baseILN9__gnu_cxx12_Lock_policyE2EE10_M_releaseEv
.L911:
	testq	%rbp, %rbp
	je	.L912
	movq	%rbp, %rdi
	call	_ZNSt16_Sp_counted_baseILN9__gnu_cxx12_Lock_policyE2EE10_M_releaseEv
.L912:
	movq	%r13, %rdi
	call	_Unwind_Resume@PLT
.L963:
	testq	%r12, %r12
	je	.L964
	movq	%r12, %rdi
	call	_ZNSt16_Sp_counted_baseILN9__gnu_cxx12_Lock_policyE2EE10_M_releaseEv
.L964:
	testq	%rbp, %rbp
	je	.L965
	movq	%rbp, %rdi
	call	_ZNSt16_Sp_counted_baseILN9__gnu_cxx12_Lock_policyE2EE10_M_releaseEv
.L965:
	movq	%r13, %rdi
	call	_Unwind_Resume@PLT
.L989:
	testq	%r12, %r12
	je	.L990
	movq	%r12, %rdi
	call	_ZNSt16_Sp_counted_baseILN9__gnu_cxx12_Lock_policyE2EE10_M_releaseEv
.L990:
	testq	%rbp, %rbp
	je	.L991
	movq	%rbp, %rdi
	call	_ZNSt16_Sp_counted_baseILN9__gnu_cxx12_Lock_policyE2EE10_M_releaseEv
.L991:
	movq	%r13, %rdi
	call	_Unwind_Resume@PLT
.L936:
	testq	%r12, %r12
	je	.L937
	movq	%r12, %rdi
	call	_ZNSt16_Sp_counted_baseILN9__gnu_cxx12_Lock_policyE2EE10_M_releaseEv
.L937:
	testq	%rbp, %rbp
	je	.L938
	movq	%rbp, %rdi
	call	_ZNSt16_Sp_counted_baseILN9__gnu_cxx12_Lock_policyE2EE10_M_releaseEv
.L938:
	movq	%r13, %rdi
	call	_Unwind_Resume@PLT
.L857:
	testq	%r12, %r12
	je	.L858
	movq	%r12, %rdi
	call	_ZNSt16_Sp_counted_baseILN9__gnu_cxx12_Lock_policyE2EE10_M_releaseEv
.L858:
	testq	%rbp, %rbp
	je	.L859
	movq	%rbp, %rdi
	call	_ZNSt16_Sp_counted_baseILN9__gnu_cxx12_Lock_policyE2EE10_M_releaseEv
.L859:
	movq	%r13, %rdi
	call	_Unwind_Resume@PLT
.L831:
	testq	%r12, %r12
	je	.L832
	movq	%r12, %rdi
	call	_ZNSt16_Sp_counted_baseILN9__gnu_cxx12_Lock_policyE2EE10_M_releaseEv
.L832:
	testq	%rbp, %rbp
	je	.L833
	movq	%rbp, %rdi
	call	_ZNSt16_Sp_counted_baseILN9__gnu_cxx12_Lock_policyE2EE10_M_releaseEv
.L833:
	movq	%r13, %rdi
	call	_Unwind_Resume@PLT
.L806:
	movq	104(%rsp), %rdi
	testq	%rdi, %rdi
	je	.L807
	call	_ZNSt16_Sp_counted_baseILN9__gnu_cxx12_Lock_policyE2EE10_M_releaseEv
.L807:
	movq	%rbp, %rdi
	call	_Unwind_Resume@PLT
.L788:
	movq	104(%rsp), %rdi
	testq	%rdi, %rdi
	je	.L789
	call	_ZNSt16_Sp_counted_baseILN9__gnu_cxx12_Lock_policyE2EE10_M_releaseEv
.L789:
	movq	%rbp, %rdi
	call	_Unwind_Resume@PLT
.LEHE24:
	.cfi_endproc
.LFE12930:
	.section	.gcc_except_table
.LLSDAC12930:
	.byte	0xff
	.byte	0xff
	.byte	0x1
	.uleb128 .LLSDACSEC12930-.LLSDACSBC12930
.LLSDACSBC12930:
	.uleb128 .LEHB24-.LCOLDB11
	.uleb128 .LEHE24-.LEHB24
	.uleb128 0
	.uleb128 0
.LLSDACSEC12930:
	.section	.text.unlikely
	.text
	.size	_ZSt16__introsort_loopIN9__gnu_cxx17__normal_iteratorIPSt10shared_ptrI6EntityESt6vectorIS4_SaIS4_EEEElNS0_5__ops15_Iter_comp_iterIZN6Engine16sort_by_z_bufferEvEUlS4_S4_E_EEEvT_SF_T0_T1_, .-_ZSt16__introsort_loopIN9__gnu_cxx17__normal_iteratorIPSt10shared_ptrI6EntityESt6vectorIS4_SaIS4_EEEElNS0_5__ops15_Iter_comp_iterIZN6Engine16sort_by_z_bufferEvEUlS4_S4_E_EEEvT_SF_T0_T1_
	.section	.text.unlikely
	.size	_ZSt16__introsort_loopIN9__gnu_cxx17__normal_iteratorIPSt10shared_ptrI6EntityESt6vectorIS4_SaIS4_EEEElNS0_5__ops15_Iter_comp_iterIZN6Engine16sort_by_z_bufferEvEUlS4_S4_E_EEEvT_SF_T0_T1_.cold, .-_ZSt16__introsort_loopIN9__gnu_cxx17__normal_iteratorIPSt10shared_ptrI6EntityESt6vectorIS4_SaIS4_EEEElNS0_5__ops15_Iter_comp_iterIZN6Engine16sort_by_z_bufferEvEUlS4_S4_E_EEEvT_SF_T0_T1_.cold
.LCOLDE11:
	.text
.LHOTE11:
	.section	.text.unlikely
	.align 2
.LCOLDB12:
	.text
.LHOTB12:
	.align 2
	.p2align 4
	.globl	_ZN6Engine16sort_by_z_bufferEv
	.type	_ZN6Engine16sort_by_z_bufferEv, @function
_ZN6Engine16sort_by_z_bufferEv:
.LFB11962:
	.cfi_startproc
	.cfi_personality 0x9b,DW.ref.__gxx_personality_v0
	.cfi_lsda 0x1b,.LLSDA11962
	endbr64
	pushq	%r15
	.cfi_def_cfa_offset 16
	.cfi_offset 15, -16
	pushq	%r14
	.cfi_def_cfa_offset 24
	.cfi_offset 14, -24
	pushq	%r13
	.cfi_def_cfa_offset 32
	.cfi_offset 13, -32
	pushq	%r12
	.cfi_def_cfa_offset 40
	.cfi_offset 12, -40
	pushq	%rbp
	.cfi_def_cfa_offset 48
	.cfi_offset 6, -48
	pushq	%rbx
	.cfi_def_cfa_offset 56
	.cfi_offset 3, -56
	subq	$72, %rsp
	.cfi_def_cfa_offset 128
	movq	168(%rdi), %rcx
	movq	160(%rdi), %rbp
	movq	%fs:40, %rax
	movq	%rax, 56(%rsp)
	xorl	%eax, %eax
	movq	%rcx, 24(%rsp)
	cmpq	%rcx, %rbp
	je	.L1139
	movq	%rcx, %rbx
	movl	$63, %edx
	movq	%rcx, %rsi
	movq	%rbp, %rdi
	subq	%rbp, %rbx
	movq	%rcx, %r14
	movq	%rbx, %rax
	sarq	$4, %rax
	bsrq	%rax, %rax
	xorq	$63, %rax
	subl	%eax, %edx
	movslq	%edx, %rdx
	addq	%rdx, %rdx
.LEHB25:
	call	_ZSt16__introsort_loopIN9__gnu_cxx17__normal_iteratorIPSt10shared_ptrI6EntityESt6vectorIS4_SaIS4_EEEElNS0_5__ops15_Iter_comp_iterIZN6Engine16sort_by_z_bufferEvEUlS4_S4_E_EEEvT_SF_T0_T1_
	cmpq	$256, %rbx
	jle	.L1141
	leaq	256(%rbp), %rbx
	movq	%rbp, %rdi
	leaq	44(%rsp), %r15
	movq	%rbx, %rsi
	call	_ZSt16__insertion_sortIN9__gnu_cxx17__normal_iteratorIPSt10shared_ptrI6EntityESt6vectorIS4_SaIS4_EEEENS0_5__ops15_Iter_comp_iterIZN6Engine16sort_by_z_bufferEvEUlS4_S4_E_EEEvT_SF_T0_
.LEHE25:
	leaq	32(%rsp), %rax
	movq	%rbx, 16(%rsp)
	movq	%rax, 8(%rsp)
	cmpq	%rbx, %r14
	je	.L1139
	.p2align 4,,10
	.p2align 3
.L1187:
	movq	16(%rsp), %rax
	pxor	%xmm3, %xmm3
	movq	(%rax), %r14
	movq	8(%rax), %r12
	movq	%rax, %rbx
	movups	%xmm3, (%rax)
	jmp	.L1144
	.p2align 4,,10
	.p2align 3
.L1156:
	movq	%r14, %rdi
.LEHB26:
	call	_ZNK6Entity10is_deletedEv@PLT
	testb	%al, %al
	jne	.L1158
	movl	$1, %r13d
.L1157:
	testq	%r12, %r12
	je	.L1160
	cmpb	$0, __libc_single_threaded(%rip)
	je	.L1161
	movl	8(%r12), %eax
	leal	-1(%rax), %edx
	movl	%edx, 8(%r12)
.L1162:
	cmpl	$1, %eax
	je	.L1209
.L1160:
	testq	%rbp, %rbp
	je	.L1167
	cmpb	$0, __libc_single_threaded(%rip)
	je	.L1168
	movl	8(%rbp), %eax
	leal	-1(%rax), %edx
	movl	%edx, 8(%rbp)
.L1169:
	cmpl	$1, %eax
	je	.L1210
.L1167:
	testb	%r13b, %r13b
	je	.L1211
	movdqu	-16(%rbx), %xmm0
	movq	8(%rbx), %rbp
	pxor	%xmm2, %xmm2
	movups	%xmm2, -16(%rbx)
	movups	%xmm0, (%rbx)
	testq	%rbp, %rbp
	je	.L1146
	cmpb	$0, __libc_single_threaded(%rip)
	je	.L1147
	movl	8(%rbp), %eax
	leal	-1(%rax), %edx
	movl	%edx, 8(%rbp)
.L1148:
	cmpl	$1, %eax
	je	.L1212
.L1146:
	subq	$16, %rbx
.L1144:
	movq	-8(%rbx), %rbp
	movq	-16(%rbx), %r13
	testq	%rbp, %rbp
	je	.L1152
	cmpb	$0, __libc_single_threaded(%rip)
	je	.L1153
	addl	$1, 8(%rbp)
.L1152:
	testq	%r12, %r12
	je	.L1154
	cmpb	$0, __libc_single_threaded(%rip)
	je	.L1155
	addl	$1, 8(%r12)
.L1154:
	movq	8(%rsp), %rdi
	movq	%r14, %rsi
	call	_ZNK6Entity14get_position3DEv@PLT
	movss	40(%rsp), %xmm1
	movq	%r13, %rsi
	movq	%r15, %rdi
	movss	%xmm1, 4(%rsp)
	call	_ZNK6Entity14get_position3DEv@PLT
	movss	4(%rsp), %xmm1
	comiss	52(%rsp), %xmm1
	ja	.L1156
.L1158:
	movq	%r13, %rdi
	call	_ZNK6Entity10is_deletedEv@PLT
.LEHE26:
	movl	%eax, %r13d
	jmp	.L1157
	.p2align 4,,10
	.p2align 3
.L1211:
	movq	8(%rbx), %rbp
	movq	%r14, %xmm0
	movq	%r12, %xmm4
	punpcklqdq	%xmm4, %xmm0
	movups	%xmm0, (%rbx)
	testq	%rbp, %rbp
	je	.L1181
	cmpb	$0, __libc_single_threaded(%rip)
	je	.L1182
	movl	8(%rbp), %eax
	leal	-1(%rax), %edx
	movl	%edx, 8(%rbp)
.L1183:
	cmpl	$1, %eax
	je	.L1213
.L1181:
	addq	$16, 16(%rsp)
	movq	16(%rsp), %rax
	cmpq	%rax, 24(%rsp)
	jne	.L1187
.L1139:
	movq	56(%rsp), %rax
	subq	%fs:40, %rax
	jne	.L1208
	addq	$72, %rsp
	.cfi_remember_state
	.cfi_def_cfa_offset 56
	popq	%rbx
	.cfi_def_cfa_offset 48
	popq	%rbp
	.cfi_def_cfa_offset 40
	popq	%r12
	.cfi_def_cfa_offset 32
	popq	%r13
	.cfi_def_cfa_offset 24
	popq	%r14
	.cfi_def_cfa_offset 16
	popq	%r15
	.cfi_def_cfa_offset 8
	ret
	.p2align 4,,10
	.p2align 3
.L1141:
	.cfi_restore_state
	movq	56(%rsp), %rax
	subq	%fs:40, %rax
	jne	.L1208
	movq	24(%rsp), %rsi
	addq	$72, %rsp
	.cfi_remember_state
	.cfi_def_cfa_offset 56
	movq	%rbp, %rdi
	popq	%rbx
	.cfi_def_cfa_offset 48
	popq	%rbp
	.cfi_def_cfa_offset 40
	popq	%r12
	.cfi_def_cfa_offset 32
	popq	%r13
	.cfi_def_cfa_offset 24
	popq	%r14
	.cfi_def_cfa_offset 16
	popq	%r15
	.cfi_def_cfa_offset 8
.LEHB27:
	jmp	_ZSt16__insertion_sortIN9__gnu_cxx17__normal_iteratorIPSt10shared_ptrI6EntityESt6vectorIS4_SaIS4_EEEENS0_5__ops15_Iter_comp_iterIZN6Engine16sort_by_z_bufferEvEUlS4_S4_E_EEEvT_SF_T0_
.LEHE27:
	.p2align 4,,10
	.p2align 3
.L1155:
	.cfi_restore_state
	lock addl	$1, 8(%r12)
	jmp	.L1154
	.p2align 4,,10
	.p2align 3
.L1153:
	lock addl	$1, 8(%rbp)
	jmp	.L1152
	.p2align 4,,10
	.p2align 3
.L1209:
	movq	(%r12), %rax
	movq	%r12, %rdi
	call	*16(%rax)
	cmpb	$0, __libc_single_threaded(%rip)
	je	.L1164
	movl	12(%r12), %eax
	leal	-1(%rax), %edx
	movl	%edx, 12(%r12)
.L1165:
	cmpl	$1, %eax
	jne	.L1160
	movq	(%r12), %rax
	movq	%r12, %rdi
	call	*24(%rax)
	jmp	.L1160
	.p2align 4,,10
	.p2align 3
.L1210:
	movq	0(%rbp), %rax
	movq	%rbp, %rdi
	call	*16(%rax)
	cmpb	$0, __libc_single_threaded(%rip)
	je	.L1171
	movl	12(%rbp), %eax
	leal	-1(%rax), %edx
	movl	%edx, 12(%rbp)
.L1172:
	cmpl	$1, %eax
	jne	.L1167
	movq	0(%rbp), %rax
	movq	%rbp, %rdi
	call	*24(%rax)
	jmp	.L1167
	.p2align 4,,10
	.p2align 3
.L1161:
	movl	$-1, %eax
	lock xaddl	%eax, 8(%r12)
	jmp	.L1162
	.p2align 4,,10
	.p2align 3
.L1168:
	movl	$-1, %eax
	lock xaddl	%eax, 8(%rbp)
	jmp	.L1169
	.p2align 4,,10
	.p2align 3
.L1212:
	movq	0(%rbp), %rax
	movq	%rbp, %rdi
	call	*16(%rax)
	cmpb	$0, __libc_single_threaded(%rip)
	je	.L1150
	movl	12(%rbp), %eax
	leal	-1(%rax), %edx
	movl	%edx, 12(%rbp)
.L1151:
	cmpl	$1, %eax
	jne	.L1146
	movq	0(%rbp), %rax
	movq	%rbp, %rdi
	call	*24(%rax)
	jmp	.L1146
	.p2align 4,,10
	.p2align 3
.L1147:
	movl	$-1, %eax
	lock xaddl	%eax, 8(%rbp)
	jmp	.L1148
	.p2align 4,,10
	.p2align 3
.L1171:
	movl	$-1, %eax
	lock xaddl	%eax, 12(%rbp)
	jmp	.L1172
	.p2align 4,,10
	.p2align 3
.L1164:
	movl	$-1, %eax
	lock xaddl	%eax, 12(%r12)
	jmp	.L1165
	.p2align 4,,10
	.p2align 3
.L1150:
	movl	$-1, %eax
	lock xaddl	%eax, 12(%rbp)
	jmp	.L1151
	.p2align 4,,10
	.p2align 3
.L1213:
	movq	0(%rbp), %rax
	movq	%rbp, %rdi
	call	*16(%rax)
	cmpb	$0, __libc_single_threaded(%rip)
	je	.L1185
	movl	12(%rbp), %eax
	leal	-1(%rax), %edx
	movl	%edx, 12(%rbp)
.L1186:
	cmpl	$1, %eax
	jne	.L1181
	movq	0(%rbp), %rax
	movq	%rbp, %rdi
	call	*24(%rax)
	jmp	.L1181
	.p2align 4,,10
	.p2align 3
.L1182:
	movl	$-1, %eax
	lock xaddl	%eax, 8(%rbp)
	jmp	.L1183
.L1185:
	movl	$-1, %eax
	lock xaddl	%eax, 12(%rbp)
	jmp	.L1186
.L1208:
	call	__stack_chk_fail@PLT
.L1191:
	endbr64
	movq	%rax, %r13
	jmp	.L1175
	.section	.gcc_except_table
.LLSDA11962:
	.byte	0xff
	.byte	0xff
	.byte	0x1
	.uleb128 .LLSDACSE11962-.LLSDACSB11962
.LLSDACSB11962:
	.uleb128 .LEHB25-.LFB11962
	.uleb128 .LEHE25-.LEHB25
	.uleb128 0
	.uleb128 0
	.uleb128 .LEHB26-.LFB11962
	.uleb128 .LEHE26-.LEHB26
	.uleb128 .L1191-.LFB11962
	.uleb128 0
	.uleb128 .LEHB27-.LFB11962
	.uleb128 .LEHE27-.LEHB27
	.uleb128 0
	.uleb128 0
.LLSDACSE11962:
	.text
	.cfi_endproc
	.section	.text.unlikely
	.cfi_startproc
	.cfi_personality 0x9b,DW.ref.__gxx_personality_v0
	.cfi_lsda 0x1b,.LLSDAC11962
	.type	_ZN6Engine16sort_by_z_bufferEv.cold, @function
_ZN6Engine16sort_by_z_bufferEv.cold:
.LFSB11962:
.L1175:
	.cfi_def_cfa_offset 128
	.cfi_offset 3, -56
	.cfi_offset 6, -48
	.cfi_offset 12, -40
	.cfi_offset 13, -32
	.cfi_offset 14, -24
	.cfi_offset 15, -16
	testq	%r12, %r12
	je	.L1176
	movq	%r12, %rdi
	call	_ZNSt16_Sp_counted_baseILN9__gnu_cxx12_Lock_policyE2EE10_M_releaseEv
.L1176:
	testq	%rbp, %rbp
	je	.L1177
	movq	%rbp, %rdi
	call	_ZNSt16_Sp_counted_baseILN9__gnu_cxx12_Lock_policyE2EE10_M_releaseEv
.L1177:
	testq	%r12, %r12
	je	.L1179
	movq	%r12, %rdi
	call	_ZNSt16_Sp_counted_baseILN9__gnu_cxx12_Lock_policyE2EE10_M_releaseEv
.L1179:
	movq	%r13, %rdi
.LEHB28:
	call	_Unwind_Resume@PLT
.LEHE28:
	.cfi_endproc
.LFE11962:
	.section	.gcc_except_table
.LLSDAC11962:
	.byte	0xff
	.byte	0xff
	.byte	0x1
	.uleb128 .LLSDACSEC11962-.LLSDACSBC11962
.LLSDACSBC11962:
	.uleb128 .LEHB28-.LCOLDB12
	.uleb128 .LEHE28-.LEHB28
	.uleb128 0
	.uleb128 0
.LLSDACSEC11962:
	.section	.text.unlikely
	.text
	.size	_ZN6Engine16sort_by_z_bufferEv, .-_ZN6Engine16sort_by_z_bufferEv
	.section	.text.unlikely
	.size	_ZN6Engine16sort_by_z_bufferEv.cold, .-_ZN6Engine16sort_by_z_bufferEv.cold
.LCOLDE12:
	.text
.LHOTE12:
	.section	.rodata._ZNSt6vectorISt10shared_ptrI6EntityESaIS2_EE17_M_default_appendEm.str1.1,"aMS",@progbits,1
.LC13:
	.string	"vector::_M_default_append"
	.section	.text._ZNSt6vectorISt10shared_ptrI6EntityESaIS2_EE17_M_default_appendEm,"axG",@progbits,_ZNSt6vectorISt10shared_ptrI6EntityESaIS2_EE17_M_default_appendEm,comdat
	.align 2
	.p2align 4
	.weak	_ZNSt6vectorISt10shared_ptrI6EntityESaIS2_EE17_M_default_appendEm
	.type	_ZNSt6vectorISt10shared_ptrI6EntityESaIS2_EE17_M_default_appendEm, @function
_ZNSt6vectorISt10shared_ptrI6EntityESaIS2_EE17_M_default_appendEm:
.LFB12829:
	.cfi_startproc
	endbr64
	testq	%rsi, %rsi
	je	.L1238
	movabsq	$576460752303423487, %rax
	pushq	%r15
	.cfi_def_cfa_offset 16
	.cfi_offset 15, -16
	pushq	%r14
	.cfi_def_cfa_offset 24
	.cfi_offset 14, -24
	pushq	%r13
	.cfi_def_cfa_offset 32
	.cfi_offset 13, -32
	pushq	%r12
	.cfi_def_cfa_offset 40
	.cfi_offset 12, -40
	movq	%rdi, %r12
	pushq	%rbp
	.cfi_def_cfa_offset 48
	.cfi_offset 6, -48
	pushq	%rbx
	.cfi_def_cfa_offset 56
	.cfi_offset 3, -56
	movq	%rsi, %rbx
	subq	$8, %rsp
	.cfi_def_cfa_offset 64
	movq	8(%rdi), %rdx
	movq	(%rdi), %rdi
	movq	16(%r12), %rsi
	movq	%rdx, %rbp
	subq	%rdi, %rbp
	movq	%rbp, %r13
	sarq	$4, %r13
	subq	%r13, %rax
	movq	%rax, %rcx
	movq	%rsi, %rax
	subq	%rdx, %rax
	sarq	$4, %rax
	cmpq	%rax, %rbx
	ja	.L1216
	xorl	%eax, %eax
	pxor	%xmm0, %xmm0
	.p2align 4,,10
	.p2align 3
.L1217:
	movq	%rax, %rcx
	addq	$1, %rax
	salq	$4, %rcx
	movups	%xmm0, (%rdx,%rcx)
	cmpq	%rax, %rbx
	jne	.L1217
	salq	$4, %rbx
	addq	%rdx, %rbx
	movq	%rbx, 8(%r12)
	addq	$8, %rsp
	.cfi_def_cfa_offset 56
	popq	%rbx
	.cfi_def_cfa_offset 48
	popq	%rbp
	.cfi_def_cfa_offset 40
	popq	%r12
	.cfi_def_cfa_offset 32
	popq	%r13
	.cfi_def_cfa_offset 24
	popq	%r14
	.cfi_def_cfa_offset 16
	popq	%r15
	.cfi_def_cfa_offset 8
	ret
	.p2align 4,,10
	.p2align 3
.L1238:
	.cfi_restore 3
	.cfi_restore 6
	.cfi_restore 12
	.cfi_restore 13
	.cfi_restore 14
	.cfi_restore 15
	ret
	.p2align 4,,10
	.p2align 3
.L1216:
	.cfi_def_cfa_offset 64
	.cfi_offset 3, -56
	.cfi_offset 6, -48
	.cfi_offset 12, -40
	.cfi_offset 13, -32
	.cfi_offset 14, -24
	.cfi_offset 15, -16
	cmpq	%rbx, %rcx
	jb	.L1241
	cmpq	%r13, %rbx
	movq	%r13, %rax
	cmovnb	%rbx, %rax
	addq	%r13, %rax
	jc	.L1220
	testq	%rax, %rax
	jne	.L1242
	xorl	%r15d, %r15d
	xorl	%r14d, %r14d
.L1222:
	movq	%rbx, %rcx
	leaq	(%r14,%rbp), %rax
	pxor	%xmm0, %xmm0
	salq	$4, %rcx
	addq	%rax, %rcx
	.p2align 4,,10
	.p2align 3
.L1223:
	movups	%xmm0, (%rax)
	addq	$16, %rax
	cmpq	%rax, %rcx
	jne	.L1223
	cmpq	%rdx, %rdi
	je	.L1243
	leaq	-16(%rdx), %rcx
	xorl	%eax, %eax
	xorl	%edx, %edx
	subq	%rdi, %rcx
	shrq	$4, %rcx
	addq	$1, %rcx
	.p2align 4,,10
	.p2align 3
.L1227:
	movdqu	(%rdi,%rax), %xmm1
	addq	$1, %rdx
	movups	%xmm1, (%r14,%rax)
	addq	$16, %rax
	cmpq	%rdx, %rcx
	ja	.L1227
.L1225:
	subq	%rdi, %rsi
	call	_ZdlPvm@PLT
.L1226:
	addq	%rbx, %r13
	movq	%r14, %xmm0
	movq	%r15, 16(%r12)
	salq	$4, %r13
	addq	%r14, %r13
	movq	%r13, %xmm2
	punpcklqdq	%xmm2, %xmm0
	movups	%xmm0, (%r12)
	addq	$8, %rsp
	.cfi_remember_state
	.cfi_def_cfa_offset 56
	popq	%rbx
	.cfi_def_cfa_offset 48
	popq	%rbp
	.cfi_def_cfa_offset 40
	popq	%r12
	.cfi_def_cfa_offset 32
	popq	%r13
	.cfi_def_cfa_offset 24
	popq	%r14
	.cfi_def_cfa_offset 16
	popq	%r15
	.cfi_def_cfa_offset 8
	ret
.L1243:
	.cfi_restore_state
	testq	%rdi, %rdi
	je	.L1226
	jmp	.L1225
	.p2align 4,,10
	.p2align 3
.L1242:
	movabsq	$576460752303423487, %rdx
	cmpq	%rdx, %rax
	cmova	%rdx, %rax
	salq	$4, %rax
	movq	%rax, %r15
.L1221:
	movq	%r15, %rdi
	call	_Znwm@PLT
	movq	8(%r12), %rdx
	movq	(%r12), %rdi
	movq	16(%r12), %rsi
	movq	%rax, %r14
	addq	%rax, %r15
	jmp	.L1222
.L1220:
	movabsq	$9223372036854775792, %r15
	jmp	.L1221
.L1241:
	leaq	.LC13(%rip), %rdi
	call	_ZSt20__throw_length_errorPKc@PLT
	.cfi_endproc
.LFE12829:
	.size	_ZNSt6vectorISt10shared_ptrI6EntityESaIS2_EE17_M_default_appendEm, .-_ZNSt6vectorISt10shared_ptrI6EntityESaIS2_EE17_M_default_appendEm
	.section	.text.unlikely
	.align 2
.LCOLDB14:
	.text
.LHOTB14:
	.align 2
	.p2align 4
	.globl	_ZN6Engine20delete_dead_entitiesEv
	.type	_ZN6Engine20delete_dead_entitiesEv, @function
_ZN6Engine20delete_dead_entitiesEv:
.LFB11966:
	.cfi_startproc
	.cfi_personality 0x9b,DW.ref.__gxx_personality_v0
	.cfi_lsda 0x1b,.LLSDA11966
	endbr64
	pushq	%r15
	.cfi_def_cfa_offset 16
	.cfi_offset 15, -16
	pushq	%r14
	.cfi_def_cfa_offset 24
	.cfi_offset 14, -24
	pushq	%r13
	.cfi_def_cfa_offset 32
	.cfi_offset 13, -32
	movq	%rdi, %r13
	pushq	%r12
	.cfi_def_cfa_offset 40
	.cfi_offset 12, -40
	pushq	%rbp
	.cfi_def_cfa_offset 48
	.cfi_offset 6, -48
	pushq	%rbx
	.cfi_def_cfa_offset 56
	.cfi_offset 3, -56
	subq	$56, %rsp
	.cfi_def_cfa_offset 112
	movq	168(%rdi), %r14
	movq	160(%rdi), %rbx
	movq	%fs:40, %rax
	movq	%rax, 40(%rsp)
	xorl	%eax, %eax
	movq	%r14, %r12
	subq	%rbx, %r12
	movq	%r12, %rax
	sarq	$6, %r12
	sarq	$4, %rax
	testq	%r12, %r12
	jle	.L1245
	salq	$6, %r12
	addq	%rbx, %r12
	jmp	.L1295
	.p2align 4,,10
	.p2align 3
.L1463:
	addl	$1, 8(%rbp)
.L1246:
.LEHB29:
	call	_ZNK6Entity10is_deletedEv@PLT
.LEHE29:
	movl	%eax, %r15d
	testq	%rbp, %rbp
	je	.L1249
	cmpb	$0, __libc_single_threaded(%rip)
	je	.L1250
	movl	8(%rbp), %eax
	leal	-1(%rax), %edx
	movl	%edx, 8(%rbp)
.L1251:
	cmpl	$1, %eax
	je	.L1455
.L1249:
	testb	%r15b, %r15b
	jne	.L1255
.L1442:
	movq	24(%rbx), %rbp
	movq	16(%rbx), %rdi
	testq	%rbp, %rbp
	je	.L1259
	cmpb	$0, __libc_single_threaded(%rip)
	je	.L1260
	addl	$1, 8(%rbp)
.L1259:
.LEHB30:
	call	_ZNK6Entity10is_deletedEv@PLT
.LEHE30:
	movl	%eax, %r15d
	testq	%rbp, %rbp
	je	.L1262
	cmpb	$0, __libc_single_threaded(%rip)
	je	.L1263
	movl	8(%rbp), %eax
	leal	-1(%rax), %edx
	movl	%edx, 8(%rbp)
.L1264:
	cmpl	$1, %eax
	je	.L1456
.L1262:
	testb	%r15b, %r15b
	jne	.L1457
.L1268:
	movq	40(%rbx), %rbp
	movq	32(%rbx), %rdi
	testq	%rbp, %rbp
	je	.L1271
	cmpb	$0, __libc_single_threaded(%rip)
	je	.L1272
	addl	$1, 8(%rbp)
.L1271:
.LEHB31:
	call	_ZNK6Entity10is_deletedEv@PLT
.LEHE31:
	movl	%eax, %r15d
	testq	%rbp, %rbp
	je	.L1274
	cmpb	$0, __libc_single_threaded(%rip)
	je	.L1275
	movl	8(%rbp), %eax
	leal	-1(%rax), %edx
	movl	%edx, 8(%rbp)
.L1276:
	cmpl	$1, %eax
	je	.L1458
.L1274:
	testb	%r15b, %r15b
	jne	.L1459
.L1280:
	movq	56(%rbx), %rbp
	movq	48(%rbx), %rdi
	testq	%rbp, %rbp
	je	.L1283
	cmpb	$0, __libc_single_threaded(%rip)
	je	.L1284
	addl	$1, 8(%rbp)
.L1283:
.LEHB32:
	call	_ZNK6Entity10is_deletedEv@PLT
.LEHE32:
	movl	%eax, %r15d
	testq	%rbp, %rbp
	je	.L1286
	cmpb	$0, __libc_single_threaded(%rip)
	je	.L1287
	movl	8(%rbp), %eax
	leal	-1(%rax), %edx
	movl	%edx, 8(%rbp)
.L1288:
	cmpl	$1, %eax
	je	.L1460
.L1286:
	testb	%r15b, %r15b
	jne	.L1461
.L1292:
	addq	$64, %rbx
	cmpq	%rbx, %r12
	je	.L1462
.L1295:
	movq	8(%rbx), %rbp
	movq	(%rbx), %rdi
	testq	%rbp, %rbp
	je	.L1246
	cmpb	$0, __libc_single_threaded(%rip)
	jne	.L1463
	lock addl	$1, 8(%rbp)
	jmp	.L1246
	.p2align 4,,10
	.p2align 3
.L1260:
	lock addl	$1, 8(%rbp)
	jmp	.L1259
	.p2align 4,,10
	.p2align 3
.L1272:
	lock addl	$1, 8(%rbp)
	jmp	.L1271
	.p2align 4,,10
	.p2align 3
.L1284:
	lock addl	$1, 8(%rbp)
	jmp	.L1283
	.p2align 4,,10
	.p2align 3
.L1455:
	movq	0(%rbp), %rax
	movq	%rbp, %rdi
	call	*16(%rax)
	cmpb	$0, __libc_single_threaded(%rip)
	je	.L1253
	movl	12(%rbp), %eax
	leal	-1(%rax), %edx
	movl	%edx, 12(%rbp)
.L1254:
	cmpl	$1, %eax
	jne	.L1249
	movq	0(%rbp), %rax
	movq	%rbp, %rdi
	call	*24(%rax)
	testb	%r15b, %r15b
	je	.L1442
	.p2align 4,,10
	.p2align 3
.L1255:
	movq	168(%r13), %r14
	cmpq	%rbx, %r14
	je	.L1373
.L1468:
	movq	%rbx, %r12
	leaq	16(%rsp), %r15
	jmp	.L1359
	.p2align 4,,10
	.p2align 3
.L1467:
	cmpb	$0, __libc_single_threaded(%rip)
	je	.L1337
	movq	0(%r13), %rdi
	addl	$1, 8(%rbp)
	movq	(%rdi), %rax
	movaps	%xmm0, 16(%rsp)
	movq	56(%rax), %rax
.L1338:
	addl	$1, 8(%rbp)
.L1340:
	movq	%r15, %rdx
	movq	%r13, %rsi
.LEHB33:
	call	*%rax
.LEHE33:
	movq	24(%rsp), %rdi
	testq	%rdi, %rdi
	je	.L1342
	cmpb	$0, __libc_single_threaded(%rip)
	je	.L1343
	movl	8(%rdi), %eax
	leal	-1(%rax), %edx
	movl	%edx, 8(%rdi)
.L1344:
	cmpl	$1, %eax
	je	.L1464
.L1342:
	testq	%rbp, %rbp
	je	.L1349
	cmpb	$0, __libc_single_threaded(%rip)
	je	.L1354
	movl	8(%rbp), %eax
	leal	-1(%rax), %edx
	movl	%edx, 8(%rbp)
.L1355:
	cmpl	$1, %eax
	je	.L1465
.L1349:
	addq	$16, %r12
	cmpq	%r12, %r14
	je	.L1466
.L1359:
	movdqu	(%r12), %xmm0
	movq	8(%r12), %rax
	movhlps	%xmm0, %xmm1
	movq	%rax, 8(%rsp)
	movq	%xmm1, %rbp
	testq	%rbp, %rbp
	jne	.L1467
	movq	0(%r13), %rdi
	movq	(%rdi), %rax
	movq	%xmm0, 16(%rsp)
	movq	$0, 24(%rsp)
	movq	56(%rax), %rax
	jmp	.L1340
	.p2align 4,,10
	.p2align 3
.L1456:
	movq	0(%rbp), %rax
	movq	%rbp, %rdi
	call	*16(%rax)
	cmpb	$0, __libc_single_threaded(%rip)
	je	.L1266
	movl	12(%rbp), %eax
	leal	-1(%rax), %edx
	movl	%edx, 12(%rbp)
.L1267:
	cmpl	$1, %eax
	jne	.L1262
	movq	0(%rbp), %rax
	movq	%rbp, %rdi
	call	*24(%rax)
	testb	%r15b, %r15b
	je	.L1268
	.p2align 4,,10
	.p2align 3
.L1457:
	movq	168(%r13), %r14
	addq	$16, %rbx
	cmpq	%rbx, %r14
	jne	.L1468
	.p2align 4,,10
	.p2align 3
.L1373:
	movq	%rbx, %r14
	jmp	.L1335
	.p2align 4,,10
	.p2align 3
.L1250:
	movl	$-1, %eax
	lock xaddl	%eax, 8(%rbp)
	jmp	.L1251
	.p2align 4,,10
	.p2align 3
.L1458:
	movq	0(%rbp), %rax
	movq	%rbp, %rdi
	call	*16(%rax)
	cmpb	$0, __libc_single_threaded(%rip)
	je	.L1278
	movl	12(%rbp), %eax
	leal	-1(%rax), %edx
	movl	%edx, 12(%rbp)
.L1279:
	cmpl	$1, %eax
	jne	.L1274
	movq	0(%rbp), %rax
	movq	%rbp, %rdi
	call	*24(%rax)
	testb	%r15b, %r15b
	je	.L1280
	.p2align 4,,10
	.p2align 3
.L1459:
	addq	$32, %rbx
	jmp	.L1255
	.p2align 4,,10
	.p2align 3
.L1263:
	movl	$-1, %eax
	lock xaddl	%eax, 8(%rbp)
	jmp	.L1264
	.p2align 4,,10
	.p2align 3
.L1460:
	movq	0(%rbp), %rax
	movq	%rbp, %rdi
	call	*16(%rax)
	cmpb	$0, __libc_single_threaded(%rip)
	je	.L1290
	movl	12(%rbp), %eax
	leal	-1(%rax), %edx
	movl	%edx, 12(%rbp)
.L1291:
	cmpl	$1, %eax
	jne	.L1286
	movq	0(%rbp), %rax
	movq	%rbp, %rdi
	call	*24(%rax)
	testb	%r15b, %r15b
	je	.L1292
	.p2align 4,,10
	.p2align 3
.L1461:
	addq	$48, %rbx
	jmp	.L1255
	.p2align 4,,10
	.p2align 3
.L1275:
	movl	$-1, %eax
	lock xaddl	%eax, 8(%rbp)
	jmp	.L1276
	.p2align 4,,10
	.p2align 3
.L1287:
	movl	$-1, %eax
	lock xaddl	%eax, 8(%rbp)
	jmp	.L1288
	.p2align 4,,10
	.p2align 3
.L1337:
	lock addl	$1, 8(%rbp)
	cmpb	$0, __libc_single_threaded(%rip)
	movq	0(%r13), %rdi
	movq	(%rdi), %rax
	movaps	%xmm0, 16(%rsp)
	movq	56(%rax), %rax
	jne	.L1338
	lock addl	$1, 8(%rbp)
	jmp	.L1340
	.p2align 4,,10
	.p2align 3
.L1465:
	movq	0(%rbp), %rax
	movq	%rbp, %rdi
	call	*16(%rax)
	cmpb	$0, __libc_single_threaded(%rip)
	je	.L1357
	movl	12(%rbp), %eax
	leal	-1(%rax), %edx
	movl	%edx, 12(%rbp)
.L1358:
	cmpl	$1, %eax
	jne	.L1349
	movq	0(%rbp), %rax
	addq	$16, %r12
	movq	%rbp, %rdi
	call	*24(%rax)
	cmpq	%r12, %r14
	jne	.L1359
	.p2align 4,,10
	.p2align 3
.L1466:
	movq	168(%r13), %r14
.L1335:
	movq	%rbx, %rsi
	movq	%r14, %rax
	subq	160(%r13), %rsi
	subq	160(%r13), %rax
	cmpq	%rsi, %rax
	jb	.L1469
	cmpq	%rbx, %r14
	je	.L1244
	cmpq	%rsi, %rax
	ja	.L1470
.L1244:
	movq	40(%rsp), %rax
	subq	%fs:40, %rax
	jne	.L1447
	addq	$56, %rsp
	.cfi_remember_state
	.cfi_def_cfa_offset 56
	popq	%rbx
	.cfi_def_cfa_offset 48
	popq	%rbp
	.cfi_def_cfa_offset 40
	popq	%r12
	.cfi_def_cfa_offset 32
	popq	%r13
	.cfi_def_cfa_offset 24
	popq	%r14
	.cfi_def_cfa_offset 16
	popq	%r15
	.cfi_def_cfa_offset 8
	ret
	.p2align 4,,10
	.p2align 3
.L1464:
	.cfi_restore_state
	movq	(%rdi), %rax
	movq	%rdi, 8(%rsp)
	call	*16(%rax)
	cmpb	$0, __libc_single_threaded(%rip)
	movq	8(%rsp), %rdi
	je	.L1346
	movl	12(%rdi), %eax
	leal	-1(%rax), %edx
	movl	%edx, 12(%rdi)
.L1347:
	cmpl	$1, %eax
	jne	.L1342
	movq	(%rdi), %rax
	call	*24(%rax)
	jmp	.L1342
	.p2align 4,,10
	.p2align 3
.L1343:
	movl	$-1, %eax
	lock xaddl	%eax, 8(%rdi)
	jmp	.L1344
	.p2align 4,,10
	.p2align 3
.L1354:
	movl	$-1, %eax
	lock xaddl	%eax, 8(%rbp)
	jmp	.L1355
	.p2align 4,,10
	.p2align 3
.L1253:
	movl	$-1, %eax
	lock xaddl	%eax, 12(%rbp)
	jmp	.L1254
	.p2align 4,,10
	.p2align 3
.L1266:
	movl	$-1, %eax
	lock xaddl	%eax, 12(%rbp)
	jmp	.L1267
	.p2align 4,,10
	.p2align 3
.L1278:
	movl	$-1, %eax
	lock xaddl	%eax, 12(%rbp)
	jmp	.L1279
	.p2align 4,,10
	.p2align 3
.L1290:
	movl	$-1, %eax
	lock xaddl	%eax, 12(%rbp)
	jmp	.L1291
	.p2align 4,,10
	.p2align 3
.L1346:
	movl	$-1, %eax
	lock xaddl	%eax, 12(%rdi)
	jmp	.L1347
	.p2align 4,,10
	.p2align 3
.L1357:
	movl	$-1, %eax
	lock xaddl	%eax, 12(%rbp)
	jmp	.L1358
	.p2align 4,,10
	.p2align 3
.L1469:
	movq	40(%rsp), %rdx
	subq	%fs:40, %rdx
	jne	.L1447
	addq	$56, %rsp
	.cfi_remember_state
	.cfi_def_cfa_offset 56
	sarq	$4, %rsi
	leaq	160(%r13), %rdi
	sarq	$4, %rax
	popq	%rbx
	.cfi_def_cfa_offset 48
	popq	%rbp
	.cfi_def_cfa_offset 40
	subq	%rax, %rsi
	popq	%r12
	.cfi_def_cfa_offset 32
	popq	%r13
	.cfi_def_cfa_offset 24
	popq	%r14
	.cfi_def_cfa_offset 16
	popq	%r15
	.cfi_def_cfa_offset 8
.LEHB34:
	jmp	_ZNSt6vectorISt10shared_ptrI6EntityESaIS2_EE17_M_default_appendEm
.LEHE34:
	.p2align 4,,10
	.p2align 3
.L1462:
	.cfi_restore_state
	movq	%r14, %rax
	subq	%rbx, %rax
	sarq	$4, %rax
.L1245:
	cmpq	$2, %rax
	je	.L1296
	cmpq	$3, %rax
	je	.L1297
	cmpq	$1, %rax
	je	.L1298
.L1299:
	movq	%r14, %rbx
	jmp	.L1255
	.p2align 4,,10
	.p2align 3
.L1470:
	movq	%rbx, %r12
	jmp	.L1371
	.p2align 4,,10
	.p2align 3
.L1365:
	addq	$16, %r12
	cmpq	%r12, %r14
	je	.L1471
.L1371:
	movq	8(%r12), %rbp
	testq	%rbp, %rbp
	je	.L1365
	cmpb	$0, __libc_single_threaded(%rip)
	je	.L1366
	movl	8(%rbp), %eax
	leal	-1(%rax), %edx
	movl	%edx, 8(%rbp)
.L1367:
	cmpl	$1, %eax
	jne	.L1365
	movq	0(%rbp), %rax
	movq	%rbp, %rdi
	call	*16(%rax)
	cmpb	$0, __libc_single_threaded(%rip)
	je	.L1369
	movl	12(%rbp), %eax
	leal	-1(%rax), %edx
	movl	%edx, 12(%rbp)
.L1370:
	cmpl	$1, %eax
	jne	.L1365
	movq	0(%rbp), %rax
	movq	%rbp, %rdi
	call	*24(%rax)
	jmp	.L1365
.L1297:
	movq	8(%rbx), %rbp
	movq	(%rbx), %rdi
	testq	%rbp, %rbp
	je	.L1300
	cmpb	$0, __libc_single_threaded(%rip)
	je	.L1301
	addl	$1, 8(%rbp)
.L1300:
.LEHB35:
	call	_ZNK6Entity10is_deletedEv@PLT
.LEHE35:
	movl	%eax, %r12d
	testq	%rbp, %rbp
	jne	.L1472
.L1303:
	testb	%r12b, %r12b
	jne	.L1255
	addq	$16, %rbx
.L1296:
	movq	8(%rbx), %rbp
	movq	(%rbx), %rdi
	testq	%rbp, %rbp
	je	.L1312
	cmpb	$0, __libc_single_threaded(%rip)
	je	.L1313
	addl	$1, 8(%rbp)
.L1312:
.LEHB36:
	call	_ZNK6Entity10is_deletedEv@PLT
.LEHE36:
	movl	%eax, %r12d
	testq	%rbp, %rbp
	jne	.L1473
.L1315:
	testb	%r12b, %r12b
	jne	.L1255
	addq	$16, %rbx
.L1298:
	movq	8(%rbx), %rbp
	movq	(%rbx), %rdi
	testq	%rbp, %rbp
	je	.L1324
	cmpb	$0, __libc_single_threaded(%rip)
	je	.L1325
	addl	$1, 8(%rbp)
.L1324:
.LEHB37:
	call	_ZNK6Entity10is_deletedEv@PLT
.LEHE37:
	movl	%eax, %r12d
	testq	%rbp, %rbp
	je	.L1327
	cmpb	$0, __libc_single_threaded(%rip)
	je	.L1328
	movl	8(%rbp), %eax
	leal	-1(%rax), %edx
	movl	%edx, 8(%rbp)
.L1329:
	cmpl	$1, %eax
	jne	.L1327
	movq	0(%rbp), %rax
	movq	%rbp, %rdi
	call	*16(%rax)
	cmpb	$0, __libc_single_threaded(%rip)
	je	.L1331
	movl	12(%rbp), %eax
	leal	-1(%rax), %edx
	movl	%edx, 12(%rbp)
.L1332:
	cmpl	$1, %eax
	jne	.L1327
	movq	0(%rbp), %rax
	movq	%rbp, %rdi
	call	*24(%rax)
.L1327:
	testb	%r12b, %r12b
	jne	.L1255
	jmp	.L1299
	.p2align 4,,10
	.p2align 3
.L1366:
	movl	$-1, %eax
	lock xaddl	%eax, 8(%rbp)
	jmp	.L1367
	.p2align 4,,10
	.p2align 3
.L1471:
	movq	%rbx, 168(%r13)
	jmp	.L1244
.L1369:
	movl	$-1, %eax
	lock xaddl	%eax, 12(%rbp)
	jmp	.L1370
.L1473:
	cmpb	$0, __libc_single_threaded(%rip)
	je	.L1316
	movl	8(%rbp), %eax
	leal	-1(%rax), %edx
	movl	%edx, 8(%rbp)
.L1317:
	cmpl	$1, %eax
	jne	.L1315
	movq	0(%rbp), %rax
	movq	%rbp, %rdi
	call	*16(%rax)
	cmpb	$0, __libc_single_threaded(%rip)
	je	.L1319
	movl	12(%rbp), %eax
	leal	-1(%rax), %edx
	movl	%edx, 12(%rbp)
.L1320:
	cmpl	$1, %eax
	jne	.L1315
	movq	0(%rbp), %rax
	movq	%rbp, %rdi
	call	*24(%rax)
	jmp	.L1315
.L1472:
	cmpb	$0, __libc_single_threaded(%rip)
	je	.L1304
	movl	8(%rbp), %eax
	leal	-1(%rax), %edx
	movl	%edx, 8(%rbp)
.L1305:
	cmpl	$1, %eax
	jne	.L1303
	movq	0(%rbp), %rax
	movq	%rbp, %rdi
	call	*16(%rax)
	cmpb	$0, __libc_single_threaded(%rip)
	je	.L1307
	movl	12(%rbp), %eax
	leal	-1(%rax), %edx
	movl	%edx, 12(%rbp)
.L1308:
	cmpl	$1, %eax
	jne	.L1303
	movq	0(%rbp), %rax
	movq	%rbp, %rdi
	call	*24(%rax)
	jmp	.L1303
.L1325:
	lock addl	$1, 8(%rbp)
	jmp	.L1324
.L1313:
	lock addl	$1, 8(%rbp)
	jmp	.L1312
.L1328:
	movl	$-1, %eax
	lock xaddl	%eax, 8(%rbp)
	jmp	.L1329
.L1316:
	movl	$-1, %eax
	lock xaddl	%eax, 8(%rbp)
	jmp	.L1317
.L1301:
	lock addl	$1, 8(%rbp)
	jmp	.L1300
.L1304:
	movl	$-1, %eax
	lock xaddl	%eax, 8(%rbp)
	jmp	.L1305
.L1331:
	movl	$-1, %eax
	lock xaddl	%eax, 12(%rbp)
	jmp	.L1332
.L1319:
	movl	$-1, %eax
	lock xaddl	%eax, 12(%rbp)
	jmp	.L1320
.L1307:
	movl	$-1, %eax
	lock xaddl	%eax, 12(%rbp)
	jmp	.L1308
.L1447:
	call	__stack_chk_fail@PLT
.L1378:
	endbr64
	movq	%rax, %r12
	jmp	.L1333
.L1380:
	endbr64
	movq	%rax, %r12
	jmp	.L1333
.L1376:
	endbr64
	movq	%rax, %r12
	jmp	.L1333
.L1379:
	endbr64
	movq	%rax, %r12
	jmp	.L1333
.L1377:
	endbr64
	movq	%rax, %r12
	jmp	.L1333
.L1381:
	endbr64
	movq	%rax, %rbp
	jmp	.L1350
.L1375:
	endbr64
	movq	%rax, %r12
	jmp	.L1333
.L1374:
	endbr64
	movq	%rax, %r12
	jmp	.L1333
	.section	.gcc_except_table
.LLSDA11966:
	.byte	0xff
	.byte	0xff
	.byte	0x1
	.uleb128 .LLSDACSE11966-.LLSDACSB11966
.LLSDACSB11966:
	.uleb128 .LEHB29-.LFB11966
	.uleb128 .LEHE29-.LEHB29
	.uleb128 .L1374-.LFB11966
	.uleb128 0
	.uleb128 .LEHB30-.LFB11966
	.uleb128 .LEHE30-.LEHB30
	.uleb128 .L1375-.LFB11966
	.uleb128 0
	.uleb128 .LEHB31-.LFB11966
	.uleb128 .LEHE31-.LEHB31
	.uleb128 .L1376-.LFB11966
	.uleb128 0
	.uleb128 .LEHB32-.LFB11966
	.uleb128 .LEHE32-.LEHB32
	.uleb128 .L1377-.LFB11966
	.uleb128 0
	.uleb128 .LEHB33-.LFB11966
	.uleb128 .LEHE33-.LEHB33
	.uleb128 .L1381-.LFB11966
	.uleb128 0
	.uleb128 .LEHB34-.LFB11966
	.uleb128 .LEHE34-.LEHB34
	.uleb128 0
	.uleb128 0
	.uleb128 .LEHB35-.LFB11966
	.uleb128 .LEHE35-.LEHB35
	.uleb128 .L1378-.LFB11966
	.uleb128 0
	.uleb128 .LEHB36-.LFB11966
	.uleb128 .LEHE36-.LEHB36
	.uleb128 .L1379-.LFB11966
	.uleb128 0
	.uleb128 .LEHB37-.LFB11966
	.uleb128 .LEHE37-.LEHB37
	.uleb128 .L1380-.LFB11966
	.uleb128 0
.LLSDACSE11966:
	.text
	.cfi_endproc
	.section	.text.unlikely
	.cfi_startproc
	.cfi_personality 0x9b,DW.ref.__gxx_personality_v0
	.cfi_lsda 0x1b,.LLSDAC11966
	.type	_ZN6Engine20delete_dead_entitiesEv.cold, @function
_ZN6Engine20delete_dead_entitiesEv.cold:
.LFSB11966:
.L1333:
	.cfi_def_cfa_offset 112
	.cfi_offset 3, -56
	.cfi_offset 6, -48
	.cfi_offset 12, -40
	.cfi_offset 13, -32
	.cfi_offset 14, -24
	.cfi_offset 15, -16
	testq	%rbp, %rbp
	je	.L1334
	movq	%rbp, %rdi
	call	_ZNSt16_Sp_counted_baseILN9__gnu_cxx12_Lock_policyE2EE10_M_releaseEv
.L1334:
	movq	%r12, %rdi
.LEHB38:
	call	_Unwind_Resume@PLT
.L1350:
	movq	24(%rsp), %rdi
	testq	%rdi, %rdi
	je	.L1351
	call	_ZNSt16_Sp_counted_baseILN9__gnu_cxx12_Lock_policyE2EE10_M_releaseEv
.L1351:
	cmpq	$0, 8(%rsp)
	je	.L1353
	movq	8(%rsp), %rdi
	call	_ZNSt16_Sp_counted_baseILN9__gnu_cxx12_Lock_policyE2EE10_M_releaseEv
.L1353:
	movq	%rbp, %rdi
	call	_Unwind_Resume@PLT
.LEHE38:
	.cfi_endproc
.LFE11966:
	.section	.gcc_except_table
.LLSDAC11966:
	.byte	0xff
	.byte	0xff
	.byte	0x1
	.uleb128 .LLSDACSEC11966-.LLSDACSBC11966
.LLSDACSBC11966:
	.uleb128 .LEHB38-.LCOLDB14
	.uleb128 .LEHE38-.LEHB38
	.uleb128 0
	.uleb128 0
.LLSDACSEC11966:
	.section	.text.unlikely
	.text
	.size	_ZN6Engine20delete_dead_entitiesEv, .-_ZN6Engine20delete_dead_entitiesEv
	.section	.text.unlikely
	.size	_ZN6Engine20delete_dead_entitiesEv.cold, .-_ZN6Engine20delete_dead_entitiesEv.cold
.LCOLDE14:
	.text
.LHOTE14:
	.section	.rodata._ZNSt6vectorISt10shared_ptrI6EntityESaIS2_EE17_M_realloc_insertIJRKS2_EEEvN9__gnu_cxx17__normal_iteratorIPS2_S4_EEDpOT_.str1.1,"aMS",@progbits,1
.LC15:
	.string	"vector::_M_realloc_insert"
	.section	.text._ZNSt6vectorISt10shared_ptrI6EntityESaIS2_EE17_M_realloc_insertIJRKS2_EEEvN9__gnu_cxx17__normal_iteratorIPS2_S4_EEDpOT_,"axG",@progbits,_ZNSt6vectorISt10shared_ptrI6EntityESaIS2_EE17_M_realloc_insertIJRKS2_EEEvN9__gnu_cxx17__normal_iteratorIPS2_S4_EEDpOT_,comdat
	.align 2
	.p2align 4
	.weak	_ZNSt6vectorISt10shared_ptrI6EntityESaIS2_EE17_M_realloc_insertIJRKS2_EEEvN9__gnu_cxx17__normal_iteratorIPS2_S4_EEDpOT_
	.type	_ZNSt6vectorISt10shared_ptrI6EntityESaIS2_EE17_M_realloc_insertIJRKS2_EEEvN9__gnu_cxx17__normal_iteratorIPS2_S4_EEDpOT_, @function
_ZNSt6vectorISt10shared_ptrI6EntityESaIS2_EE17_M_realloc_insertIJRKS2_EEEvN9__gnu_cxx17__normal_iteratorIPS2_S4_EEDpOT_:
.LFB12837:
	.cfi_startproc
	endbr64
	pushq	%r15
	.cfi_def_cfa_offset 16
	.cfi_offset 15, -16
	movq	%rdx, %r15
	movabsq	$576460752303423487, %rdx
	pushq	%r14
	.cfi_def_cfa_offset 24
	.cfi_offset 14, -24
	pushq	%r13
	.cfi_def_cfa_offset 32
	.cfi_offset 13, -32
	pushq	%r12
	.cfi_def_cfa_offset 40
	.cfi_offset 12, -40
	pushq	%rbp
	.cfi_def_cfa_offset 48
	.cfi_offset 6, -48
	pushq	%rbx
	.cfi_def_cfa_offset 56
	.cfi_offset 3, -56
	subq	$24, %rsp
	.cfi_def_cfa_offset 80
	movq	8(%rdi), %r14
	movq	(%rdi), %rbp
	movq	%r14, %rax
	subq	%rbp, %rax
	sarq	$4, %rax
	cmpq	%rdx, %rax
	je	.L1503
	testq	%rax, %rax
	movl	$1, %edx
	movq	%rdi, %r13
	movq	%rsi, %rbx
	cmovne	%rax, %rdx
	xorl	%ecx, %ecx
	addq	%rdx, %rax
	movq	%rsi, %rdx
	setc	%cl
	subq	%rbp, %rdx
	testq	%rcx, %rcx
	jne	.L1491
	testq	%rax, %rax
	jne	.L1479
	movl	$16, %esi
	xorl	%r12d, %r12d
.L1489:
	movdqu	(%r15), %xmm3
	movups	%xmm3, (%rcx,%rdx)
	movq	8(%rcx,%rdx), %rax
	testq	%rax, %rax
	je	.L1480
	cmpb	$0, __libc_single_threaded(%rip)
	je	.L1481
	addl	$1, 8(%rax)
.L1480:
	cmpq	%rbp, %rbx
	je	.L1504
.L1485:
	leaq	-16(%rbx), %rsi
	xorl	%eax, %eax
	xorl	%edx, %edx
	subq	%rbp, %rsi
	shrq	$4, %rsi
	addq	$1, %rsi
	.p2align 4,,10
	.p2align 3
.L1482:
	movdqu	0(%rbp,%rax), %xmm1
	addq	$1, %rdx
	movups	%xmm1, (%rcx,%rax)
	addq	$16, %rax
	cmpq	%rdx, %rsi
	ja	.L1482
	movq	%rbx, %rax
	subq	%rbp, %rax
	leaq	16(%rcx,%rax), %rsi
	cmpq	%r14, %rbx
	je	.L1505
.L1483:
	movq	%r14, %rax
	xorl	%edx, %edx
	subq	%rbx, %rax
	leaq	-16(%rax), %rdi
	xorl	%eax, %eax
	shrq	$4, %rdi
	addq	$1, %rdi
	.p2align 4,,10
	.p2align 3
.L1487:
	movdqu	(%rbx,%rax), %xmm2
	addq	$1, %rdx
	movups	%xmm2, (%rsi,%rax)
	addq	$16, %rax
	cmpq	%rdx, %rdi
	ja	.L1487
	subq	%rbx, %r14
	addq	%r14, %rsi
.L1486:
	movq	%rcx, %xmm0
	movq	%rsi, %xmm4
	punpcklqdq	%xmm4, %xmm0
	testq	%rbp, %rbp
	jne	.L1490
.L1488:
	movq	%r12, 16(%r13)
	movups	%xmm0, 0(%r13)
	addq	$24, %rsp
	.cfi_remember_state
	.cfi_def_cfa_offset 56
	popq	%rbx
	.cfi_def_cfa_offset 48
	popq	%rbp
	.cfi_def_cfa_offset 40
	popq	%r12
	.cfi_def_cfa_offset 32
	popq	%r13
	.cfi_def_cfa_offset 24
	popq	%r14
	.cfi_def_cfa_offset 16
	popq	%r15
	.cfi_def_cfa_offset 8
	ret
	.p2align 4,,10
	.p2align 3
.L1505:
	.cfi_restore_state
	movq	%rcx, %xmm0
	movq	%rsi, %xmm5
	punpcklqdq	%xmm5, %xmm0
	.p2align 4,,10
	.p2align 3
.L1490:
	movq	16(%r13), %rsi
	movq	%rbp, %rdi
	movaps	%xmm0, (%rsp)
	subq	%rbp, %rsi
	call	_ZdlPvm@PLT
	movdqa	(%rsp), %xmm0
	jmp	.L1488
	.p2align 4,,10
	.p2align 3
.L1481:
	lock addl	$1, 8(%rax)
	cmpq	%rbp, %rbx
	jne	.L1485
.L1504:
	cmpq	%r14, %rbx
	jne	.L1483
	jmp	.L1486
	.p2align 4,,10
	.p2align 3
.L1491:
	movabsq	$9223372036854775792, %r12
.L1478:
	movq	%r12, %rdi
	movq	%rdx, (%rsp)
	call	_Znwm@PLT
	movq	(%rsp), %rdx
	movq	%rax, %rcx
	addq	%rax, %r12
	leaq	16(%rax), %rsi
	jmp	.L1489
.L1479:
	movabsq	$576460752303423487, %rcx
	cmpq	%rcx, %rax
	cmova	%rcx, %rax
	salq	$4, %rax
	movq	%rax, %r12
	jmp	.L1478
.L1503:
	leaq	.LC15(%rip), %rdi
	call	_ZSt20__throw_length_errorPKc@PLT
	.cfi_endproc
.LFE12837:
	.size	_ZNSt6vectorISt10shared_ptrI6EntityESaIS2_EE17_M_realloc_insertIJRKS2_EEEvN9__gnu_cxx17__normal_iteratorIPS2_S4_EEDpOT_, .-_ZNSt6vectorISt10shared_ptrI6EntityESaIS2_EE17_M_realloc_insertIJRKS2_EEEvN9__gnu_cxx17__normal_iteratorIPS2_S4_EEDpOT_
	.section	.text.unlikely
	.align 2
.LCOLDB16:
	.text
.LHOTB16:
	.align 2
	.p2align 4
	.globl	_ZN6Engine20process_new_entitiesEv
	.type	_ZN6Engine20process_new_entitiesEv, @function
_ZN6Engine20process_new_entitiesEv:
.LFB11985:
	.cfi_startproc
	.cfi_personality 0x9b,DW.ref.__gxx_personality_v0
	.cfi_lsda 0x1b,.LLSDA11985
	endbr64
	pushq	%r14
	.cfi_def_cfa_offset 16
	.cfi_offset 14, -16
	pushq	%r13
	.cfi_def_cfa_offset 24
	.cfi_offset 13, -24
	pushq	%r12
	.cfi_def_cfa_offset 32
	.cfi_offset 12, -32
	movq	%rdi, %r12
	pushq	%rbp
	.cfi_def_cfa_offset 40
	.cfi_offset 6, -40
	pushq	%rbx
	.cfi_def_cfa_offset 48
	.cfi_offset 3, -48
	subq	$32, %rsp
	.cfi_def_cfa_offset 80
	movq	(%rdi), %rsi
	movq	%fs:40, %rax
	movq	%rax, 24(%rsp)
	xorl	%eax, %eax
	movq	%rsp, %r14
	movq	%r14, %rdi
.LEHB39:
	call	_ZN4Game16get_new_entitiesEv@PLT
.LEHE39:
	movq	(%rsp), %rbx
	movq	8(%rsp), %rbp
	cmpq	%rbp, %rbx
	je	.L1507
	leaq	160(%r12), %r13
	jmp	.L1512
	.p2align 4,,10
	.p2align 3
.L1535:
	movdqu	(%rbx), %xmm0
	movq	8(%rbx), %rax
	movups	%xmm0, (%rsi)
	testq	%rax, %rax
	je	.L1509
	cmpb	$0, __libc_single_threaded(%rip)
	je	.L1510
	addl	$1, 8(%rax)
.L1509:
	addq	$16, %rsi
	addq	$16, %rbx
	movq	%rsi, 168(%r12)
	cmpq	%rbx, %rbp
	je	.L1534
.L1512:
	movq	168(%r12), %rsi
	movq	(%rbx), %rdi
	subq	160(%r12), %rsi
	sarq	$4, %rsi
.LEHB40:
	call	_ZN6Entity13set_entity_idEi@PLT
	movq	168(%r12), %rsi
	cmpq	176(%r12), %rsi
	jne	.L1535
	movq	%rbx, %rdx
	movq	%r13, %rdi
	call	_ZNSt6vectorISt10shared_ptrI6EntityESaIS2_EE17_M_realloc_insertIJRKS2_EEEvN9__gnu_cxx17__normal_iteratorIPS2_S4_EEDpOT_
.LEHE40:
	addq	$16, %rbx
	cmpq	%rbx, %rbp
	jne	.L1512
.L1534:
	movq	8(%rsp), %rbx
	movq	(%rsp), %rbp
	cmpq	%rbp, %rbx
	jne	.L1520
	jmp	.L1507
	.p2align 4,,10
	.p2align 3
.L1514:
	addq	$16, %rbp
	cmpq	%rbp, %rbx
	je	.L1536
.L1520:
	movq	8(%rbp), %r12
	testq	%r12, %r12
	je	.L1514
	cmpb	$0, __libc_single_threaded(%rip)
	je	.L1515
	movl	8(%r12), %eax
	leal	-1(%rax), %edx
	movl	%edx, 8(%r12)
.L1516:
	cmpl	$1, %eax
	jne	.L1514
	movq	(%r12), %rax
	movq	%r12, %rdi
	call	*16(%rax)
	cmpb	$0, __libc_single_threaded(%rip)
	je	.L1518
	movl	12(%r12), %eax
	leal	-1(%rax), %edx
	movl	%edx, 12(%r12)
.L1519:
	cmpl	$1, %eax
	jne	.L1514
	movq	(%r12), %rax
	addq	$16, %rbp
	movq	%r12, %rdi
	call	*24(%rax)
	cmpq	%rbp, %rbx
	jne	.L1520
	.p2align 4,,10
	.p2align 3
.L1536:
	movq	(%rsp), %rbp
.L1507:
	testq	%rbp, %rbp
	je	.L1506
	movq	16(%rsp), %rsi
	movq	%rbp, %rdi
	subq	%rbp, %rsi
	call	_ZdlPvm@PLT
.L1506:
	movq	24(%rsp), %rax
	subq	%fs:40, %rax
	jne	.L1537
	addq	$32, %rsp
	.cfi_remember_state
	.cfi_def_cfa_offset 48
	popq	%rbx
	.cfi_def_cfa_offset 40
	popq	%rbp
	.cfi_def_cfa_offset 32
	popq	%r12
	.cfi_def_cfa_offset 24
	popq	%r13
	.cfi_def_cfa_offset 16
	popq	%r14
	.cfi_def_cfa_offset 8
	ret
	.p2align 4,,10
	.p2align 3
.L1510:
	.cfi_restore_state
	lock addl	$1, 8(%rax)
	movq	168(%r12), %rsi
	jmp	.L1509
	.p2align 4,,10
	.p2align 3
.L1515:
	movl	$-1, %eax
	lock xaddl	%eax, 8(%r12)
	jmp	.L1516
	.p2align 4,,10
	.p2align 3
.L1518:
	movl	$-1, %eax
	lock xaddl	%eax, 12(%r12)
	jmp	.L1519
.L1537:
	call	__stack_chk_fail@PLT
.L1524:
	endbr64
	movq	%rax, %rbp
	jmp	.L1522
	.section	.gcc_except_table
.LLSDA11985:
	.byte	0xff
	.byte	0xff
	.byte	0x1
	.uleb128 .LLSDACSE11985-.LLSDACSB11985
.LLSDACSB11985:
	.uleb128 .LEHB39-.LFB11985
	.uleb128 .LEHE39-.LEHB39
	.uleb128 0
	.uleb128 0
	.uleb128 .LEHB40-.LFB11985
	.uleb128 .LEHE40-.LEHB40
	.uleb128 .L1524-.LFB11985
	.uleb128 0
.LLSDACSE11985:
	.text
	.cfi_endproc
	.section	.text.unlikely
	.cfi_startproc
	.cfi_personality 0x9b,DW.ref.__gxx_personality_v0
	.cfi_lsda 0x1b,.LLSDAC11985
	.type	_ZN6Engine20process_new_entitiesEv.cold, @function
_ZN6Engine20process_new_entitiesEv.cold:
.LFSB11985:
.L1522:
	.cfi_def_cfa_offset 80
	.cfi_offset 3, -48
	.cfi_offset 6, -40
	.cfi_offset 12, -32
	.cfi_offset 13, -24
	.cfi_offset 14, -16
	movq	%r14, %rdi
	call	_ZNSt6vectorISt10shared_ptrI6EntityESaIS2_EED1Ev
	movq	%rbp, %rdi
.LEHB41:
	call	_Unwind_Resume@PLT
.LEHE41:
	.cfi_endproc
.LFE11985:
	.section	.gcc_except_table
.LLSDAC11985:
	.byte	0xff
	.byte	0xff
	.byte	0x1
	.uleb128 .LLSDACSEC11985-.LLSDACSBC11985
.LLSDACSBC11985:
	.uleb128 .LEHB41-.LCOLDB16
	.uleb128 .LEHE41-.LEHB41
	.uleb128 0
	.uleb128 0
.LLSDACSEC11985:
	.section	.text.unlikely
	.text
	.size	_ZN6Engine20process_new_entitiesEv, .-_ZN6Engine20process_new_entitiesEv
	.section	.text.unlikely
	.size	_ZN6Engine20process_new_entitiesEv.cold, .-_ZN6Engine20process_new_entitiesEv.cold
.LCOLDE16:
	.text
.LHOTE16:
	.section	.rodata.str1.1,"aMS",@progbits,1
.LC17:
	.string	"Elapsed: "
.LC18:
	.string	"ms\n"
	.section	.text.unlikely
	.align 2
.LCOLDB19:
	.text
.LHOTB19:
	.align 2
	.p2align 4
	.globl	_ZN6Engine5startEv
	.type	_ZN6Engine5startEv, @function
_ZN6Engine5startEv:
.LFB12057:
	.cfi_startproc
	.cfi_personality 0x9b,DW.ref.__gxx_personality_v0
	.cfi_lsda 0x1b,.LLSDA12057
	endbr64
	pushq	%r15
	.cfi_def_cfa_offset 16
	.cfi_offset 15, -16
	pushq	%r14
	.cfi_def_cfa_offset 24
	.cfi_offset 14, -24
	pushq	%r13
	.cfi_def_cfa_offset 32
	.cfi_offset 13, -32
	pushq	%r12
	.cfi_def_cfa_offset 40
	.cfi_offset 12, -40
	pushq	%rbp
	.cfi_def_cfa_offset 48
	.cfi_offset 6, -48
	pushq	%rbx
	.cfi_def_cfa_offset 56
	.cfi_offset 3, -56
	movq	%rdi, %rbx
	subq	$152, %rsp
	.cfi_def_cfa_offset 208
	movq	(%rdi), %rsi
	movq	%rdi, 56(%rsp)
	movq	%fs:40, %rax
	movq	%rax, 136(%rsp)
	xorl	%eax, %eax
	leaq	112(%rsp), %rax
	movq	%rax, 8(%rsp)
	movq	%rax, %rdi
	movq	(%rsi), %rax
.LEHB42:
	call	*(%rax)
	movdqa	112(%rsp), %xmm0
	movq	24(%rbx), %rbp
	pxor	%xmm1, %xmm1
	movaps	%xmm1, 112(%rsp)
	movups	%xmm0, 16(%rbx)
	testq	%rbp, %rbp
	je	.L1540
	cmpb	$0, __libc_single_threaded(%rip)
	je	.L1541
	movl	8(%rbp), %eax
	leal	-1(%rax), %edx
	movl	%edx, 8(%rbp)
	cmpl	$1, %eax
	jne	.L1540
.L1545:
	movq	0(%rbp), %rax
	movq	%rbp, %rdi
	call	*16(%rax)
	cmpb	$0, __libc_single_threaded(%rip)
	je	.L1884
	movl	12(%rbp), %eax
	leal	-1(%rax), %edx
	movl	%edx, 12(%rbp)
.L1547:
	cmpl	$1, %eax
	jne	.L1546
	movq	0(%rbp), %rax
	movq	%rbp, %rdi
	call	*24(%rax)
	jmp	.L1546
.L1541:
	lock subl	$1, 8(%rbp)
	je	.L1545
.L1546:
	movq	120(%rsp), %rbp
	testq	%rbp, %rbp
	je	.L1540
	cmpb	$0, __libc_single_threaded(%rip)
	je	.L1549
	movl	8(%rbp), %eax
	leal	-1(%rax), %edx
	movl	%edx, 8(%rbp)
.L1550:
	cmpl	$1, %eax
	jne	.L1540
	movq	0(%rbp), %rax
	movq	%rbp, %rdi
	call	*16(%rax)
	cmpb	$0, __libc_single_threaded(%rip)
	je	.L1551
	movl	12(%rbp), %eax
	leal	-1(%rax), %edx
	movl	%edx, 12(%rbp)
.L1552:
	cmpl	$1, %eax
	jne	.L1540
	movq	0(%rbp), %rax
	movq	%rbp, %rdi
	call	*24(%rax)
.L1540:
	movq	56(%rsp), %rbx
	movq	(%rbx), %rdi
	movq	%rbx, %rsi
	movq	(%rdi), %rax
	call	*40(%rax)
	leaq	112(%rbx), %rax
	movq	%rax, 88(%rsp)
	.p2align 4,,10
	.p2align 3
.L1780:
	call	_ZNSt6chrono3_V212steady_clock3nowEv@PLT
	movq	%rax, 80(%rsp)
	call	_ZNSt6chrono3_V212steady_clock3nowEv@PLT
	movq	56(%rsp), %rbx
	movq	%rax, %rcx
	movq	136(%rbx), %rdi
	subq	120(%rbx), %rcx
	movq	%rax, 120(%rbx)
	movq	%rcx, %xmm0
	punpcklqdq	%xmm0, %xmm0
	testq	%rdi, %rdi
	je	.L1553
	movq	144(%rbx), %rsi
	leaq	0(,%rdi,4), %rax
	xorl	%edx, %edx
	divq	%rsi
	cmpq	%rax, %rcx
	jbe	.L1554
	movq	%rdi, %rax
	xorl	%edx, %edx
	divq	%rsi
	movq	%rax, 128(%rbx)
	movq	%rax, %rcx
.L1555:
	pxor	%xmm0, %xmm0
	cvtsi2sdq	%rcx, %xmm0
	testq	%rcx, %rcx
	jns	.L1558
	movq	%rcx, %rax
	andl	$1, %ecx
	pxor	%xmm0, %xmm0
	shrq	%rax
	orq	%rcx, %rax
	cvtsi2sdq	%rax, %xmm0
	addsd	%xmm0, %xmm0
.L1558:
	movq	56(%rsp), %rbx
	mulsd	.LC3(%rip), %xmm0
	movq	(%rbx), %rdi
	movq	%rbx, %rsi
	movq	(%rdi), %rax
	movsd	%xmm0, 152(%rbx)
	call	*8(%rax)
	movq	%rbx, %rdi
	call	_ZN6Engine14process_eventsEv
	movq	88(%rsp), %r15
	movq	%rbx, %rsi
	movb	%al, 79(%rsp)
	movq	%r15, %rdi
	call	_ZN14Physics_engine11pre_physicsER6Engine@PLT
	movq	16(%rbx), %rdi
	movq	%rbx, %rsi
	movq	(%rdi), %rax
	call	*(%rax)
	movq	%r15, %rdi
	movq	%rbx, %rsi
	call	_ZN14Physics_engine16update_positionsER6Engine@PLT
	movq	%r15, %rdi
	movq	%rbx, %rsi
	call	_ZN14Physics_engine18compute_collisionsER6Engine@PLT
	movq	%rbx, %rsi
	movq	%r15, %rdi
	call	_ZN14Physics_engine12post_physicsER6Engine@PLT
	movq	%rbx, %rdi
	call	_ZN6Engine20process_new_entitiesEv
	movq	160(%rbx), %rcx
	movq	168(%rbx), %rsi
	movq	%rcx, 40(%rsp)
	movq	%rcx, %r15
	movq	%rsi, 48(%rsp)
	cmpq	%rcx, %rsi
	je	.L1559
	movq	%rsi, %rbx
	movl	$63, %edx
	movq	%rcx, %rdi
	subq	%rcx, %rbx
	movq	%rbx, %rax
	sarq	$4, %rax
	bsrq	%rax, %rax
	xorq	$63, %rax
	subl	%eax, %edx
	movslq	%edx, %rdx
	addq	%rdx, %rdx
	call	_ZSt16__introsort_loopIN9__gnu_cxx17__normal_iteratorIPSt10shared_ptrI6EntityESt6vectorIS4_SaIS4_EEEElNS0_5__ops15_Iter_comp_iterIZN6Engine16sort_by_z_bufferEvEUlS4_S4_E_EEEvT_SF_T0_T1_
.LEHE42:
	movq	%r15, %rcx
	leaq	16(%r15), %rax
	cmpq	$256, %rbx
	jle	.L1560
	addq	$256, %rcx
	movq	%rax, 32(%rsp)
	leaq	100(%rsp), %r15
	movq	%rcx, 64(%rsp)
	.p2align 4,,10
	.p2align 3
.L1645:
	movq	40(%rsp), %rax
	movq	32(%rsp), %rbx
	movq	8(%rax), %r13
	movq	(%rax), %rbp
	testq	%r13, %r13
	je	.L1561
	cmpb	$0, __libc_single_threaded(%rip)
	je	.L1562
	addl	$1, 8(%r13)
.L1561:
	movq	32(%rsp), %rax
	movq	8(%rax), %r14
	movq	(%rax), %r12
	testq	%r14, %r14
	je	.L1563
	cmpb	$0, __libc_single_threaded(%rip)
	je	.L1564
	addl	$1, 8(%r14)
.L1563:
	movq	%r12, %rsi
	movq	%r15, %rdi
.LEHB43:
	call	_ZNK6Entity14get_position3DEv@PLT
	movss	108(%rsp), %xmm7
	movq	8(%rsp), %rdi
	movq	%rbp, %rsi
	movss	%xmm7, 16(%rsp)
	call	_ZNK6Entity14get_position3DEv@PLT
	movss	16(%rsp), %xmm7
	comiss	120(%rsp), %xmm7
	jbe	.L1567
	movq	%r12, %rdi
	call	_ZNK6Entity10is_deletedEv@PLT
	testb	%al, %al
	jne	.L1567
	movl	$1, %ebp
.L1566:
	testq	%r14, %r14
	je	.L1569
	cmpb	$0, __libc_single_threaded(%rip)
	je	.L1570
	movl	8(%r14), %eax
	leal	-1(%rax), %edx
	movl	%edx, 8(%r14)
.L1571:
	cmpl	$1, %eax
	je	.L1885
.L1569:
	testq	%r13, %r13
	je	.L1576
	cmpb	$0, __libc_single_threaded(%rip)
	je	.L1577
	movl	8(%r13), %eax
	leal	-1(%rax), %edx
	movl	%edx, 8(%r13)
.L1578:
	cmpl	$1, %eax
	je	.L1886
.L1576:
	movq	32(%rsp), %rax
	movq	(%rax), %r14
	movq	8(%rax), %r12
	testb	%bpl, %bpl
	je	.L1887
	pxor	%xmm0, %xmm0
	movq	%r12, %xmm6
	movq	%r14, %xmm5
	movups	%xmm0, (%rax)
	subq	40(%rsp), %rax
	punpcklqdq	%xmm6, %xmm5
	movdqa	%xmm0, %xmm1
	movq	%rax, %r12
	movaps	%xmm5, 16(%rsp)
	sarq	$4, %r12
	testq	%rax, %rax
	jg	.L1587
	jmp	.L1597
	.p2align 4,,10
	.p2align 3
.L1591:
	subq	$1, %r12
	je	.L1597
.L1587:
	movdqu	-16(%rbx), %xmm0
	movq	8(%rbx), %rbp
	subq	$16, %rbx
	movups	%xmm1, (%rbx)
	movups	%xmm0, 16(%rbx)
	testq	%rbp, %rbp
	je	.L1591
	cmpb	$0, __libc_single_threaded(%rip)
	je	.L1592
	movl	8(%rbp), %eax
	leal	-1(%rax), %edx
	movl	%edx, 8(%rbp)
.L1593:
	cmpl	$1, %eax
	jne	.L1591
	movq	0(%rbp), %rax
	movq	%rbp, %rdi
	call	*16(%rax)
	cmpb	$0, __libc_single_threaded(%rip)
	pxor	%xmm1, %xmm1
	je	.L1595
	movl	12(%rbp), %eax
	leal	-1(%rax), %edx
	movl	%edx, 12(%rbp)
.L1596:
	cmpl	$1, %eax
	jne	.L1591
	movq	0(%rbp), %rax
	movq	%rbp, %rdi
	call	*24(%rax)
	pxor	%xmm1, %xmm1
	subq	$1, %r12
	jne	.L1587
	.p2align 4,,10
	.p2align 3
.L1597:
	movq	40(%rsp), %rax
	movdqa	16(%rsp), %xmm6
	movq	8(%rax), %rbp
	movups	%xmm6, (%rax)
	testq	%rbp, %rbp
	je	.L1589
	cmpb	$0, __libc_single_threaded(%rip)
	jne	.L1888
.L1640:
	movl	$-1, %eax
	lock xaddl	%eax, 8(%rbp)
	cmpl	$1, %eax
	jne	.L1589
.L1895:
	movq	0(%rbp), %rax
	movq	%rbp, %rdi
	call	*16(%rax)
	cmpb	$0, __libc_single_threaded(%rip)
	je	.L1643
	movl	12(%rbp), %eax
	leal	-1(%rax), %edx
	movl	%edx, 12(%rbp)
.L1644:
	cmpl	$1, %eax
	jne	.L1589
	movq	0(%rbp), %rax
	movq	%rbp, %rdi
	call	*24(%rax)
	jmp	.L1589
	.p2align 4,,10
	.p2align 3
.L1567:
	movq	%rbp, %rdi
	call	_ZNK6Entity10is_deletedEv@PLT
.LEHE43:
	movl	%eax, %ebp
	jmp	.L1566
	.p2align 4,,10
	.p2align 3
.L1592:
	movl	$-1, %eax
	lock xaddl	%eax, 8(%rbp)
	jmp	.L1593
	.p2align 4,,10
	.p2align 3
.L1898:
	movq	8(%rbx), %rbp
	movq	%r14, %xmm0
	movq	%r12, %xmm7
	punpcklqdq	%xmm7, %xmm0
	movups	%xmm0, (%rbx)
	testq	%rbp, %rbp
	je	.L1685
	cmpb	$0, __libc_single_threaded(%rip)
	je	.L1686
	movl	8(%rbp), %eax
	leal	-1(%rax), %edx
	movl	%edx, 8(%rbp)
.L1687:
	cmpl	$1, %eax
	je	.L1889
.L1685:
	addq	$16, 32(%rsp)
	movq	32(%rsp), %rax
	cmpq	%rax, 48(%rsp)
	jne	.L1691
.L1559:
	movq	56(%rsp), %r15
	leaq	_ZSt4cout(%rip), %rbp
	movq	%r15, %rdi
.LEHB44:
	call	_ZN6Engine20delete_dead_entitiesEv
	movq	(%r15), %rdi
	movq	%r15, %rsi
	movq	(%rdi), %rax
	call	*16(%rax)
	call	_ZNSt6chrono3_V212steady_clock3nowEv@PLT
	movl	$9, %edx
	leaq	.LC17(%rip), %rsi
	movq	%rbp, %rdi
	movq	%rax, %rbx
	call	_ZSt16__ostream_insertIcSt11char_traitsIcEERSt13basic_ostreamIT_T0_ES6_PKS3_l@PLT
	movq	%rbp, %rdi
	movq	%rbx, %rsi
	subq	80(%rsp), %rsi
	call	_ZNSo9_M_insertIlEERSoT_@PLT
	movl	$3, %edx
	leaq	.LC18(%rip), %rsi
	movq	%rax, %rdi
	call	_ZSt16__ostream_insertIcSt11char_traitsIcEERSt13basic_ostreamIT_T0_ES6_PKS3_l@PLT
	movq	16(%r15), %rdx
	leaq	160(%r15), %rsi
	leaq	32(%r15), %rdi
	call	_ZN9Render_2D4drawERSt6vectorISt10shared_ptrI6EntityESaIS3_EER8Camera2D@PLT
	cmpb	$0, 79(%rsp)
	je	.L1780
	movq	56(%rsp), %rsi
	movq	(%rsi), %rdi
	movq	(%rdi), %rax
	call	*48(%rax)
	movq	136(%rsp), %rax
	subq	%fs:40, %rax
	jne	.L1890
	addq	$152, %rsp
	.cfi_remember_state
	.cfi_def_cfa_offset 56
	popq	%rbx
	.cfi_def_cfa_offset 48
	popq	%rbp
	.cfi_def_cfa_offset 40
	popq	%r12
	.cfi_def_cfa_offset 32
	popq	%r13
	.cfi_def_cfa_offset 24
	popq	%r14
	.cfi_def_cfa_offset 16
	popq	%r15
	.cfi_def_cfa_offset 8
	jmp	SDL_Quit@PLT
.LEHE44:
	.p2align 4,,10
	.p2align 3
.L1887:
	.cfi_restore_state
	pxor	%xmm0, %xmm0
	movq	%rax, %rbx
	movups	%xmm0, (%rax)
	jmp	.L1602
	.p2align 4,,10
	.p2align 3
.L1614:
	movq	%r14, %rdi
.LEHB45:
	call	_ZNK6Entity10is_deletedEv@PLT
	testb	%al, %al
	jne	.L1616
	movl	$1, %r13d
.L1615:
	testq	%r12, %r12
	je	.L1618
	cmpb	$0, __libc_single_threaded(%rip)
	je	.L1619
	movl	8(%r12), %eax
	leal	-1(%rax), %edx
	movl	%edx, 8(%r12)
.L1620:
	cmpl	$1, %eax
	je	.L1891
.L1618:
	testq	%rbp, %rbp
	je	.L1625
	cmpb	$0, __libc_single_threaded(%rip)
	je	.L1626
	movl	8(%rbp), %eax
	leal	-1(%rax), %edx
	movl	%edx, 8(%rbp)
.L1627:
	cmpl	$1, %eax
	je	.L1892
.L1625:
	testb	%r13b, %r13b
	je	.L1893
.L1631:
	movdqu	-16(%rbx), %xmm0
	movq	8(%rbx), %rbp
	pxor	%xmm1, %xmm1
	movups	%xmm1, -16(%rbx)
	movups	%xmm0, (%rbx)
	testq	%rbp, %rbp
	je	.L1604
	cmpb	$0, __libc_single_threaded(%rip)
	je	.L1605
	movl	8(%rbp), %eax
	leal	-1(%rax), %edx
	movl	%edx, 8(%rbp)
.L1606:
	cmpl	$1, %eax
	je	.L1894
.L1604:
	subq	$16, %rbx
.L1602:
	movq	-8(%rbx), %rbp
	movq	-16(%rbx), %r13
	testq	%rbp, %rbp
	je	.L1610
	cmpb	$0, __libc_single_threaded(%rip)
	je	.L1611
	addl	$1, 8(%rbp)
.L1610:
	testq	%r12, %r12
	je	.L1612
	cmpb	$0, __libc_single_threaded(%rip)
	je	.L1613
	addl	$1, 8(%r12)
.L1612:
	movq	%r14, %rsi
	movq	%r15, %rdi
	call	_ZNK6Entity14get_position3DEv@PLT
	movss	108(%rsp), %xmm3
	movq	8(%rsp), %rdi
	movq	%r13, %rsi
	movss	%xmm3, 16(%rsp)
	call	_ZNK6Entity14get_position3DEv@PLT
	movss	16(%rsp), %xmm3
	comiss	120(%rsp), %xmm3
	ja	.L1614
.L1616:
	movq	%r13, %rdi
	call	_ZNK6Entity10is_deletedEv@PLT
.LEHE45:
	movl	%eax, %r13d
	jmp	.L1615
	.p2align 4,,10
	.p2align 3
.L1613:
	lock addl	$1, 8(%r12)
	jmp	.L1612
	.p2align 4,,10
	.p2align 3
.L1611:
	lock addl	$1, 8(%rbp)
	jmp	.L1610
	.p2align 4,,10
	.p2align 3
.L1891:
	movq	(%r12), %rax
	movq	%r12, %rdi
	call	*16(%rax)
	cmpb	$0, __libc_single_threaded(%rip)
	je	.L1622
	movl	12(%r12), %eax
	leal	-1(%rax), %edx
	movl	%edx, 12(%r12)
.L1623:
	cmpl	$1, %eax
	jne	.L1618
	movq	(%r12), %rax
	movq	%r12, %rdi
	call	*24(%rax)
	jmp	.L1618
	.p2align 4,,10
	.p2align 3
.L1892:
	movq	0(%rbp), %rax
	movq	%rbp, %rdi
	call	*16(%rax)
	cmpb	$0, __libc_single_threaded(%rip)
	je	.L1629
	movl	12(%rbp), %eax
	leal	-1(%rax), %edx
	movl	%edx, 12(%rbp)
.L1630:
	cmpl	$1, %eax
	jne	.L1625
	movq	0(%rbp), %rax
	movq	%rbp, %rdi
	call	*24(%rax)
	testb	%r13b, %r13b
	jne	.L1631
	.p2align 4,,10
	.p2align 3
.L1893:
	movq	8(%rbx), %rbp
	movq	%r14, %xmm0
	movq	%r12, %xmm6
	punpcklqdq	%xmm6, %xmm0
	movups	%xmm0, (%rbx)
	testq	%rbp, %rbp
	je	.L1589
	cmpb	$0, __libc_single_threaded(%rip)
	je	.L1640
.L1888:
	movl	8(%rbp), %eax
	leal	-1(%rax), %edx
	movl	%edx, 8(%rbp)
	cmpl	$1, %eax
	je	.L1895
.L1589:
	addq	$16, 32(%rsp)
	movq	32(%rsp), %rax
	cmpq	%rax, 64(%rsp)
	jne	.L1645
	movq	64(%rsp), %rax
	movq	%rax, 32(%rsp)
	cmpq	%rax, 48(%rsp)
	je	.L1559
	.p2align 4,,10
	.p2align 3
.L1691:
	movq	32(%rsp), %rax
	pxor	%xmm0, %xmm0
	movq	(%rax), %r14
	movq	8(%rax), %r12
	movq	%rax, %rbx
	movups	%xmm0, (%rax)
	jmp	.L1648
	.p2align 4,,10
	.p2align 3
.L1660:
	movq	%r14, %rdi
.LEHB46:
	call	_ZNK6Entity10is_deletedEv@PLT
	testb	%al, %al
	jne	.L1662
	movl	$1, %r13d
.L1661:
	testq	%r12, %r12
	je	.L1664
	cmpb	$0, __libc_single_threaded(%rip)
	je	.L1665
	movl	8(%r12), %eax
	leal	-1(%rax), %edx
	movl	%edx, 8(%r12)
.L1666:
	cmpl	$1, %eax
	je	.L1896
.L1664:
	testq	%rbp, %rbp
	je	.L1671
	cmpb	$0, __libc_single_threaded(%rip)
	je	.L1672
	movl	8(%rbp), %eax
	leal	-1(%rax), %edx
	movl	%edx, 8(%rbp)
.L1673:
	cmpl	$1, %eax
	je	.L1897
.L1671:
	testb	%r13b, %r13b
	je	.L1898
	movdqu	-16(%rbx), %xmm0
	movq	8(%rbx), %rbp
	pxor	%xmm1, %xmm1
	movups	%xmm1, -16(%rbx)
	movups	%xmm0, (%rbx)
	testq	%rbp, %rbp
	je	.L1650
	cmpb	$0, __libc_single_threaded(%rip)
	je	.L1651
	movl	8(%rbp), %eax
	leal	-1(%rax), %edx
	movl	%edx, 8(%rbp)
.L1652:
	cmpl	$1, %eax
	je	.L1899
.L1650:
	subq	$16, %rbx
.L1648:
	movq	-8(%rbx), %rbp
	movq	-16(%rbx), %r13
	testq	%rbp, %rbp
	je	.L1656
	cmpb	$0, __libc_single_threaded(%rip)
	je	.L1657
	addl	$1, 8(%rbp)
.L1656:
	testq	%r12, %r12
	je	.L1658
	cmpb	$0, __libc_single_threaded(%rip)
	je	.L1659
	addl	$1, 8(%r12)
.L1658:
	movq	%r14, %rsi
	movq	%r15, %rdi
	call	_ZNK6Entity14get_position3DEv@PLT
	movss	108(%rsp), %xmm2
	movq	8(%rsp), %rdi
	movq	%r13, %rsi
	movss	%xmm2, 16(%rsp)
	call	_ZNK6Entity14get_position3DEv@PLT
	movss	16(%rsp), %xmm2
	comiss	120(%rsp), %xmm2
	ja	.L1660
.L1662:
	movq	%r13, %rdi
	call	_ZNK6Entity10is_deletedEv@PLT
.LEHE46:
	movl	%eax, %r13d
	jmp	.L1661
	.p2align 4,,10
	.p2align 3
.L1626:
	movl	$-1, %eax
	lock xaddl	%eax, 8(%rbp)
	jmp	.L1627
	.p2align 4,,10
	.p2align 3
.L1619:
	movl	$-1, %eax
	lock xaddl	%eax, 8(%r12)
	jmp	.L1620
	.p2align 4,,10
	.p2align 3
.L1894:
	movq	0(%rbp), %rax
	movq	%rbp, %rdi
	call	*16(%rax)
	cmpb	$0, __libc_single_threaded(%rip)
	je	.L1608
	movl	12(%rbp), %eax
	leal	-1(%rax), %edx
	movl	%edx, 12(%rbp)
.L1609:
	cmpl	$1, %eax
	jne	.L1604
	movq	0(%rbp), %rax
	movq	%rbp, %rdi
	call	*24(%rax)
	jmp	.L1604
	.p2align 4,,10
	.p2align 3
.L1605:
	movl	$-1, %eax
	lock xaddl	%eax, 8(%rbp)
	jmp	.L1606
	.p2align 4,,10
	.p2align 3
.L1657:
	lock addl	$1, 8(%rbp)
	jmp	.L1656
	.p2align 4,,10
	.p2align 3
.L1659:
	lock addl	$1, 8(%r12)
	jmp	.L1658
	.p2align 4,,10
	.p2align 3
.L1896:
	movq	(%r12), %rax
	movq	%r12, %rdi
	call	*16(%rax)
	cmpb	$0, __libc_single_threaded(%rip)
	je	.L1668
	movl	12(%r12), %eax
	leal	-1(%rax), %edx
	movl	%edx, 12(%r12)
.L1669:
	cmpl	$1, %eax
	jne	.L1664
	movq	(%r12), %rax
	movq	%r12, %rdi
	call	*24(%rax)
	jmp	.L1664
	.p2align 4,,10
	.p2align 3
.L1897:
	movq	0(%rbp), %rax
	movq	%rbp, %rdi
	call	*16(%rax)
	cmpb	$0, __libc_single_threaded(%rip)
	je	.L1675
	movl	12(%rbp), %eax
	leal	-1(%rax), %edx
	movl	%edx, 12(%rbp)
.L1676:
	cmpl	$1, %eax
	jne	.L1671
	movq	0(%rbp), %rax
	movq	%rbp, %rdi
	call	*24(%rax)
	jmp	.L1671
	.p2align 4,,10
	.p2align 3
.L1665:
	movl	$-1, %eax
	lock xaddl	%eax, 8(%r12)
	jmp	.L1666
	.p2align 4,,10
	.p2align 3
.L1672:
	movl	$-1, %eax
	lock xaddl	%eax, 8(%rbp)
	jmp	.L1673
	.p2align 4,,10
	.p2align 3
.L1899:
	movq	0(%rbp), %rax
	movq	%rbp, %rdi
	call	*16(%rax)
	cmpb	$0, __libc_single_threaded(%rip)
	je	.L1654
	movl	12(%rbp), %eax
	leal	-1(%rax), %edx
	movl	%edx, 12(%rbp)
.L1655:
	cmpl	$1, %eax
	jne	.L1650
	movq	0(%rbp), %rax
	movq	%rbp, %rdi
	call	*24(%rax)
	jmp	.L1650
	.p2align 4,,10
	.p2align 3
.L1651:
	movl	$-1, %eax
	lock xaddl	%eax, 8(%rbp)
	jmp	.L1652
	.p2align 4,,10
	.p2align 3
.L1675:
	movl	$-1, %eax
	lock xaddl	%eax, 12(%rbp)
	jmp	.L1676
	.p2align 4,,10
	.p2align 3
.L1668:
	movl	$-1, %eax
	lock xaddl	%eax, 12(%r12)
	jmp	.L1669
	.p2align 4,,10
	.p2align 3
.L1654:
	movl	$-1, %eax
	lock xaddl	%eax, 12(%rbp)
	jmp	.L1655
	.p2align 4,,10
	.p2align 3
.L1553:
	movq	144(%rbx), %rsi
.L1554:
	testw	%si, %si
	jne	.L1556
	movq	56(%rsp), %rax
	movq	$1, 144(%rax)
	movups	%xmm0, 128(%rax)
	jmp	.L1555
	.p2align 4,,10
	.p2align 3
.L1629:
	movl	$-1, %eax
	lock xaddl	%eax, 12(%rbp)
	jmp	.L1630
	.p2align 4,,10
	.p2align 3
.L1622:
	movl	$-1, %eax
	lock xaddl	%eax, 12(%r12)
	jmp	.L1623
	.p2align 4,,10
	.p2align 3
.L1608:
	movl	$-1, %eax
	lock xaddl	%eax, 12(%rbp)
	jmp	.L1609
	.p2align 4,,10
	.p2align 3
.L1595:
	movl	$-1, %eax
	lock xaddl	%eax, 12(%rbp)
	jmp	.L1596
	.p2align 4,,10
	.p2align 3
.L1564:
	lock addl	$1, 8(%r14)
	jmp	.L1563
	.p2align 4,,10
	.p2align 3
.L1562:
	lock addl	$1, 8(%r13)
	jmp	.L1561
	.p2align 4,,10
	.p2align 3
.L1889:
	movq	0(%rbp), %rax
	movq	%rbp, %rdi
	call	*16(%rax)
	cmpb	$0, __libc_single_threaded(%rip)
	je	.L1689
	movl	12(%rbp), %eax
	leal	-1(%rax), %edx
	movl	%edx, 12(%rbp)
.L1690:
	cmpl	$1, %eax
	jne	.L1685
	movq	0(%rbp), %rax
	movq	%rbp, %rdi
	call	*24(%rax)
	jmp	.L1685
	.p2align 4,,10
	.p2align 3
.L1686:
	movl	$-1, %eax
	lock xaddl	%eax, 8(%rbp)
	jmp	.L1687
	.p2align 4,,10
	.p2align 3
.L1556:
	addq	%rcx, %rdi
	movq	56(%rsp), %rax
	movq	%rcx, %xmm0
	addq	$1, %rsi
	movq	%rdi, %xmm6
	punpcklqdq	%xmm6, %xmm0
	movq	%rsi, 144(%rax)
	movups	%xmm0, 128(%rax)
	jmp	.L1555
	.p2align 4,,10
	.p2align 3
.L1885:
	movq	(%r14), %rax
	movq	%r14, %rdi
	call	*16(%rax)
	cmpb	$0, __libc_single_threaded(%rip)
	je	.L1573
	movl	12(%r14), %eax
	leal	-1(%rax), %edx
	movl	%edx, 12(%r14)
.L1574:
	cmpl	$1, %eax
	jne	.L1569
	movq	(%r14), %rax
	movq	%r14, %rdi
	call	*24(%rax)
	jmp	.L1569
	.p2align 4,,10
	.p2align 3
.L1886:
	movq	0(%r13), %rax
	movq	%r13, %rdi
	call	*16(%rax)
	cmpb	$0, __libc_single_threaded(%rip)
	je	.L1580
	movl	12(%r13), %eax
	leal	-1(%rax), %edx
	movl	%edx, 12(%r13)
.L1581:
	cmpl	$1, %eax
	jne	.L1576
	movq	0(%r13), %rax
	movq	%r13, %rdi
	call	*24(%rax)
	jmp	.L1576
	.p2align 4,,10
	.p2align 3
.L1577:
	movl	$-1, %eax
	lock xaddl	%eax, 8(%r13)
	jmp	.L1578
	.p2align 4,,10
	.p2align 3
.L1570:
	movl	$-1, %eax
	lock xaddl	%eax, 8(%r14)
	jmp	.L1571
	.p2align 4,,10
	.p2align 3
.L1560:
	movq	%rax, 32(%rsp)
	leaq	100(%rsp), %r15
	cmpq	%rax, 48(%rsp)
	je	.L1559
	.p2align 4,,10
	.p2align 3
.L1778:
	movq	40(%rsp), %rax
	movq	32(%rsp), %rbx
	movq	8(%rax), %rbp
	movq	(%rax), %r13
	testq	%rbp, %rbp
	je	.L1694
	cmpb	$0, __libc_single_threaded(%rip)
	je	.L1695
	addl	$1, 8(%rbp)
.L1694:
	movq	32(%rsp), %rax
	movq	8(%rax), %r12
	movq	(%rax), %r14
	testq	%r12, %r12
	je	.L1696
	cmpb	$0, __libc_single_threaded(%rip)
	je	.L1697
	addl	$1, 8(%r12)
.L1696:
	movq	%r14, %rsi
	movq	%r15, %rdi
.LEHB47:
	call	_ZNK6Entity14get_position3DEv@PLT
	movss	108(%rsp), %xmm5
	movq	8(%rsp), %rdi
	movq	%r13, %rsi
	movss	%xmm5, 16(%rsp)
	call	_ZNK6Entity14get_position3DEv@PLT
	movss	16(%rsp), %xmm5
	comiss	120(%rsp), %xmm5
	jbe	.L1700
	movq	%r14, %rdi
	call	_ZNK6Entity10is_deletedEv@PLT
	testb	%al, %al
	jne	.L1700
	movl	$1, %r13d
.L1699:
	testq	%r12, %r12
	je	.L1702
	cmpb	$0, __libc_single_threaded(%rip)
	je	.L1703
	movl	8(%r12), %eax
	leal	-1(%rax), %edx
	movl	%edx, 8(%r12)
.L1704:
	cmpl	$1, %eax
	je	.L1900
.L1702:
	testq	%rbp, %rbp
	je	.L1709
	cmpb	$0, __libc_single_threaded(%rip)
	je	.L1710
	movl	8(%rbp), %eax
	leal	-1(%rax), %edx
	movl	%edx, 8(%rbp)
.L1711:
	cmpl	$1, %eax
	je	.L1901
.L1709:
	movq	32(%rsp), %rax
	movq	(%rax), %r14
	movq	8(%rax), %r12
	testb	%r13b, %r13b
	je	.L1902
	pxor	%xmm0, %xmm0
	movq	%r14, %xmm6
	movq	%r12, %xmm7
	movups	%xmm0, (%rax)
	leaq	16(%rax), %rbp
	subq	40(%rsp), %rax
	punpcklqdq	%xmm7, %xmm6
	movq	%rax, %r13
	movaps	%xmm6, 16(%rsp)
	movdqa	%xmm0, %xmm1
	sarq	$4, %r13
	testq	%rax, %rax
	jg	.L1720
	jmp	.L1730
	.p2align 4,,10
	.p2align 3
.L1724:
	subq	$1, %r13
	je	.L1730
.L1720:
	movdqu	-16(%rbx), %xmm0
	movq	8(%rbx), %r12
	subq	$16, %rbx
	movups	%xmm1, (%rbx)
	movups	%xmm0, 16(%rbx)
	testq	%r12, %r12
	je	.L1724
	cmpb	$0, __libc_single_threaded(%rip)
	je	.L1725
	movl	8(%r12), %eax
	leal	-1(%rax), %edx
	movl	%edx, 8(%r12)
.L1726:
	cmpl	$1, %eax
	jne	.L1724
	movq	(%r12), %rax
	movq	%r12, %rdi
	call	*16(%rax)
	cmpb	$0, __libc_single_threaded(%rip)
	pxor	%xmm1, %xmm1
	je	.L1728
	movl	12(%r12), %eax
	leal	-1(%rax), %edx
	movl	%edx, 12(%r12)
.L1729:
	cmpl	$1, %eax
	jne	.L1724
	movq	(%r12), %rax
	movq	%r12, %rdi
	call	*24(%rax)
	pxor	%xmm1, %xmm1
	subq	$1, %r13
	jne	.L1720
	.p2align 4,,10
	.p2align 3
.L1730:
	movq	40(%rsp), %rax
	movdqa	16(%rsp), %xmm6
	movq	8(%rax), %r12
	movups	%xmm6, (%rax)
	testq	%r12, %r12
	je	.L1722
	cmpb	$0, __libc_single_threaded(%rip)
	je	.L1731
	movl	8(%r12), %eax
	leal	-1(%rax), %edx
	movl	%edx, 8(%r12)
.L1732:
	cmpl	$1, %eax
	je	.L1903
	.p2align 4,,10
	.p2align 3
.L1722:
	movq	%rbp, 32(%rsp)
	cmpq	%rbp, 48(%rsp)
	jne	.L1778
	jmp	.L1559
	.p2align 4,,10
	.p2align 3
.L1700:
	movq	%r13, %rdi
	call	_ZNK6Entity10is_deletedEv@PLT
.LEHE47:
	movl	%eax, %r13d
	jmp	.L1699
	.p2align 4,,10
	.p2align 3
.L1725:
	movl	$-1, %eax
	lock xaddl	%eax, 8(%r12)
	jmp	.L1726
	.p2align 4,,10
	.p2align 3
.L1902:
	pxor	%xmm0, %xmm0
	movq	%rax, %rbx
	movups	%xmm0, (%rax)
	jmp	.L1735
	.p2align 4,,10
	.p2align 3
.L1747:
	movq	%r14, %rdi
.LEHB48:
	call	_ZNK6Entity10is_deletedEv@PLT
	testb	%al, %al
	jne	.L1749
	movl	$1, %r13d
.L1748:
	testq	%r12, %r12
	je	.L1751
	cmpb	$0, __libc_single_threaded(%rip)
	je	.L1752
	movl	8(%r12), %eax
	leal	-1(%rax), %edx
	movl	%edx, 8(%r12)
.L1753:
	cmpl	$1, %eax
	je	.L1904
.L1751:
	testq	%rbp, %rbp
	je	.L1758
	cmpb	$0, __libc_single_threaded(%rip)
	je	.L1759
	movl	8(%rbp), %eax
	leal	-1(%rax), %edx
	movl	%edx, 8(%rbp)
.L1760:
	cmpl	$1, %eax
	je	.L1905
.L1758:
	testb	%r13b, %r13b
	je	.L1906
.L1764:
	movdqu	-16(%rbx), %xmm0
	movq	8(%rbx), %rbp
	pxor	%xmm1, %xmm1
	movups	%xmm1, -16(%rbx)
	movups	%xmm0, (%rbx)
	testq	%rbp, %rbp
	je	.L1737
	cmpb	$0, __libc_single_threaded(%rip)
	je	.L1738
	movl	8(%rbp), %eax
	leal	-1(%rax), %edx
	movl	%edx, 8(%rbp)
.L1739:
	cmpl	$1, %eax
	je	.L1907
.L1737:
	subq	$16, %rbx
.L1735:
	movq	-8(%rbx), %rbp
	movq	-16(%rbx), %r13
	testq	%rbp, %rbp
	je	.L1743
	cmpb	$0, __libc_single_threaded(%rip)
	je	.L1744
	addl	$1, 8(%rbp)
.L1743:
	testq	%r12, %r12
	je	.L1745
	cmpb	$0, __libc_single_threaded(%rip)
	je	.L1746
	addl	$1, 8(%r12)
.L1745:
	movq	%r14, %rsi
	movq	%r15, %rdi
	call	_ZNK6Entity14get_position3DEv@PLT
	movss	108(%rsp), %xmm4
	movq	8(%rsp), %rdi
	movq	%r13, %rsi
	movss	%xmm4, 16(%rsp)
	call	_ZNK6Entity14get_position3DEv@PLT
	movss	16(%rsp), %xmm4
	comiss	120(%rsp), %xmm4
	ja	.L1747
.L1749:
	movq	%r13, %rdi
	call	_ZNK6Entity10is_deletedEv@PLT
.LEHE48:
	movl	%eax, %r13d
	jmp	.L1748
	.p2align 4,,10
	.p2align 3
.L1746:
	lock addl	$1, 8(%r12)
	jmp	.L1745
	.p2align 4,,10
	.p2align 3
.L1744:
	lock addl	$1, 8(%rbp)
	jmp	.L1743
	.p2align 4,,10
	.p2align 3
.L1905:
	movq	0(%rbp), %rax
	movq	%rbp, %rdi
	call	*16(%rax)
	cmpb	$0, __libc_single_threaded(%rip)
	je	.L1762
	movl	12(%rbp), %eax
	leal	-1(%rax), %edx
	movl	%edx, 12(%rbp)
.L1763:
	cmpl	$1, %eax
	jne	.L1758
	movq	0(%rbp), %rax
	movq	%rbp, %rdi
	call	*24(%rax)
	testb	%r13b, %r13b
	jne	.L1764
	.p2align 4,,10
	.p2align 3
.L1906:
	movq	8(%rbx), %rbp
	movq	%r14, %xmm0
	movq	%r12, %xmm5
	punpcklqdq	%xmm5, %xmm0
	movups	%xmm0, (%rbx)
	testq	%rbp, %rbp
	je	.L1772
	cmpb	$0, __libc_single_threaded(%rip)
	je	.L1773
	movl	8(%rbp), %eax
	leal	-1(%rax), %edx
	movl	%edx, 8(%rbp)
.L1774:
	cmpl	$1, %eax
	je	.L1908
.L1772:
	movq	32(%rsp), %rbp
	addq	$16, %rbp
	jmp	.L1722
	.p2align 4,,10
	.p2align 3
.L1904:
	movq	(%r12), %rax
	movq	%r12, %rdi
	call	*16(%rax)
	cmpb	$0, __libc_single_threaded(%rip)
	je	.L1755
	movl	12(%r12), %eax
	leal	-1(%rax), %edx
	movl	%edx, 12(%r12)
.L1756:
	cmpl	$1, %eax
	jne	.L1751
	movq	(%r12), %rax
	movq	%r12, %rdi
	call	*24(%rax)
	jmp	.L1751
	.p2align 4,,10
	.p2align 3
.L1752:
	movl	$-1, %eax
	lock xaddl	%eax, 8(%r12)
	jmp	.L1753
	.p2align 4,,10
	.p2align 3
.L1759:
	movl	$-1, %eax
	lock xaddl	%eax, 8(%rbp)
	jmp	.L1760
	.p2align 4,,10
	.p2align 3
.L1907:
	movq	0(%rbp), %rax
	movq	%rbp, %rdi
	call	*16(%rax)
	cmpb	$0, __libc_single_threaded(%rip)
	je	.L1741
	movl	12(%rbp), %eax
	leal	-1(%rax), %edx
	movl	%edx, 12(%rbp)
.L1742:
	cmpl	$1, %eax
	jne	.L1737
	movq	0(%rbp), %rax
	movq	%rbp, %rdi
	call	*24(%rax)
	jmp	.L1737
	.p2align 4,,10
	.p2align 3
.L1738:
	movl	$-1, %eax
	lock xaddl	%eax, 8(%rbp)
	jmp	.L1739
	.p2align 4,,10
	.p2align 3
.L1755:
	movl	$-1, %eax
	lock xaddl	%eax, 12(%r12)
	jmp	.L1756
	.p2align 4,,10
	.p2align 3
.L1762:
	movl	$-1, %eax
	lock xaddl	%eax, 12(%rbp)
	jmp	.L1763
	.p2align 4,,10
	.p2align 3
.L1741:
	movl	$-1, %eax
	lock xaddl	%eax, 12(%rbp)
	jmp	.L1742
	.p2align 4,,10
	.p2align 3
.L1728:
	movl	$-1, %eax
	lock xaddl	%eax, 12(%r12)
	jmp	.L1729
	.p2align 4,,10
	.p2align 3
.L1695:
	lock addl	$1, 8(%rbp)
	jmp	.L1694
	.p2align 4,,10
	.p2align 3
.L1697:
	lock addl	$1, 8(%r12)
	jmp	.L1696
	.p2align 4,,10
	.p2align 3
.L1901:
	movq	0(%rbp), %rax
	movq	%rbp, %rdi
	call	*16(%rax)
	cmpb	$0, __libc_single_threaded(%rip)
	je	.L1713
	movl	12(%rbp), %eax
	leal	-1(%rax), %edx
	movl	%edx, 12(%rbp)
.L1714:
	cmpl	$1, %eax
	jne	.L1709
	movq	0(%rbp), %rax
	movq	%rbp, %rdi
	call	*24(%rax)
	jmp	.L1709
	.p2align 4,,10
	.p2align 3
.L1900:
	movq	(%r12), %rax
	movq	%r12, %rdi
	call	*16(%rax)
	cmpb	$0, __libc_single_threaded(%rip)
	je	.L1706
	movl	12(%r12), %eax
	leal	-1(%rax), %edx
	movl	%edx, 12(%r12)
.L1707:
	cmpl	$1, %eax
	jne	.L1702
	movq	(%r12), %rax
	movq	%r12, %rdi
	call	*24(%rax)
	jmp	.L1702
	.p2align 4,,10
	.p2align 3
.L1703:
	movl	$-1, %eax
	lock xaddl	%eax, 8(%r12)
	jmp	.L1704
	.p2align 4,,10
	.p2align 3
.L1710:
	movl	$-1, %eax
	lock xaddl	%eax, 8(%rbp)
	jmp	.L1711
.L1908:
	movq	0(%rbp), %rax
	movq	%rbp, %rdi
	call	*16(%rax)
	cmpb	$0, __libc_single_threaded(%rip)
	je	.L1776
	movl	12(%rbp), %eax
	leal	-1(%rax), %edx
	movl	%edx, 12(%rbp)
.L1777:
	cmpl	$1, %eax
	jne	.L1772
	movq	0(%rbp), %rax
	movq	%rbp, %rdi
	call	*24(%rax)
	jmp	.L1772
.L1903:
	movq	(%r12), %rax
	movq	%r12, %rdi
	call	*16(%rax)
	cmpb	$0, __libc_single_threaded(%rip)
	je	.L1733
	movl	12(%r12), %eax
	leal	-1(%rax), %edx
	movl	%edx, 12(%r12)
.L1734:
	cmpl	$1, %eax
	jne	.L1722
	movq	(%r12), %rax
	movq	%r12, %rdi
	call	*24(%rax)
	jmp	.L1722
.L1773:
	movl	$-1, %eax
	lock xaddl	%eax, 8(%rbp)
	jmp	.L1774
.L1731:
	movl	$-1, %eax
	lock xaddl	%eax, 8(%r12)
	jmp	.L1732
.L1689:
	movl	$-1, %eax
	lock xaddl	%eax, 12(%rbp)
	jmp	.L1690
.L1573:
	movl	$-1, %eax
	lock xaddl	%eax, 12(%r14)
	jmp	.L1574
.L1706:
	movl	$-1, %eax
	lock xaddl	%eax, 12(%r12)
	jmp	.L1707
.L1713:
	movl	$-1, %eax
	lock xaddl	%eax, 12(%rbp)
	jmp	.L1714
.L1580:
	movl	$-1, %eax
	lock xaddl	%eax, 12(%r13)
	jmp	.L1581
.L1643:
	movl	$-1, %eax
	lock xaddl	%eax, 12(%rbp)
	jmp	.L1644
.L1733:
	movl	$-1, %eax
	lock xaddl	%eax, 12(%r12)
	jmp	.L1734
.L1776:
	movl	$-1, %eax
	lock xaddl	%eax, 12(%rbp)
	jmp	.L1777
.L1549:
	movl	$-1, %eax
	lock xaddl	%eax, 8(%rbp)
	jmp	.L1550
.L1884:
	movl	$-1, %eax
	lock xaddl	%eax, 12(%rbp)
	jmp	.L1547
.L1551:
	movl	$-1, %eax
	lock xaddl	%eax, 12(%rbp)
	jmp	.L1552
.L1890:
	call	__stack_chk_fail@PLT
.L1787:
	endbr64
	movq	%rax, %r13
	jmp	.L1766
.L1786:
	endbr64
	movq	%rax, %r13
	jmp	.L1717
.L1784:
	endbr64
	movq	%rax, %r13
	jmp	.L1633
.L1785:
	endbr64
	movq	%rax, %r13
	jmp	.L1679
.L1783:
	endbr64
	movq	%rax, %rbp
	jmp	.L1584
	.section	.gcc_except_table
.LLSDA12057:
	.byte	0xff
	.byte	0xff
	.byte	0x1
	.uleb128 .LLSDACSE12057-.LLSDACSB12057
.LLSDACSB12057:
	.uleb128 .LEHB42-.LFB12057
	.uleb128 .LEHE42-.LEHB42
	.uleb128 0
	.uleb128 0
	.uleb128 .LEHB43-.LFB12057
	.uleb128 .LEHE43-.LEHB43
	.uleb128 .L1783-.LFB12057
	.uleb128 0
	.uleb128 .LEHB44-.LFB12057
	.uleb128 .LEHE44-.LEHB44
	.uleb128 0
	.uleb128 0
	.uleb128 .LEHB45-.LFB12057
	.uleb128 .LEHE45-.LEHB45
	.uleb128 .L1784-.LFB12057
	.uleb128 0
	.uleb128 .LEHB46-.LFB12057
	.uleb128 .LEHE46-.LEHB46
	.uleb128 .L1785-.LFB12057
	.uleb128 0
	.uleb128 .LEHB47-.LFB12057
	.uleb128 .LEHE47-.LEHB47
	.uleb128 .L1786-.LFB12057
	.uleb128 0
	.uleb128 .LEHB48-.LFB12057
	.uleb128 .LEHE48-.LEHB48
	.uleb128 .L1787-.LFB12057
	.uleb128 0
.LLSDACSE12057:
	.text
	.cfi_endproc
	.section	.text.unlikely
	.cfi_startproc
	.cfi_personality 0x9b,DW.ref.__gxx_personality_v0
	.cfi_lsda 0x1b,.LLSDAC12057
	.type	_ZN6Engine5startEv.cold, @function
_ZN6Engine5startEv.cold:
.LFSB12057:
.L1766:
	.cfi_def_cfa_offset 208
	.cfi_offset 3, -56
	.cfi_offset 6, -48
	.cfi_offset 12, -40
	.cfi_offset 13, -32
	.cfi_offset 14, -24
	.cfi_offset 15, -16
	testq	%r12, %r12
	je	.L1767
	movq	%r12, %rdi
	call	_ZNSt16_Sp_counted_baseILN9__gnu_cxx12_Lock_policyE2EE10_M_releaseEv
.L1767:
	testq	%rbp, %rbp
	je	.L1768
	movq	%rbp, %rdi
	call	_ZNSt16_Sp_counted_baseILN9__gnu_cxx12_Lock_policyE2EE10_M_releaseEv
.L1768:
	testq	%r12, %r12
	je	.L1770
	movq	%r12, %rdi
	call	_ZNSt16_Sp_counted_baseILN9__gnu_cxx12_Lock_policyE2EE10_M_releaseEv
.L1770:
	movq	%r13, %rdi
.LEHB49:
	call	_Unwind_Resume@PLT
.L1717:
	testq	%r12, %r12
	je	.L1718
	movq	%r12, %rdi
	call	_ZNSt16_Sp_counted_baseILN9__gnu_cxx12_Lock_policyE2EE10_M_releaseEv
.L1718:
	testq	%rbp, %rbp
	je	.L1719
	movq	%rbp, %rdi
	call	_ZNSt16_Sp_counted_baseILN9__gnu_cxx12_Lock_policyE2EE10_M_releaseEv
.L1719:
	movq	%r13, %rdi
	call	_Unwind_Resume@PLT
.L1679:
	testq	%r12, %r12
	je	.L1680
	movq	%r12, %rdi
	call	_ZNSt16_Sp_counted_baseILN9__gnu_cxx12_Lock_policyE2EE10_M_releaseEv
.L1680:
	testq	%rbp, %rbp
	je	.L1681
	movq	%rbp, %rdi
	call	_ZNSt16_Sp_counted_baseILN9__gnu_cxx12_Lock_policyE2EE10_M_releaseEv
.L1681:
	testq	%r12, %r12
	je	.L1683
	movq	%r12, %rdi
	call	_ZNSt16_Sp_counted_baseILN9__gnu_cxx12_Lock_policyE2EE10_M_releaseEv
.L1683:
	movq	%r13, %rdi
	call	_Unwind_Resume@PLT
.L1633:
	testq	%r12, %r12
	je	.L1634
	movq	%r12, %rdi
	call	_ZNSt16_Sp_counted_baseILN9__gnu_cxx12_Lock_policyE2EE10_M_releaseEv
.L1634:
	testq	%rbp, %rbp
	je	.L1635
	movq	%rbp, %rdi
	call	_ZNSt16_Sp_counted_baseILN9__gnu_cxx12_Lock_policyE2EE10_M_releaseEv
.L1635:
	testq	%r12, %r12
	je	.L1637
	movq	%r12, %rdi
	call	_ZNSt16_Sp_counted_baseILN9__gnu_cxx12_Lock_policyE2EE10_M_releaseEv
.L1637:
	movq	%r13, %rdi
	call	_Unwind_Resume@PLT
.L1584:
	testq	%r14, %r14
	je	.L1585
	movq	%r14, %rdi
	call	_ZNSt16_Sp_counted_baseILN9__gnu_cxx12_Lock_policyE2EE10_M_releaseEv
.L1585:
	testq	%r13, %r13
	je	.L1586
	movq	%r13, %rdi
	call	_ZNSt16_Sp_counted_baseILN9__gnu_cxx12_Lock_policyE2EE10_M_releaseEv
.L1586:
	movq	%rbp, %rdi
	call	_Unwind_Resume@PLT
.LEHE49:
	.cfi_endproc
.LFE12057:
	.section	.gcc_except_table
.LLSDAC12057:
	.byte	0xff
	.byte	0xff
	.byte	0x1
	.uleb128 .LLSDACSEC12057-.LLSDACSBC12057
.LLSDACSBC12057:
	.uleb128 .LEHB49-.LCOLDB19
	.uleb128 .LEHE49-.LEHB49
	.uleb128 0
	.uleb128 0
.LLSDACSEC12057:
	.section	.text.unlikely
	.text
	.size	_ZN6Engine5startEv, .-_ZN6Engine5startEv
	.section	.text.unlikely
	.size	_ZN6Engine5startEv.cold, .-_ZN6Engine5startEv.cold
.LCOLDE19:
	.text
.LHOTE19:
	.section	.text._ZNSt7__cxx1112basic_stringIcSt11char_traitsIcESaIcEE9_M_mutateEmmPKcm,"axG",@progbits,_ZNSt7__cxx1112basic_stringIcSt11char_traitsIcESaIcEE9_M_mutateEmmPKcm,comdat
	.align 2
	.p2align 4
	.weak	_ZNSt7__cxx1112basic_stringIcSt11char_traitsIcESaIcEE9_M_mutateEmmPKcm
	.type	_ZNSt7__cxx1112basic_stringIcSt11char_traitsIcESaIcEE9_M_mutateEmmPKcm, @function
_ZNSt7__cxx1112basic_stringIcSt11char_traitsIcESaIcEE9_M_mutateEmmPKcm:
.LFB13015:
	.cfi_startproc
	endbr64
	pushq	%r15
	.cfi_def_cfa_offset 16
	.cfi_offset 15, -16
	pushq	%r14
	.cfi_def_cfa_offset 24
	.cfi_offset 14, -24
	movq	%r8, %r14
	pushq	%r13
	.cfi_def_cfa_offset 32
	.cfi_offset 13, -32
	pushq	%r12
	.cfi_def_cfa_offset 40
	.cfi_offset 12, -40
	movq	%rsi, %r12
	addq	%rdx, %rsi
	pushq	%rbp
	.cfi_def_cfa_offset 48
	.cfi_offset 6, -48
	movq	%r8, %rbp
	pushq	%rbx
	.cfi_def_cfa_offset 56
	.cfi_offset 3, -56
	movq	%rdi, %rbx
	subq	%rdx, %rbp
	leaq	16(%rbx), %r13
	subq	$40, %rsp
	.cfi_def_cfa_offset 96
	movq	8(%rdi), %rax
	movq	%rsi, 24(%rsp)
	movq	%rax, %rdi
	addq	%rax, %rbp
	subq	%rsi, %rdi
	movq	%rdi, 8(%rsp)
	cmpq	(%rbx), %r13
	je	.L1922
	movq	16(%rbx), %rax
.L1910:
	testq	%rbp, %rbp
	js	.L1936
	cmpq	%rax, %rbp
	jbe	.L1912
	addq	%rax, %rax
	cmpq	%rax, %rbp
	jnb	.L1912
	testq	%rax, %rax
	js	.L1913
	movq	%rax, %rbp
	.p2align 4,,10
	.p2align 3
.L1912:
	movq	%rbp, %rdi
	addq	$1, %rdi
	js	.L1913
	movq	%rcx, 16(%rsp)
	call	_Znwm@PLT
	testq	%r12, %r12
	movq	16(%rsp), %rcx
	movq	%rax, %r15
	je	.L1915
	movq	(%rbx), %rsi
	cmpq	$1, %r12
	je	.L1937
	movq	%r12, %rdx
	movq	%rax, %rdi
	movq	%rcx, 16(%rsp)
	call	memcpy@PLT
	movq	16(%rsp), %rcx
.L1915:
	testq	%rcx, %rcx
	je	.L1917
	testq	%r14, %r14
	je	.L1917
	leaq	(%r15,%r12), %rdi
	cmpq	$1, %r14
	je	.L1938
	movq	%r14, %rdx
	movq	%rcx, %rsi
	call	memcpy@PLT
.L1917:
	movq	8(%rsp), %rax
	movq	(%rbx), %r9
	testq	%rax, %rax
	je	.L1919
.L1940:
	movq	24(%rsp), %rsi
	leaq	(%r12,%r14), %r8
	leaq	(%r15,%r8), %rdi
	addq	%r9, %rsi
	cmpq	$1, %rax
	je	.L1939
	movq	%rax, %rdx
	movq	%r9, 16(%rsp)
	call	memcpy@PLT
	movq	16(%rsp), %r9
.L1919:
	cmpq	%r9, %r13
	je	.L1921
.L1941:
	movq	16(%rbx), %rax
	movq	%r9, %rdi
	leaq	1(%rax), %rsi
	call	_ZdlPvm@PLT
.L1921:
	movq	%r15, (%rbx)
	movq	%rbp, 16(%rbx)
	addq	$40, %rsp
	.cfi_remember_state
	.cfi_def_cfa_offset 56
	popq	%rbx
	.cfi_def_cfa_offset 48
	popq	%rbp
	.cfi_def_cfa_offset 40
	popq	%r12
	.cfi_def_cfa_offset 32
	popq	%r13
	.cfi_def_cfa_offset 24
	popq	%r14
	.cfi_def_cfa_offset 16
	popq	%r15
	.cfi_def_cfa_offset 8
	ret
	.p2align 4,,10
	.p2align 3
.L1913:
	.cfi_restore_state
	call	_ZSt17__throw_bad_allocv@PLT
	.p2align 4,,10
	.p2align 3
.L1922:
	movl	$15, %eax
	jmp	.L1910
	.p2align 4,,10
	.p2align 3
.L1937:
	movzbl	(%rsi), %eax
	movb	%al, (%r15)
	jmp	.L1915
	.p2align 4,,10
	.p2align 3
.L1938:
	movzbl	(%rcx), %eax
	movq	(%rbx), %r9
	movb	%al, (%rdi)
	movq	8(%rsp), %rax
	testq	%rax, %rax
	je	.L1919
	jmp	.L1940
	.p2align 4,,10
	.p2align 3
.L1939:
	movzbl	(%rsi), %eax
	movb	%al, (%rdi)
	cmpq	%r9, %r13
	jne	.L1941
	jmp	.L1921
.L1936:
	leaq	.LC1(%rip), %rdi
	call	_ZSt20__throw_length_errorPKc@PLT
	.cfi_endproc
.LFE13015:
	.size	_ZNSt7__cxx1112basic_stringIcSt11char_traitsIcESaIcEE9_M_mutateEmmPKcm, .-_ZNSt7__cxx1112basic_stringIcSt11char_traitsIcESaIcEE9_M_mutateEmmPKcm
	.section	.rodata._ZNSt7__cxx1112basic_stringIcSt11char_traitsIcESaIcEE10_M_replaceEmmPKcm.str1.1,"aMS",@progbits,1
.LC20:
	.string	"basic_string::_M_replace"
	.section	.text._ZNSt7__cxx1112basic_stringIcSt11char_traitsIcESaIcEE10_M_replaceEmmPKcm,"axG",@progbits,_ZNSt7__cxx1112basic_stringIcSt11char_traitsIcESaIcEE10_M_replaceEmmPKcm,comdat
	.align 2
	.p2align 4
	.weak	_ZNSt7__cxx1112basic_stringIcSt11char_traitsIcESaIcEE10_M_replaceEmmPKcm
	.type	_ZNSt7__cxx1112basic_stringIcSt11char_traitsIcESaIcEE10_M_replaceEmmPKcm, @function
_ZNSt7__cxx1112basic_stringIcSt11char_traitsIcESaIcEE10_M_replaceEmmPKcm:
.LFB13016:
	.cfi_startproc
	endbr64
	movabsq	$9223372036854775807, %rax
	pushq	%r15
	.cfi_def_cfa_offset 16
	.cfi_offset 15, -16
	pushq	%r14
	.cfi_def_cfa_offset 24
	.cfi_offset 14, -24
	pushq	%r13
	.cfi_def_cfa_offset 32
	.cfi_offset 13, -32
	movq	%rdx, %r13
	pushq	%r12
	.cfi_def_cfa_offset 40
	.cfi_offset 12, -40
	addq	%r13, %rax
	pushq	%rbp
	.cfi_def_cfa_offset 48
	.cfi_offset 6, -48
	pushq	%rbx
	.cfi_def_cfa_offset 56
	.cfi_offset 3, -56
	subq	$24, %rsp
	.cfi_def_cfa_offset 80
	movq	8(%rdi), %rdx
	subq	%rdx, %rax
	cmpq	%rax, %r8
	ja	.L1986
	movq	%r8, %rbp
	movq	(%rdi), %rax
	movq	%rcx, %r15
	leaq	16(%rdi), %rcx
	subq	%r13, %rbp
	movq	%rdi, %r12
	movq	%r8, %r14
	leaq	(%rdx,%rbp), %rbx
	cmpq	%rcx, %rax
	je	.L1965
	movq	16(%rdi), %rcx
.L1944:
	cmpq	%rbx, %rcx
	jb	.L1945
	leaq	(%rax,%rsi), %r8
	movq	%rdx, %r9
	addq	%r13, %rsi
	subq	%rsi, %r9
	cmpq	%r15, %rax
	jbe	.L1987
.L1946:
	testq	%r9, %r9
	je	.L1949
	cmpq	%r14, %r13
	je	.L1949
	leaq	(%r8,%r13), %rsi
	leaq	(%r8,%r14), %rdi
	cmpq	$1, %r9
	je	.L1988
	movq	%r9, %rdx
	movq	%r8, 8(%rsp)
	call	memmove@PLT
	movq	8(%rsp), %r8
.L1949:
	testq	%r14, %r14
	je	.L1952
	cmpq	$1, %r14
	je	.L1985
	movq	%r14, %rdx
	movq	%r15, %rsi
	movq	%r8, %rdi
	call	memcpy@PLT
.L1952:
	movq	(%r12), %rax
	movq	%rbx, 8(%r12)
	movb	$0, (%rax,%rbx)
	addq	$24, %rsp
	.cfi_remember_state
	.cfi_def_cfa_offset 56
	movq	%r12, %rax
	popq	%rbx
	.cfi_def_cfa_offset 48
	popq	%rbp
	.cfi_def_cfa_offset 40
	popq	%r12
	.cfi_def_cfa_offset 32
	popq	%r13
	.cfi_def_cfa_offset 24
	popq	%r14
	.cfi_def_cfa_offset 16
	popq	%r15
	.cfi_def_cfa_offset 8
	ret
	.p2align 4,,10
	.p2align 3
.L1987:
	.cfi_restore_state
	addq	%rdx, %rax
	cmpq	%rax, %r15
	ja	.L1946
	leaq	-1(%r14), %rax
	cmpq	%rax, %r13
	jbe	.L1948
	cmpq	$1, %r14
	je	.L1989
	movq	%r8, %rdi
	movq	%r14, %rdx
	movq	%r15, %rsi
	movq	%r9, 8(%rsp)
	call	memmove@PLT
	movq	8(%rsp), %r9
	movq	%rax, %r8
.L1948:
	testq	%r9, %r9
	je	.L1955
	cmpq	%r14, %r13
	je	.L1955
	leaq	(%r8,%r13), %rsi
	leaq	(%r8,%r14), %rdi
	cmpq	$1, %r9
	je	.L1990
	movq	%r9, %rdx
	movq	%r8, 8(%rsp)
	call	memmove@PLT
	movq	8(%rsp), %r8
.L1955:
	cmpq	%r14, %r13
	jnb	.L1952
	addq	%r8, %r13
	leaq	(%r15,%r14), %rax
	cmpq	%rax, %r13
	jnb	.L1991
	cmpq	%r15, %r13
	ja	.L1960
	leaq	(%r15,%rbp), %rsi
	cmpq	$1, %r14
	je	.L1992
	movq	%r14, %rdx
	movq	%r8, %rdi
	call	memcpy@PLT
	jmp	.L1952
	.p2align 4,,10
	.p2align 3
.L1945:
	movq	%r14, %r8
	movq	%r15, %rcx
	movq	%r13, %rdx
	movq	%r12, %rdi
	call	_ZNSt7__cxx1112basic_stringIcSt11char_traitsIcESaIcEE9_M_mutateEmmPKcm
	jmp	.L1952
	.p2align 4,,10
	.p2align 3
.L1985:
	movzbl	(%r15), %eax
	movb	%al, (%r8)
	jmp	.L1952
	.p2align 4,,10
	.p2align 3
.L1988:
	movzbl	(%rsi), %eax
	movb	%al, (%rdi)
	jmp	.L1949
	.p2align 4,,10
	.p2align 3
.L1965:
	movl	$15, %ecx
	jmp	.L1944
	.p2align 4,,10
	.p2align 3
.L1991:
	cmpq	$1, %r14
	je	.L1985
	movq	%r14, %rdx
	movq	%r15, %rsi
	movq	%r8, %rdi
	call	memmove@PLT
	jmp	.L1952
	.p2align 4,,10
	.p2align 3
.L1990:
	movzbl	(%rsi), %eax
	movb	%al, (%rdi)
	jmp	.L1955
	.p2align 4,,10
	.p2align 3
.L1989:
	movzbl	(%r15), %eax
	movb	%al, (%r8)
	jmp	.L1948
	.p2align 4,,10
	.p2align 3
.L1960:
	subq	%r15, %r13
	cmpq	$1, %r13
	je	.L1993
	testq	%r13, %r13
	je	.L1963
	movq	%r8, %rdi
	movq	%r13, %rdx
	movq	%r15, %rsi
	call	memmove@PLT
	movq	%rax, %r8
.L1963:
	movq	%r14, %rdx
	leaq	(%r8,%r14), %rsi
	leaq	(%r8,%r13), %rdi
	subq	%r13, %rdx
	cmpq	$1, %rdx
	je	.L1994
	testq	%rdx, %rdx
	je	.L1952
	call	memcpy@PLT
	jmp	.L1952
.L1993:
	movzbl	(%r15), %eax
	movb	%al, (%r8)
	jmp	.L1963
.L1994:
	movzbl	(%rsi), %eax
	movb	%al, (%rdi)
	jmp	.L1952
.L1992:
	movzbl	(%rsi), %eax
	movb	%al, (%r8)
	jmp	.L1952
.L1986:
	leaq	.LC20(%rip), %rdi
	call	_ZSt20__throw_length_errorPKc@PLT
	.cfi_endproc
.LFE13016:
	.size	_ZNSt7__cxx1112basic_stringIcSt11char_traitsIcESaIcEE10_M_replaceEmmPKcm, .-_ZNSt7__cxx1112basic_stringIcSt11char_traitsIcESaIcEE10_M_replaceEmmPKcm
	.section	.rodata._ZN5error13sdl_exceptionESt17basic_string_viewIcSt11char_traitsIcEE.str1.1,"aMS",@progbits,1
.LC21:
	.string	": "
.LC22:
	.string	"basic_string::append"
	.section	.text._ZN5error13sdl_exceptionESt17basic_string_viewIcSt11char_traitsIcEE,"axG",@progbits,_ZN5error13sdl_exceptionESt17basic_string_viewIcSt11char_traitsIcEE,comdat
	.p2align 4
	.weak	_ZN5error13sdl_exceptionESt17basic_string_viewIcSt11char_traitsIcEE
	.type	_ZN5error13sdl_exceptionESt17basic_string_viewIcSt11char_traitsIcEE, @function
_ZN5error13sdl_exceptionESt17basic_string_viewIcSt11char_traitsIcEE:
.LFB11945:
	.cfi_startproc
	.cfi_personality 0x9b,DW.ref.__gxx_personality_v0
	.cfi_lsda 0x1b,.LLSDA11945
	endbr64
	pushq	%r15
	.cfi_def_cfa_offset 16
	.cfi_offset 15, -16
	pushq	%r14
	.cfi_def_cfa_offset 24
	.cfi_offset 14, -24
	pushq	%r13
	.cfi_def_cfa_offset 32
	.cfi_offset 13, -32
	pushq	%r12
	.cfi_def_cfa_offset 40
	.cfi_offset 12, -40
	movq	%rdi, %r12
	pushq	%rbp
	.cfi_def_cfa_offset 48
	.cfi_offset 6, -48
	movq	%rdx, %rbp
	pushq	%rbx
	.cfi_def_cfa_offset 56
	.cfi_offset 3, -56
	subq	$168, %rsp
	.cfi_def_cfa_offset 224
	movq	%rsi, (%rsp)
	leaq	64(%rsp), %r14
	leaq	16(%rsp), %r15
	leaq	32(%rsp), %rbx
	movq	%fs:40, %rax
	movq	%rax, 152(%rsp)
	xorl	%eax, %eax
.LEHB50:
	call	SDL_GetError@PLT
	leaq	48(%rsp), %rdi
	movq	%r14, 48(%rsp)
	leaq	2+.LC21(%rip), %rdx
	leaq	-2(%rdx), %rsi
	movq	%rdi, 8(%rsp)
	movq	%rax, %r13
	call	_ZNSt7__cxx1112basic_stringIcSt11char_traitsIcESaIcEE12_M_constructIPKcEEvT_S8_St20forward_iterator_tag.isra.0
.LEHE50:
	movq	(%rsp), %rdx
	movq	%rbp, %rsi
	movq	%r15, %rdi
	movq	%rbx, 16(%rsp)
	addq	%rbp, %rdx
.LEHB51:
	call	_ZNSt7__cxx1112basic_stringIcSt11char_traitsIcESaIcEE12_M_constructIPKcEEvT_S8_St20forward_iterator_tag.isra.0
.LEHE51:
	movq	16(%rsp), %rcx
	movq	24(%rsp), %rsi
	movl	$15, %eax
	movq	56(%rsp), %r8
	movq	%rax, %rdx
	movq	48(%rsp), %r9
	cmpq	%rbx, %rcx
	cmovne	32(%rsp), %rdx
	leaq	(%rsi,%r8), %rbp
	cmpq	%rdx, %rbp
	jbe	.L1997
	cmpq	%r14, %r9
	cmovne	64(%rsp), %rax
	cmpq	%rax, %rbp
	jbe	.L2044
	movq	%r9, %rcx
	xorl	%edx, %edx
	movq	%r15, %rdi
.LEHB52:
	call	_ZNSt7__cxx1112basic_stringIcSt11char_traitsIcESaIcEE9_M_mutateEmmPKcm
.LEHE52:
.L2043:
	movq	16(%rsp), %rcx
.L2003:
	movq	%rbp, 24(%rsp)
	movb	$0, (%rcx,%rbp)
	movq	16(%rsp), %rax
	leaq	96(%rsp), %rbp
	movq	%rbp, 80(%rsp)
	cmpq	%rbx, %rax
	je	.L2045
	movq	%rax, 80(%rsp)
	movq	32(%rsp), %rax
	movq	%rax, 96(%rsp)
.L2008:
	movq	24(%rsp), %rsi
	movq	%rbx, 16(%rsp)
	movq	$0, 24(%rsp)
	movq	%rsi, 88(%rsp)
	movb	$0, 32(%rsp)
.L2007:
	movq	%r13, %rdi
	movq	%rsi, (%rsp)
	call	strlen@PLT
	movq	(%rsp), %rsi
	movq	%rax, %r8
	movabsq	$9223372036854775807, %rax
	subq	%rsi, %rax
	cmpq	%rax, %r8
	ja	.L2046
	movq	80(%rsp), %rdi
	movl	$15, %eax
	leaq	(%r8,%rsi), %r15
	cmpq	%rbp, %rdi
	cmovne	96(%rsp), %rax
	cmpq	%rax, %r15
	ja	.L2011
	testq	%r8, %r8
	jne	.L2047
.L2012:
	movq	%r15, 88(%rsp)
	leaq	128(%rsp), %r13
	movb	$0, (%rdi,%r15)
	movq	80(%rsp), %rax
	movq	%r13, 112(%rsp)
	cmpq	%rbp, %rax
	je	.L2048
	movq	%rax, 112(%rsp)
	movq	96(%rsp), %rax
	movq	%rax, 128(%rsp)
.L2015:
	movq	88(%rsp), %rax
	leaq	112(%rsp), %rsi
	movq	%r12, %rdi
	movq	%rbp, 80(%rsp)
	movq	$0, 88(%rsp)
	movq	%rax, 120(%rsp)
	movb	$0, 96(%rsp)
.LEHB53:
	call	_ZNSt13runtime_errorC1ERKNSt7__cxx1112basic_stringIcSt11char_traitsIcESaIcEEE@PLT
.LEHE53:
	movq	112(%rsp), %rdi
	cmpq	%r13, %rdi
	je	.L2016
	movq	128(%rsp), %rax
	leaq	1(%rax), %rsi
	call	_ZdlPvm@PLT
.L2016:
	movq	80(%rsp), %rdi
	cmpq	%rbp, %rdi
	je	.L2017
	movq	96(%rsp), %rax
	leaq	1(%rax), %rsi
	call	_ZdlPvm@PLT
.L2017:
	movq	16(%rsp), %rdi
	cmpq	%rbx, %rdi
	je	.L2018
	movq	32(%rsp), %rax
	leaq	1(%rax), %rsi
	call	_ZdlPvm@PLT
.L2018:
	movq	48(%rsp), %rdi
	cmpq	%r14, %rdi
	je	.L1995
	movq	64(%rsp), %rax
	leaq	1(%rax), %rsi
	call	_ZdlPvm@PLT
.L1995:
	movq	152(%rsp), %rax
	subq	%fs:40, %rax
	jne	.L2049
	addq	$168, %rsp
	.cfi_remember_state
	.cfi_def_cfa_offset 56
	movq	%r12, %rax
	popq	%rbx
	.cfi_def_cfa_offset 48
	popq	%rbp
	.cfi_def_cfa_offset 40
	popq	%r12
	.cfi_def_cfa_offset 32
	popq	%r13
	.cfi_def_cfa_offset 24
	popq	%r14
	.cfi_def_cfa_offset 16
	popq	%r15
	.cfi_def_cfa_offset 8
	ret
	.p2align 4,,10
	.p2align 3
.L1997:
	.cfi_restore_state
	testq	%r8, %r8
	je	.L2003
	leaq	(%rcx,%rsi), %rdi
	cmpq	$1, %r8
	je	.L2050
	movq	%r8, %rdx
	movq	%r9, %rsi
	call	memcpy@PLT
	jmp	.L2043
	.p2align 4,,10
	.p2align 3
.L2047:
	addq	%rsi, %rdi
	cmpq	$1, %r8
	je	.L2051
	movq	%r8, %rdx
	movq	%r13, %rsi
	call	memcpy@PLT
	movq	80(%rsp), %rdi
	jmp	.L2012
	.p2align 4,,10
	.p2align 3
.L2044:
	movq	8(%rsp), %rdi
	movq	%rsi, %r8
	xorl	%edx, %edx
	xorl	%esi, %esi
.LEHB54:
	call	_ZNSt7__cxx1112basic_stringIcSt11char_traitsIcESaIcEE10_M_replaceEmmPKcm
.LEHE54:
	leaq	96(%rsp), %rbp
	leaq	16(%rax), %rdx
	movq	%rbp, 80(%rsp)
	movq	(%rax), %rcx
	cmpq	%rdx, %rcx
	je	.L2052
	movq	%rcx, 80(%rsp)
	movq	16(%rax), %rcx
	movq	%rcx, 96(%rsp)
.L2006:
	movq	8(%rax), %rcx
	movb	$0, 16(%rax)
	movq	%rcx, 88(%rsp)
	movq	$0, 8(%rax)
	movq	88(%rsp), %rsi
	movq	%rdx, (%rax)
	jmp	.L2007
	.p2align 4,,10
	.p2align 3
.L2011:
	leaq	80(%rsp), %rdi
	movq	%r13, %rcx
	xorl	%edx, %edx
.LEHB55:
	call	_ZNSt7__cxx1112basic_stringIcSt11char_traitsIcESaIcEE9_M_mutateEmmPKcm
	movq	80(%rsp), %rdi
	jmp	.L2012
	.p2align 4,,10
	.p2align 3
.L2048:
	movdqa	96(%rsp), %xmm0
	movaps	%xmm0, 128(%rsp)
	jmp	.L2015
	.p2align 4,,10
	.p2align 3
.L2045:
	movdqa	32(%rsp), %xmm1
	movaps	%xmm1, 96(%rsp)
	jmp	.L2008
	.p2align 4,,10
	.p2align 3
.L2050:
	movzbl	(%r9), %eax
	movb	%al, (%rdi)
	movq	16(%rsp), %rcx
	jmp	.L2003
	.p2align 4,,10
	.p2align 3
.L2052:
	movdqu	16(%rax), %xmm2
	movaps	%xmm2, 96(%rsp)
	jmp	.L2006
	.p2align 4,,10
	.p2align 3
.L2051:
	movzbl	0(%r13), %eax
	movb	%al, (%rdi)
	movq	80(%rsp), %rdi
	jmp	.L2012
.L2049:
	call	__stack_chk_fail@PLT
.L2046:
	leaq	.LC22(%rip), %rdi
	call	_ZSt20__throw_length_errorPKc@PLT
.LEHE55:
.L2033:
	endbr64
	movq	%rax, %rbp
	jmp	.L2026
.L2035:
	endbr64
	movq	%rax, %r12
	jmp	.L2022
.L2020:
	movq	112(%rsp), %rdi
	cmpq	%r13, %rdi
	je	.L2022
	movq	128(%rsp), %rax
	leaq	1(%rax), %rsi
	call	_ZdlPvm@PLT
.L2022:
	movq	80(%rsp), %rdi
	cmpq	%rbp, %rdi
	jne	.L2053
.L2023:
	movq	%r12, %rbp
.L2024:
	movq	16(%rsp), %rdi
	cmpq	%rbx, %rdi
	je	.L2026
	movq	32(%rsp), %rax
	leaq	1(%rax), %rsi
	call	_ZdlPvm@PLT
.L2026:
	movq	48(%rsp), %rdi
	cmpq	%r14, %rdi
	je	.L2027
	movq	64(%rsp), %rax
	leaq	1(%rax), %rsi
	call	_ZdlPvm@PLT
.L2027:
	movq	%rbp, %rdi
.LEHB56:
	call	_Unwind_Resume@PLT
.LEHE56:
.L2034:
	endbr64
	movq	%rax, %rbp
	jmp	.L2024
.L2036:
	endbr64
	movq	%rax, %r12
	jmp	.L2020
.L2053:
	movq	96(%rsp), %rax
	leaq	1(%rax), %rsi
	call	_ZdlPvm@PLT
	jmp	.L2023
	.cfi_endproc
.LFE11945:
	.section	.gcc_except_table
.LLSDA11945:
	.byte	0xff
	.byte	0xff
	.byte	0x1
	.uleb128 .LLSDACSE11945-.LLSDACSB11945
.LLSDACSB11945:
	.uleb128 .LEHB50-.LFB11945
	.uleb128 .LEHE50-.LEHB50
	.uleb128 0
	.uleb128 0
	.uleb128 .LEHB51-.LFB11945
	.uleb128 .LEHE51-.LEHB51
	.uleb128 .L2033-.LFB11945
	.uleb128 0
	.uleb128 .LEHB52-.LFB11945
	.uleb128 .LEHE52-.LEHB52
	.uleb128 .L2034-.LFB11945
	.uleb128 0
	.uleb128 .LEHB53-.LFB11945
	.uleb128 .LEHE53-.LEHB53
	.uleb128 .L2036-.LFB11945
	.uleb128 0
	.uleb128 .LEHB54-.LFB11945
	.uleb128 .LEHE54-.LEHB54
	.uleb128 .L2034-.LFB11945
	.uleb128 0
	.uleb128 .LEHB55-.LFB11945
	.uleb128 .LEHE55-.LEHB55
	.uleb128 .L2035-.LFB11945
	.uleb128 0
	.uleb128 .LEHB56-.LFB11945
	.uleb128 .LEHE56-.LEHB56
	.uleb128 0
	.uleb128 0
.LLSDACSE11945:
	.section	.text._ZN5error13sdl_exceptionESt17basic_string_viewIcSt11char_traitsIcEE,"axG",@progbits,_ZN5error13sdl_exceptionESt17basic_string_viewIcSt11char_traitsIcEE,comdat
	.size	_ZN5error13sdl_exceptionESt17basic_string_viewIcSt11char_traitsIcEE, .-_ZN5error13sdl_exceptionESt17basic_string_viewIcSt11char_traitsIcEE
	.section	.rodata.str1.8,"aMS",@progbits,1
	.align 8
.LC24:
	.string	"Engine::Engine(std::shared_ptr<Game>&&)"
	.section	.text.unlikely
	.align 2
.LCOLDB25:
	.text
.LHOTB25:
	.align 2
	.p2align 4
	.globl	_ZN6EngineC2EOSt10shared_ptrI4GameE
	.type	_ZN6EngineC2EOSt10shared_ptrI4GameE, @function
_ZN6EngineC2EOSt10shared_ptrI4GameE:
.LFB12036:
	.cfi_startproc
	.cfi_personality 0x9b,DW.ref.__gxx_personality_v0
	.cfi_lsda 0x1b,.LLSDA12036
	endbr64
	pushq	%r13
	.cfi_def_cfa_offset 16
	.cfi_offset 13, -16
	pxor	%xmm0, %xmm0
	leaq	160(%rdi), %r13
	pushq	%r12
	.cfi_def_cfa_offset 24
	.cfi_offset 12, -24
	pushq	%rbp
	.cfi_def_cfa_offset 32
	.cfi_offset 6, -32
	movq	%rsi, %rbp
	pushq	%rbx
	.cfi_def_cfa_offset 40
	.cfi_offset 3, -40
	movq	%rdi, %rbx
	subq	$136, %rsp
	.cfi_def_cfa_offset 176
	movq	%fs:40, %rax
	movq	%rax, 120(%rsp)
	movq	(%rsi), %rax
	movq	$0, 8(%rdi)
	movq	%rax, (%rdi)
	movq	8(%rsi), %rax
	movups	%xmm0, (%rsi)
	movq	%rax, 8(%rdi)
	leaq	80(%rdi), %rax
	movq	$0, 16(%rdi)
	movq	$0, 24(%rdi)
	movq	%rax, 32(%rdi)
	movq	$1, 40(%rdi)
	movq	$0, 48(%rdi)
	movq	$0, 56(%rdi)
	movl	$0x3f800000, 64(%rdi)
	movq	$0, 72(%rdi)
	movq	$0, 96(%rdi)
	movq	$0, 120(%rdi)
	movq	$1, 144(%rdi)
	movq	$0, 176(%rdi)
	movq	$0, 184(%rdi)
	movups	%xmm0, 80(%rdi)
	movups	%xmm0, 128(%rdi)
	movups	%xmm0, 160(%rdi)
	movl	$62001, %edi
.LEHB57:
	call	SDL_Init@PLT
	testl	%eax, %eax
	jne	.L2075
	call	_ZNSt6chrono3_V212steady_clock3nowEv@PLT
	leaq	80(%rsp), %r12
	movq	0(%rbp), %rsi
	movq	%rax, 120(%rbx)
	movq	%r12, %rdi
	call	_ZNK4Game8get_nameB5cxx11Ev@PLT
.LEHE57:
	movq	%rsp, %rbp
	movl	$800, %ecx
	movl	$800, %edx
	movq	%r12, %rsi
	movq	%rbp, %rdi
.LEHB58:
	call	_ZN9Render_2DC1ENSt7__cxx1112basic_stringIcSt11char_traitsIcESaIcEEEii@PLT
.LEHE58:
	leaq	32(%rbx), %rdi
	movq	%rbp, %rsi
	call	_ZNSt10_HashtableINSt7__cxx1112basic_stringIcSt11char_traitsIcESaIcEEESt4pairIKS5_7TextureESaIS9_ENSt8__detail10_Select1stESt8equal_toIS5_ESt4hashIS5_ENSB_18_Mod_range_hashingENSB_20_Default_ranged_hashENSB_20_Prime_rehash_policyENSB_17_Hashtable_traitsILb1ELb0ELb1EEEE14_M_move_assignEOSM_St17integral_constantIbLb1EE.isra.0
	movq	72(%rsp), %rax
	movdqu	56(%rsp), %xmm1
	movq	%rbp, %rdi
	movq	%rax, 104(%rbx)
	movups	%xmm1, 88(%rbx)
	call	_ZNSt10_HashtableINSt7__cxx1112basic_stringIcSt11char_traitsIcESaIcEEESt4pairIKS5_7TextureESaIS9_ENSt8__detail10_Select1stESt8equal_toIS5_ESt4hashIS5_ENSB_18_Mod_range_hashingENSB_20_Default_ranged_hashENSB_20_Prime_rehash_policyENSB_17_Hashtable_traitsILb1ELb0ELb1EEEED1Ev
	movq	80(%rsp), %rdi
	leaq	96(%rsp), %rax
	cmpq	%rax, %rdi
	je	.L2054
	movq	96(%rsp), %rax
	leaq	1(%rax), %rsi
	call	_ZdlPvm@PLT
.L2054:
	movq	120(%rsp), %rax
	subq	%fs:40, %rax
	jne	.L2077
	addq	$136, %rsp
	.cfi_remember_state
	.cfi_def_cfa_offset 40
	popq	%rbx
	.cfi_def_cfa_offset 32
	popq	%rbp
	.cfi_def_cfa_offset 24
	popq	%r12
	.cfi_def_cfa_offset 16
	popq	%r13
	.cfi_def_cfa_offset 8
	ret
.L2077:
	.cfi_restore_state
	call	__stack_chk_fail@PLT
.L2066:
	endbr64
	movq	%rax, %rbp
	jmp	.L2059
.L2073:
	endbr64
	jmp	.L2074
	.section	.gcc_except_table
.LLSDA12036:
	.byte	0xff
	.byte	0xff
	.byte	0x1
	.uleb128 .LLSDACSE12036-.LLSDACSB12036
.LLSDACSB12036:
	.uleb128 .LEHB57-.LFB12036
	.uleb128 .LEHE57-.LEHB57
	.uleb128 .L2073-.LFB12036
	.uleb128 0
	.uleb128 .LEHB58-.LFB12036
	.uleb128 .LEHE58-.LEHB58
	.uleb128 .L2066-.LFB12036
	.uleb128 0
.LLSDACSE12036:
	.text
	.cfi_endproc
	.section	.text.unlikely
	.cfi_startproc
	.cfi_personality 0x9b,DW.ref.__gxx_personality_v0
	.cfi_lsda 0x1b,.LLSDAC12036
	.type	_ZN6EngineC2EOSt10shared_ptrI4GameE.cold, @function
_ZN6EngineC2EOSt10shared_ptrI4GameE.cold:
.LFSB12036:
.L2075:
	.cfi_def_cfa_offset 176
	.cfi_offset 3, -40
	.cfi_offset 6, -32
	.cfi_offset 12, -24
	.cfi_offset 13, -16
	movl	$16, %edi
	call	__cxa_allocate_exception@PLT
	movl	$39, %esi
	leaq	.LC24(%rip), %rdx
	movq	%rax, %rdi
	movq	%rax, %r12
.LEHB59:
	call	_ZN5error13sdl_exceptionESt17basic_string_viewIcSt11char_traitsIcEE
.LEHE59:
	movq	_ZNSt13runtime_errorD1Ev@GOTPCREL(%rip), %rdx
	leaq	_ZTISt13runtime_error(%rip), %rsi
	movq	%r12, %rdi
.LEHB60:
	call	__cxa_throw@PLT
.LEHE60:
.L2059:
	movq	80(%rsp), %rdi
	leaq	96(%rsp), %rax
	cmpq	%rax, %rdi
	je	.L2058
	movq	96(%rsp), %rax
	leaq	1(%rax), %rsi
	call	_ZdlPvm@PLT
.L2058:
	movq	%r13, %rdi
	call	_ZNSt6vectorISt10shared_ptrI6EntityESaIS2_EED1Ev
	leaq	32(%rbx), %rdi
	call	_ZNSt10_HashtableINSt7__cxx1112basic_stringIcSt11char_traitsIcESaIcEEESt4pairIKS5_7TextureESaIS9_ENSt8__detail10_Select1stESt8equal_toIS5_ESt4hashIS5_ENSB_18_Mod_range_hashingENSB_20_Default_ranged_hashENSB_20_Prime_rehash_policyENSB_17_Hashtable_traitsILb1ELb0ELb1EEEED1Ev
	movq	24(%rbx), %rdi
	testq	%rdi, %rdi
	je	.L2061
	call	_ZNSt16_Sp_counted_baseILN9__gnu_cxx12_Lock_policyE2EE10_M_releaseEv
.L2061:
	movq	8(%rbx), %rdi
	testq	%rdi, %rdi
	je	.L2062
	call	_ZNSt16_Sp_counted_baseILN9__gnu_cxx12_Lock_policyE2EE10_M_releaseEv
.L2062:
	movq	%rbp, %rdi
.LEHB61:
	call	_Unwind_Resume@PLT
.LEHE61:
.L2064:
	endbr64
.L2074:
	movq	%rax, %rbp
	jmp	.L2058
.L2065:
	endbr64
	movq	%r12, %rdi
	movq	%rax, %rbp
	call	__cxa_free_exception@PLT
	jmp	.L2058
	.cfi_endproc
.LFE12036:
	.section	.gcc_except_table
.LLSDAC12036:
	.byte	0xff
	.byte	0xff
	.byte	0x1
	.uleb128 .LLSDACSEC12036-.LLSDACSBC12036
.LLSDACSBC12036:
	.uleb128 .LEHB59-.LCOLDB25
	.uleb128 .LEHE59-.LEHB59
	.uleb128 .L2065-.LCOLDB25
	.uleb128 0
	.uleb128 .LEHB60-.LCOLDB25
	.uleb128 .LEHE60-.LEHB60
	.uleb128 .L2064-.LCOLDB25
	.uleb128 0
	.uleb128 .LEHB61-.LCOLDB25
	.uleb128 .LEHE61-.LEHB61
	.uleb128 0
	.uleb128 0
.LLSDACSEC12036:
	.section	.text.unlikely
	.text
	.size	_ZN6EngineC2EOSt10shared_ptrI4GameE, .-_ZN6EngineC2EOSt10shared_ptrI4GameE
	.section	.text.unlikely
	.size	_ZN6EngineC2EOSt10shared_ptrI4GameE.cold, .-_ZN6EngineC2EOSt10shared_ptrI4GameE.cold
.LCOLDE25:
	.text
.LHOTE25:
	.globl	_ZN6EngineC1EOSt10shared_ptrI4GameE
	.set	_ZN6EngineC1EOSt10shared_ptrI4GameE,_ZN6EngineC2EOSt10shared_ptrI4GameE
	.section	.text._ZN4GameD2Ev,"axG",@progbits,_ZN4GameD5Ev,comdat
	.align 2
	.p2align 4
	.weak	_ZN4GameD2Ev
	.type	_ZN4GameD2Ev, @function
_ZN4GameD2Ev:
.LFB13092:
	.cfi_startproc
	endbr64
	pushq	%r13
	.cfi_def_cfa_offset 16
	.cfi_offset 13, -16
	leaq	16+_ZTV4Game(%rip), %rax
	movq	%rdi, %r13
	pushq	%r12
	.cfi_def_cfa_offset 24
	.cfi_offset 12, -24
	pushq	%rbp
	.cfi_def_cfa_offset 32
	.cfi_offset 6, -32
	pushq	%rbx
	.cfi_def_cfa_offset 40
	.cfi_offset 3, -40
	subq	$8, %rsp
	.cfi_def_cfa_offset 48
	movq	%rax, (%rdi)
	movq	32(%rdi), %rdi
	leaq	48(%r13), %rax
	cmpq	%rax, %rdi
	je	.L2079
	movq	48(%r13), %rax
	leaq	1(%rax), %rsi
	call	_ZdlPvm@PLT
.L2079:
	movq	16(%r13), %rbx
	movq	8(%r13), %rbp
	cmpq	%rbp, %rbx
	jne	.L2088
	jmp	.L2080
	.p2align 4,,10
	.p2align 3
.L2082:
	addq	$16, %rbp
	cmpq	%rbp, %rbx
	je	.L2092
.L2088:
	movq	8(%rbp), %r12
	testq	%r12, %r12
	je	.L2082
	cmpb	$0, __libc_single_threaded(%rip)
	je	.L2083
	movl	8(%r12), %eax
	leal	-1(%rax), %edx
	movl	%edx, 8(%r12)
.L2084:
	cmpl	$1, %eax
	jne	.L2082
	movq	(%r12), %rax
	movq	%r12, %rdi
	call	*16(%rax)
	cmpb	$0, __libc_single_threaded(%rip)
	je	.L2086
	movl	12(%r12), %eax
	leal	-1(%rax), %edx
	movl	%edx, 12(%r12)
.L2087:
	cmpl	$1, %eax
	jne	.L2082
	movq	(%r12), %rax
	addq	$16, %rbp
	movq	%r12, %rdi
	call	*24(%rax)
	cmpq	%rbp, %rbx
	jne	.L2088
	.p2align 4,,10
	.p2align 3
.L2092:
	movq	8(%r13), %rbp
.L2080:
	testq	%rbp, %rbp
	je	.L2078
	movq	24(%r13), %rsi
	addq	$8, %rsp
	.cfi_remember_state
	.cfi_def_cfa_offset 40
	movq	%rbp, %rdi
	popq	%rbx
	.cfi_def_cfa_offset 32
	subq	%rbp, %rsi
	popq	%rbp
	.cfi_def_cfa_offset 24
	popq	%r12
	.cfi_def_cfa_offset 16
	popq	%r13
	.cfi_def_cfa_offset 8
	jmp	_ZdlPvm@PLT
	.p2align 4,,10
	.p2align 3
.L2083:
	.cfi_restore_state
	movl	$-1, %eax
	lock xaddl	%eax, 8(%r12)
	jmp	.L2084
	.p2align 4,,10
	.p2align 3
.L2086:
	movl	$-1, %eax
	lock xaddl	%eax, 12(%r12)
	jmp	.L2087
	.p2align 4,,10
	.p2align 3
.L2078:
	addq	$8, %rsp
	.cfi_def_cfa_offset 40
	popq	%rbx
	.cfi_def_cfa_offset 32
	popq	%rbp
	.cfi_def_cfa_offset 24
	popq	%r12
	.cfi_def_cfa_offset 16
	popq	%r13
	.cfi_def_cfa_offset 8
	ret
	.cfi_endproc
.LFE13092:
	.size	_ZN4GameD2Ev, .-_ZN4GameD2Ev
	.weak	_ZN4GameD1Ev
	.set	_ZN4GameD1Ev,_ZN4GameD2Ev
	.section	.rodata.str1.1
.LC27:
	.string	"Engine::Engine(Game*)"
	.section	.text.unlikely
	.align 2
.LCOLDB28:
	.text
.LHOTB28:
	.align 2
	.p2align 4
	.globl	_ZN6EngineC2EP4Game
	.type	_ZN6EngineC2EP4Game, @function
_ZN6EngineC2EP4Game:
.LFB12040:
	.cfi_startproc
	.cfi_personality 0x9b,DW.ref.__gxx_personality_v0
	.cfi_lsda 0x1b,.LLSDA12040
	endbr64
	pushq	%r13
	.cfi_def_cfa_offset 16
	.cfi_offset 13, -16
	pushq	%r12
	.cfi_def_cfa_offset 24
	.cfi_offset 12, -24
	pushq	%rbp
	.cfi_def_cfa_offset 32
	.cfi_offset 6, -32
	movq	%rsi, %rbp
	pushq	%rbx
	.cfi_def_cfa_offset 40
	.cfi_offset 3, -40
	movq	%rdi, %rbx
	subq	$136, %rsp
	.cfi_def_cfa_offset 176
	movq	%fs:40, %rax
	movq	%rax, 120(%rsp)
	xorl	%eax, %eax
	movq	%rsi, (%rdi)
	movq	$0, 8(%rdi)
	movl	$24, %edi
.LEHB62:
	call	_Znwm@PLT
.LEHE62:
	movq	.LC26(%rip), %rdx
	leaq	16+_ZTVSt15_Sp_counted_ptrIP4GameLN9__gnu_cxx12_Lock_policyE2EE(%rip), %rcx
	movq	%rbp, 16(%rax)
	pxor	%xmm0, %xmm0
	movq	%rcx, (%rax)
	movl	$62001, %edi
	leaq	160(%rbx), %r13
	movq	%rdx, 8(%rax)
	movq	%rax, 8(%rbx)
	leaq	80(%rbx), %rax
	movq	$0, 16(%rbx)
	movq	$0, 24(%rbx)
	movq	%rax, 32(%rbx)
	movq	$1, 40(%rbx)
	movq	$0, 48(%rbx)
	movq	$0, 56(%rbx)
	movl	$0x3f800000, 64(%rbx)
	movq	$0, 72(%rbx)
	movq	$0, 96(%rbx)
	movq	$0, 120(%rbx)
	movq	$1, 144(%rbx)
	movq	$0, 176(%rbx)
	movq	$0, 184(%rbx)
	movups	%xmm0, 80(%rbx)
	movups	%xmm0, 128(%rbx)
	movups	%xmm0, 160(%rbx)
.LEHB63:
	call	SDL_Init@PLT
	testl	%eax, %eax
	jne	.L2125
	call	_ZNSt6chrono3_V212steady_clock3nowEv@PLT
	leaq	80(%rsp), %r12
	movq	%rbp, %rsi
	movq	%rax, 120(%rbx)
	movq	%r12, %rdi
	call	_ZNK4Game8get_nameB5cxx11Ev@PLT
.LEHE63:
	movq	%rsp, %rbp
	movl	$800, %ecx
	movl	$800, %edx
	movq	%r12, %rsi
	movq	%rbp, %rdi
.LEHB64:
	call	_ZN9Render_2DC1ENSt7__cxx1112basic_stringIcSt11char_traitsIcESaIcEEEii@PLT
.LEHE64:
	leaq	32(%rbx), %rdi
	movq	%rbp, %rsi
	call	_ZNSt10_HashtableINSt7__cxx1112basic_stringIcSt11char_traitsIcESaIcEEESt4pairIKS5_7TextureESaIS9_ENSt8__detail10_Select1stESt8equal_toIS5_ESt4hashIS5_ENSB_18_Mod_range_hashingENSB_20_Default_ranged_hashENSB_20_Prime_rehash_policyENSB_17_Hashtable_traitsILb1ELb0ELb1EEEE14_M_move_assignEOSM_St17integral_constantIbLb1EE.isra.0
	movq	72(%rsp), %rax
	movdqu	56(%rsp), %xmm1
	movq	%rbp, %rdi
	movq	%rax, 104(%rbx)
	movups	%xmm1, 88(%rbx)
	call	_ZNSt10_HashtableINSt7__cxx1112basic_stringIcSt11char_traitsIcESaIcEEESt4pairIKS5_7TextureESaIS9_ENSt8__detail10_Select1stESt8equal_toIS5_ESt4hashIS5_ENSB_18_Mod_range_hashingENSB_20_Default_ranged_hashENSB_20_Prime_rehash_policyENSB_17_Hashtable_traitsILb1ELb0ELb1EEEED1Ev
	movq	80(%rsp), %rdi
	leaq	96(%rsp), %rax
	cmpq	%rax, %rdi
	je	.L2093
	movq	96(%rsp), %rax
	leaq	1(%rax), %rsi
	call	_ZdlPvm@PLT
.L2093:
	movq	120(%rsp), %rax
	subq	%fs:40, %rax
	jne	.L2126
	addq	$136, %rsp
	.cfi_remember_state
	.cfi_def_cfa_offset 40
	popq	%rbx
	.cfi_def_cfa_offset 32
	popq	%rbp
	.cfi_def_cfa_offset 24
	popq	%r12
	.cfi_def_cfa_offset 16
	popq	%r13
	.cfi_def_cfa_offset 8
	ret
.L2126:
	.cfi_restore_state
	call	__stack_chk_fail@PLT
.L2109:
	endbr64
	movq	%rax, %rbp
	jmp	.L2102
.L2125:
	jmp	.L2123
.L2121:
	endbr64
	jmp	.L2122
.L2111:
	endbr64
	movq	%rax, %rdi
	jmp	.L2095
	.section	.gcc_except_table
	.align 4
.LLSDA12040:
	.byte	0xff
	.byte	0x9b
	.uleb128 .LLSDATT12040-.LLSDATTD12040
.LLSDATTD12040:
	.byte	0x1
	.uleb128 .LLSDACSE12040-.LLSDACSB12040
.LLSDACSB12040:
	.uleb128 .LEHB62-.LFB12040
	.uleb128 .LEHE62-.LEHB62
	.uleb128 .L2111-.LFB12040
	.uleb128 0x1
	.uleb128 .LEHB63-.LFB12040
	.uleb128 .LEHE63-.LEHB63
	.uleb128 .L2121-.LFB12040
	.uleb128 0
	.uleb128 .LEHB64-.LFB12040
	.uleb128 .LEHE64-.LEHB64
	.uleb128 .L2109-.LFB12040
	.uleb128 0
.LLSDACSE12040:
	.byte	0x1
	.byte	0
	.align 4
	.long	0

.LLSDATT12040:
	.text
	.cfi_endproc
	.section	.text.unlikely
	.cfi_startproc
	.cfi_personality 0x9b,DW.ref.__gxx_personality_v0
	.cfi_lsda 0x1b,.LLSDAC12040
	.type	_ZN6EngineC2EP4Game.cold, @function
_ZN6EngineC2EP4Game.cold:
.LFSB12040:
.L2102:
	.cfi_def_cfa_offset 176
	.cfi_offset 3, -40
	.cfi_offset 6, -32
	.cfi_offset 12, -24
	.cfi_offset 13, -16
	movq	80(%rsp), %rdi
	leaq	96(%rsp), %rax
	cmpq	%rax, %rdi
	je	.L2101
	movq	96(%rsp), %rax
	leaq	1(%rax), %rsi
	call	_ZdlPvm@PLT
.L2101:
	movq	%r13, %rdi
	call	_ZNSt6vectorISt10shared_ptrI6EntityESaIS2_EED1Ev
	leaq	32(%rbx), %rdi
	call	_ZNSt10_HashtableINSt7__cxx1112basic_stringIcSt11char_traitsIcESaIcEEESt4pairIKS5_7TextureESaIS9_ENSt8__detail10_Select1stESt8equal_toIS5_ESt4hashIS5_ENSB_18_Mod_range_hashingENSB_20_Default_ranged_hashENSB_20_Prime_rehash_policyENSB_17_Hashtable_traitsILb1ELb0ELb1EEEED1Ev
	movq	24(%rbx), %rdi
	testq	%rdi, %rdi
	je	.L2104
	call	_ZNSt16_Sp_counted_baseILN9__gnu_cxx12_Lock_policyE2EE10_M_releaseEv
.L2104:
	movq	8(%rbx), %rdi
	testq	%rdi, %rdi
	je	.L2105
	call	_ZNSt16_Sp_counted_baseILN9__gnu_cxx12_Lock_policyE2EE10_M_releaseEv
.L2105:
	movq	%rbp, %rdi
.LEHB65:
	call	_Unwind_Resume@PLT
.LEHE65:
.L2123:
	movl	$16, %edi
	call	__cxa_allocate_exception@PLT
	movl	$21, %esi
	leaq	.LC27(%rip), %rdx
	movq	%rax, %rdi
	movq	%rax, %r12
.LEHB66:
	call	_ZN5error13sdl_exceptionESt17basic_string_viewIcSt11char_traitsIcEE
.LEHE66:
	movq	_ZNSt13runtime_errorD1Ev@GOTPCREL(%rip), %rdx
	leaq	_ZTISt13runtime_error(%rip), %rsi
	movq	%r12, %rdi
.LEHB67:
	call	__cxa_throw@PLT
.LEHE67:
.L2107:
	endbr64
.L2122:
	movq	%rax, %rbp
	jmp	.L2101
.L2095:
	call	__cxa_begin_catch@PLT
	testq	%rbp, %rbp
	je	.L2096
	movq	%rbp, %rdi
	call	_ZN4GameD1Ev
	movl	$64, %esi
	movq	%rbp, %rdi
	call	_ZdlPvm@PLT
.L2096:
.LEHB68:
	call	__cxa_rethrow@PLT
.LEHE68:
.L2108:
	endbr64
	movq	%r12, %rdi
	movq	%rax, %rbp
	call	__cxa_free_exception@PLT
	jmp	.L2101
.L2110:
	endbr64
	movq	%rax, %rbp
	call	__cxa_end_catch@PLT
	movq	%rbp, %rdi
.LEHB69:
	call	_Unwind_Resume@PLT
.LEHE69:
	.cfi_endproc
.LFE12040:
	.section	.gcc_except_table
	.align 4
.LLSDAC12040:
	.byte	0xff
	.byte	0x9b
	.uleb128 .LLSDATTC12040-.LLSDATTDC12040
.LLSDATTDC12040:
	.byte	0x1
	.uleb128 .LLSDACSEC12040-.LLSDACSBC12040
.LLSDACSBC12040:
	.uleb128 .LEHB65-.LCOLDB28
	.uleb128 .LEHE65-.LEHB65
	.uleb128 0
	.uleb128 0
	.uleb128 .LEHB66-.LCOLDB28
	.uleb128 .LEHE66-.LEHB66
	.uleb128 .L2108-.LCOLDB28
	.uleb128 0
	.uleb128 .LEHB67-.LCOLDB28
	.uleb128 .LEHE67-.LEHB67
	.uleb128 .L2107-.LCOLDB28
	.uleb128 0
	.uleb128 .LEHB68-.LCOLDB28
	.uleb128 .LEHE68-.LEHB68
	.uleb128 .L2110-.LCOLDB28
	.uleb128 0
	.uleb128 .LEHB69-.LCOLDB28
	.uleb128 .LEHE69-.LEHB69
	.uleb128 0
	.uleb128 0
.LLSDACSEC12040:
	.byte	0x1
	.byte	0
	.align 4
	.long	0

.LLSDATTC12040:
	.section	.text.unlikely
	.text
	.size	_ZN6EngineC2EP4Game, .-_ZN6EngineC2EP4Game
	.section	.text.unlikely
	.size	_ZN6EngineC2EP4Game.cold, .-_ZN6EngineC2EP4Game.cold
.LCOLDE28:
	.text
.LHOTE28:
	.globl	_ZN6EngineC1EP4Game
	.set	_ZN6EngineC1EP4Game,_ZN6EngineC2EP4Game
	.section	.text.startup,"ax",@progbits
	.p2align 4
	.type	_GLOBAL__sub_I__ZN6Engine18SDL_to_input_eventE17SDL_KeyboardEvent, @function
_GLOBAL__sub_I__ZN6Engine18SDL_to_input_eventE17SDL_KeyboardEvent:
.LFB13387:
	.cfi_startproc
	endbr64
	pushq	%rbp
	.cfi_def_cfa_offset 16
	.cfi_offset 6, -16
	leaq	_ZStL8__ioinit(%rip), %rbp
	movq	%rbp, %rdi
	call	_ZNSt8ios_base4InitC1Ev@PLT
	movq	_ZNSt8ios_base4InitD1Ev@GOTPCREL(%rip), %rdi
	movq	%rbp, %rsi
	popq	%rbp
	.cfi_def_cfa_offset 8
	leaq	__dso_handle(%rip), %rdx
	jmp	__cxa_atexit@PLT
	.cfi_endproc
.LFE13387:
	.size	_GLOBAL__sub_I__ZN6Engine18SDL_to_input_eventE17SDL_KeyboardEvent, .-_GLOBAL__sub_I__ZN6Engine18SDL_to_input_eventE17SDL_KeyboardEvent
	.section	.init_array,"aw"
	.align 8
	.quad	_GLOBAL__sub_I__ZN6Engine18SDL_to_input_eventE17SDL_KeyboardEvent
	.section	.rodata
	.align 8
	.type	CSWTCH.221, @object
	.size	CSWTCH.221, 12
CSWTCH.221:
	.long	131072
	.long	524288
	.long	262144
	.weak	_ZTSSt11_Mutex_baseILN9__gnu_cxx12_Lock_policyE2EE
	.section	.rodata._ZTSSt11_Mutex_baseILN9__gnu_cxx12_Lock_policyE2EE,"aG",@progbits,_ZTSSt11_Mutex_baseILN9__gnu_cxx12_Lock_policyE2EE,comdat
	.align 32
	.type	_ZTSSt11_Mutex_baseILN9__gnu_cxx12_Lock_policyE2EE, @object
	.size	_ZTSSt11_Mutex_baseILN9__gnu_cxx12_Lock_policyE2EE, 47
_ZTSSt11_Mutex_baseILN9__gnu_cxx12_Lock_policyE2EE:
	.string	"St11_Mutex_baseILN9__gnu_cxx12_Lock_policyE2EE"
	.weak	_ZTISt11_Mutex_baseILN9__gnu_cxx12_Lock_policyE2EE
	.section	.data.rel.ro._ZTISt11_Mutex_baseILN9__gnu_cxx12_Lock_policyE2EE,"awG",@progbits,_ZTISt11_Mutex_baseILN9__gnu_cxx12_Lock_policyE2EE,comdat
	.align 8
	.type	_ZTISt11_Mutex_baseILN9__gnu_cxx12_Lock_policyE2EE, @object
	.size	_ZTISt11_Mutex_baseILN9__gnu_cxx12_Lock_policyE2EE, 16
_ZTISt11_Mutex_baseILN9__gnu_cxx12_Lock_policyE2EE:
	.quad	_ZTVN10__cxxabiv117__class_type_infoE+16
	.quad	_ZTSSt11_Mutex_baseILN9__gnu_cxx12_Lock_policyE2EE
	.weak	_ZTSSt16_Sp_counted_baseILN9__gnu_cxx12_Lock_policyE2EE
	.section	.rodata._ZTSSt16_Sp_counted_baseILN9__gnu_cxx12_Lock_policyE2EE,"aG",@progbits,_ZTSSt16_Sp_counted_baseILN9__gnu_cxx12_Lock_policyE2EE,comdat
	.align 32
	.type	_ZTSSt16_Sp_counted_baseILN9__gnu_cxx12_Lock_policyE2EE, @object
	.size	_ZTSSt16_Sp_counted_baseILN9__gnu_cxx12_Lock_policyE2EE, 52
_ZTSSt16_Sp_counted_baseILN9__gnu_cxx12_Lock_policyE2EE:
	.string	"St16_Sp_counted_baseILN9__gnu_cxx12_Lock_policyE2EE"
	.weak	_ZTISt16_Sp_counted_baseILN9__gnu_cxx12_Lock_policyE2EE
	.section	.data.rel.ro._ZTISt16_Sp_counted_baseILN9__gnu_cxx12_Lock_policyE2EE,"awG",@progbits,_ZTISt16_Sp_counted_baseILN9__gnu_cxx12_Lock_policyE2EE,comdat
	.align 8
	.type	_ZTISt16_Sp_counted_baseILN9__gnu_cxx12_Lock_policyE2EE, @object
	.size	_ZTISt16_Sp_counted_baseILN9__gnu_cxx12_Lock_policyE2EE, 24
_ZTISt16_Sp_counted_baseILN9__gnu_cxx12_Lock_policyE2EE:
	.quad	_ZTVN10__cxxabiv120__si_class_type_infoE+16
	.quad	_ZTSSt16_Sp_counted_baseILN9__gnu_cxx12_Lock_policyE2EE
	.quad	_ZTISt11_Mutex_baseILN9__gnu_cxx12_Lock_policyE2EE
	.weak	_ZTSSt15_Sp_counted_ptrIP4GameLN9__gnu_cxx12_Lock_policyE2EE
	.section	.rodata._ZTSSt15_Sp_counted_ptrIP4GameLN9__gnu_cxx12_Lock_policyE2EE,"aG",@progbits,_ZTSSt15_Sp_counted_ptrIP4GameLN9__gnu_cxx12_Lock_policyE2EE,comdat
	.align 32
	.type	_ZTSSt15_Sp_counted_ptrIP4GameLN9__gnu_cxx12_Lock_policyE2EE, @object
	.size	_ZTSSt15_Sp_counted_ptrIP4GameLN9__gnu_cxx12_Lock_policyE2EE, 57
_ZTSSt15_Sp_counted_ptrIP4GameLN9__gnu_cxx12_Lock_policyE2EE:
	.string	"St15_Sp_counted_ptrIP4GameLN9__gnu_cxx12_Lock_policyE2EE"
	.weak	_ZTISt15_Sp_counted_ptrIP4GameLN9__gnu_cxx12_Lock_policyE2EE
	.section	.data.rel.ro._ZTISt15_Sp_counted_ptrIP4GameLN9__gnu_cxx12_Lock_policyE2EE,"awG",@progbits,_ZTISt15_Sp_counted_ptrIP4GameLN9__gnu_cxx12_Lock_policyE2EE,comdat
	.align 8
	.type	_ZTISt15_Sp_counted_ptrIP4GameLN9__gnu_cxx12_Lock_policyE2EE, @object
	.size	_ZTISt15_Sp_counted_ptrIP4GameLN9__gnu_cxx12_Lock_policyE2EE, 24
_ZTISt15_Sp_counted_ptrIP4GameLN9__gnu_cxx12_Lock_policyE2EE:
	.quad	_ZTVN10__cxxabiv120__si_class_type_infoE+16
	.quad	_ZTSSt15_Sp_counted_ptrIP4GameLN9__gnu_cxx12_Lock_policyE2EE
	.quad	_ZTISt16_Sp_counted_baseILN9__gnu_cxx12_Lock_policyE2EE
	.weak	_ZTVSt15_Sp_counted_ptrIP4GameLN9__gnu_cxx12_Lock_policyE2EE
	.section	.data.rel.ro.local._ZTVSt15_Sp_counted_ptrIP4GameLN9__gnu_cxx12_Lock_policyE2EE,"awG",@progbits,_ZTVSt15_Sp_counted_ptrIP4GameLN9__gnu_cxx12_Lock_policyE2EE,comdat
	.align 8
	.type	_ZTVSt15_Sp_counted_ptrIP4GameLN9__gnu_cxx12_Lock_policyE2EE, @object
	.size	_ZTVSt15_Sp_counted_ptrIP4GameLN9__gnu_cxx12_Lock_policyE2EE, 56
_ZTVSt15_Sp_counted_ptrIP4GameLN9__gnu_cxx12_Lock_policyE2EE:
	.quad	0
	.quad	_ZTISt15_Sp_counted_ptrIP4GameLN9__gnu_cxx12_Lock_policyE2EE
	.quad	_ZNSt15_Sp_counted_ptrIP4GameLN9__gnu_cxx12_Lock_policyE2EED1Ev
	.quad	_ZNSt15_Sp_counted_ptrIP4GameLN9__gnu_cxx12_Lock_policyE2EED0Ev
	.quad	_ZNSt15_Sp_counted_ptrIP4GameLN9__gnu_cxx12_Lock_policyE2EE10_M_disposeEv
	.quad	_ZNSt15_Sp_counted_ptrIP4GameLN9__gnu_cxx12_Lock_policyE2EE10_M_destroyEv
	.quad	_ZNSt15_Sp_counted_ptrIP4GameLN9__gnu_cxx12_Lock_policyE2EE14_M_get_deleterERKSt9type_info
	.local	_ZStL8__ioinit
	.comm	_ZStL8__ioinit,1,1
	.section	.rodata.cst4,"aM",@progbits,4
	.align 4
.LC2:
	.long	1008981770
	.section	.rodata.cst8,"aM",@progbits,8
	.align 8
.LC3:
	.long	-400107883
	.long	1041313291
	.section	.rodata.cst4
	.align 4
.LC6:
	.long	2139095039
	.section	.rodata.cst8
	.align 8
.LC26:
	.long	1
	.long	1
	.hidden	DW.ref.__gxx_personality_v0
	.weak	DW.ref.__gxx_personality_v0
	.section	.data.rel.local.DW.ref.__gxx_personality_v0,"awG",@progbits,DW.ref.__gxx_personality_v0,comdat
	.align 8
	.type	DW.ref.__gxx_personality_v0, @object
	.size	DW.ref.__gxx_personality_v0, 8
DW.ref.__gxx_personality_v0:
	.quad	__gxx_personality_v0
	.hidden	__dso_handle
	.ident	"GCC: (Ubuntu 11.4.0-1ubuntu1~22.04) 11.4.0"
	.section	.note.GNU-stack,"",@progbits
	.section	.note.gnu.property,"a"
	.align 8
	.long	1f - 0f
	.long	4f - 1f
	.long	5
0:
	.string	"GNU"
1:
	.align 8
	.long	0xc0000002
	.long	3f - 2f
2:
	.long	0x3
3:
	.align 8
4:
